
../../../libs/openFrameworksCompiled/lib/osx/openFrameworks.a(ofAppGlutWindow.o):
00015914 s EH_frame0
0001597c s EH_frame1
00014fa0 s GCC_except_table0
00014fc0 s GCC_except_table1
00014fe0 s GCC_except_table17
00015034 s GCC_except_table44
000150e0 s GCC_except_table45
0001512c s GCC_except_table46
00015158 s GCC_except_table47
         U _SetSystemUIMode
000157a0 s __GLOBAL__I_a
00015ee0 s __GLOBAL__I_a.eh
         U __Unwind_Resume
         U __Z10ofGetWidthv
         U __Z10ofViewportffffb
         U __Z10ofbClearBgv
         U __Z11ofGetHeightv
         U __Z12ofBgColorPtrv
         U __Z12ofNotifyDrawv
         U __Z13ofNotifySetupv
         U __Z13ofSetupScreenv
00001230 T __Z13rotateMouseXY13ofOrientationRiS0_
00015ddc S __Z13rotateMouseXY13ofOrientationRiS0_.eh
         U __Z14ofNotifyUpdatev
         U __Z17ofGetElapsedTimefv
         U __Z17ofNotifyDragEvent10ofDragInfo
         U __Z18ofNotifyKeyPressedi
         U __Z18ofNotifyMouseMovedii
         U __Z19ofNotifyKeyReleasedi
         U __Z19ofNotifyWindowEntryi
         U __Z20ofNotifyMouseDraggediii
         U __Z20ofNotifyMousePressediii
         U __Z21ofNotifyMouseReleasediii
         U __Z21ofNotifyWindowResizedii
         U __Z22ofGetElapsedTimeMillisv
         U __Z7ofClearffff
00016190 b __ZL10prevMillis
00016174 b __ZL10windowMode
00016184 b __ZL11buttonInUse
00016180 b __ZL11nFrameCount
000161b0 b __ZL11orientation
00016189 b __ZL13bFrameRateSet.b
000161a8 b __ZL13lastFrameTime
00016178 b __ZL14bNewScreenMode.b
0001618c b __ZL14millisForFrame
0001619c b __ZL14nonFullScreenX
000161a0 b __ZL14nonFullScreenY
00016194 b __ZL14requestedWidth
000161b4 b __ZL15bDoubleBuffered
00016198 b __ZL15requestedHeight
00016188 b __ZL18bEnableSetupScreen.b
0001617c b __ZL25nFramesSinceWindowResized
0001616c b __ZL3fps
00016164 b __ZL7timeNow
000161bc b __ZL7windowH
000161b8 b __ZL7windowW
00016168 b __ZL8timeThen
00016170 b __ZL9frameRate
00015280 S __ZN15ofAppBaseWindow17doesHWOrientationEv
00015e34 S __ZN15ofAppBaseWindow17doesHWOrientationEv.eh
000010a0 T __ZN15ofAppGlutWindow10hideCursorEv
00015cfc S __ZN15ofAppGlutWindow10hideCursorEv.eh
000010c0 T __ZN15ofAppGlutWindow10showCursorEv
00015d18 S __ZN15ofAppGlutWindow10showCursorEv.eh
00000e90 T __ZN15ofAppGlutWindow11getFrameNumEv
00015bc4 S __ZN15ofAppGlutWindow11getFrameNumEv.eh
00000a40 T __ZN15ofAppGlutWindow11keyboard_cbEhii
00015aa4 S __ZN15ofAppGlutWindow11keyboard_cbEhii.eh
000002e0 T __ZN15ofAppGlutWindow11setupOpenGLEiii
000159cc S __ZN15ofAppGlutWindow11setupOpenGLEiii.eh
00000e50 T __ZN15ofAppGlutWindow12getFrameRateEv
00015b8c S __ZN15ofAppGlutWindow12getFrameRateEv.eh
000010e0 T __ZN15ofAppGlutWindow12setFrameRateEf
00015d34 S __ZN15ofAppGlutWindow12setFrameRateEf.eh
00000f50 T __ZN15ofAppGlutWindow13getScreenSizeEv
00015c34 S __ZN15ofAppGlutWindow13getScreenSizeEv.eh
00001140 T __ZN15ofAppGlutWindow13getWindowModeEv
00015d50 S __ZN15ofAppGlutWindow13getWindowModeEv.eh
00000ed0 T __ZN15ofAppGlutWindow13getWindowSizeEv
00015bfc S __ZN15ofAppGlutWindow13getWindowSizeEv.eh
00001190 T __ZN15ofAppGlutWindow13setFullscreenEb
00015d88 S __ZN15ofAppGlutWindow13setFullscreenEb.eh
00001020 T __ZN15ofAppGlutWindow14getOrientationEv
00015ca4 S __ZN15ofAppGlutWindow14getOrientationEv.eh
00000a60 T __ZN15ofAppGlutWindow14keyboard_up_cbEhii
00015ac0 S __ZN15ofAppGlutWindow14keyboard_up_cbEhii.eh
00001000 T __ZN15ofAppGlutWindow14setOrientationE13ofOrientation
00015c88 S __ZN15ofAppGlutWindow14setOrientationE13ofOrientation.eh
00001060 T __ZN15ofAppGlutWindow14setWindowShapeEii
00015cdc S __ZN15ofAppGlutWindow14setWindowShapeEii.eh
00000eb0 T __ZN15ofAppGlutWindow14setWindowTitleESs
00015be0 S __ZN15ofAppGlutWindow14setWindowTitleESs.eh
00000a80 T __ZN15ofAppGlutWindow14special_key_cbEiii
00015adc S __ZN15ofAppGlutWindow14special_key_cbEiii.eh
00000e70 T __ZN15ofAppGlutWindow16getLastFrameTimeEv
00015ba8 S __ZN15ofAppGlutWindow16getLastFrameTimeEv.eh
000004c0 T __ZN15ofAppGlutWindow16initializeWindowEv
000159ec S __ZN15ofAppGlutWindow16initializeWindowEv.eh
00001160 T __ZN15ofAppGlutWindow16toggleFullscreenEv
00015d6c S __ZN15ofAppGlutWindow16toggleFullscreenEv.eh
000011f0 T __ZN15ofAppGlutWindow17enableSetupScreenEv
00015da4 S __ZN15ofAppGlutWindow17enableSetupScreenEv.eh
00000f00 T __ZN15ofAppGlutWindow17getWindowPositionEv
00015c18 S __ZN15ofAppGlutWindow17getWindowPositionEv.eh
000006d0 T __ZN15ofAppGlutWindow17passive_motion_cbEii
00015a48 S __ZN15ofAppGlutWindow17passive_motion_cbEii.eh
00001040 T __ZN15ofAppGlutWindow17setWindowPositionEii
00015cc0 S __ZN15ofAppGlutWindow17setWindowPositionEii.eh
00000aa0 T __ZN15ofAppGlutWindow17special_key_up_cbEiii
00015af8 S __ZN15ofAppGlutWindow17special_key_up_cbEiii.eh
00001210 T __ZN15ofAppGlutWindow18disableSetupScreenEv
00015dc0 S __ZN15ofAppGlutWindow18disableSetupScreenEv.eh
000002c0 T __ZN15ofAppGlutWindow18setDoubleBufferingEb
000159b0 S __ZN15ofAppGlutWindow18setDoubleBufferingEb.eh
000002a0 T __ZN15ofAppGlutWindow20setGlutDisplayStringESs
00015994 S __ZN15ofAppGlutWindow20setGlutDisplayStringESs.eh
00000e30 T __ZN15ofAppGlutWindow21runAppViaInfiniteLoopEP9ofBaseApp
00015b70 S __ZN15ofAppGlutWindow21runAppViaInfiniteLoopEP9ofBaseApp.eh
00000830 T __ZN15ofAppGlutWindow7displayEv
00015a84 S __ZN15ofAppGlutWindow7displayEv.eh
00000750 T __ZN15ofAppGlutWindow7idle_cbEv
00015a68 S __ZN15ofAppGlutWindow7idle_cbEv.eh
00000b00 T __ZN15ofAppGlutWindow8entry_cbEi
00015b30 S __ZN15ofAppGlutWindow8entry_cbEi.eh
00000fa0 T __ZN15ofAppGlutWindow8getWidthEv
00015c50 S __ZN15ofAppGlutWindow8getWidthEv.eh
00000590 T __ZN15ofAppGlutWindow8mouse_cbEiiii
00015a08 S __ZN15ofAppGlutWindow8mouse_cbEiiii.eh
00000b10 T __ZN15ofAppGlutWindow9dragEventEPPciii
00015b4c S __ZN15ofAppGlutWindow9dragEventEPPciii.eh
00000fd0 T __ZN15ofAppGlutWindow9getHeightEv
00015c6c S __ZN15ofAppGlutWindow9getHeightEv.eh
00000640 T __ZN15ofAppGlutWindow9motion_cbEii
00015a28 S __ZN15ofAppGlutWindow9motion_cbEii.eh
00000ac0 T __ZN15ofAppGlutWindow9resize_cbEii
00015b14 S __ZN15ofAppGlutWindow9resize_cbEii.eh
00000000 T __ZN15ofAppGlutWindowC1Ev
00015934 S __ZN15ofAppGlutWindowC1Ev.eh
00000150 T __ZN15ofAppGlutWindowC2Ev
00015958 S __ZN15ofAppGlutWindowC2Ev.eh
00015220 S __ZN15ofAppGlutWindowD0Ev
00015e18 S __ZN15ofAppGlutWindowD0Ev.eh
000151d0 S __ZN15ofAppGlutWindowD1Ev
00015dfc S __ZN15ofAppGlutWindowD1Ev.eh
         U __ZN5ofLogC1E10ofLogLevelPKcz
         U __ZN5ofLogD1Ev
         U __ZNKSs7compareEPKc
         U __ZNSs4_Rep10_M_destroyERKSaIcE
         U __ZNSs4_Rep20_S_empty_rep_storageE
         U __ZNSs6assignEPKcm
         U __ZNSs6assignERKSs
         U __ZNSsC1EPKcRKSaIcE
         U __ZNSsC1ERKSs
00015290 S __ZNSt6vectorISsSaISsEE13_M_insert_auxEN9__gnu_cxx17__normal_iteratorIPSsS1_EERKSs
00015e50 S __ZNSt6vectorISsSaISsEE13_M_insert_auxEN9__gnu_cxx17__normal_iteratorIPSsS1_EERKSs.eh
00015620 S __ZNSt6vectorISsSaISsEEC2ERKS1_
00015e98 S __ZNSt6vectorISsSaISsEEC2ERKS1_.eh
         U __ZNSt8ios_base4InitC1Ev
         U __ZNSt8ios_base4InitD1Ev
         U __ZSt17__throw_bad_allocv
         U __ZSt20__throw_length_errorPKc
000156d0 S __ZSt24__uninitialized_copy_auxIN9__gnu_cxx17__normal_iteratorIPKSsSt6vectorISsSaISsEEEEPSsET0_T_SA_S9_St12__false_type
00015ebc S __ZSt24__uninitialized_copy_auxIN9__gnu_cxx17__normal_iteratorIPKSsSt6vectorISsSaISsEEEEPSsET0_T_SA_S9_St12__false_type.eh
00015560 S __ZSt24__uninitialized_copy_auxIPSsS0_ET0_T_S2_S1_St12__false_type
00015e74 S __ZSt24__uninitialized_copy_auxIPSsS0_ET0_T_S2_S1_St12__false_type.eh
         U __ZSt9terminatev
00016160 b __ZStL8__ioinit
00015908 S __ZTI15ofAppBaseWindow
00015858 S __ZTI15ofAppGlutWindow
000158f0 S __ZTS15ofAppBaseWindow
000158d0 S __ZTS15ofAppGlutWindow
000157e0 S __ZTV15ofAppGlutWindow
         U __ZTVN10__cxxabiv117__class_type_infoE
         U __ZTVN10__cxxabiv120__si_class_type_infoE
         U __ZdlPv
         U __Znwm
         U ___cxa_atexit
         U ___cxa_begin_catch
         U ___cxa_end_catch
         U ___cxa_rethrow
         U ___dso_handle
         U ___gxx_personality_v0
         U ___stack_chk_fail
         U ___stack_chk_guard
         U _glFlush
         U _glutCreateWindow
         U _glutDisplayFunc
         U _glutDragEventFunc
         U _glutEnterGameMode
         U _glutEntryFunc
         U _glutFullScreen
         U _glutGameModeGet
         U _glutGameModeString
         U _glutGet
         U _glutIdleFunc
         U _glutInit
         U _glutInitDisplayMode
         U _glutInitDisplayString
         U _glutInitWindowSize
         U _glutKeyboardFunc
         U _glutKeyboardUpFunc
         U _glutMainLoop
         U _glutMotionFunc
         U _glutMouseFunc
         U _glutPassiveMotionFunc
         U _glutPositionWindow
         U _glutPostRedisplay
         U _glutReshapeFunc
         U _glutReshapeWindow
         U _glutSetCursor
         U _glutSetWindowTitle
         U _glutSpecialFunc
         U _glutSpecialUpFunc
         U _glutSwapBuffers
         U _sprintf
         U _usleep$UNIX2003

../../../libs/openFrameworksCompiled/lib/osx/openFrameworks.a(ofAppRunner.o):
00036d88 s EH_frame0
00036de0 s EH_frame1
00036638 s GCC_except_table2
000366ac s GCC_except_table3
000367e0 s GCC_except_table34
0003680c s GCC_except_table41
00036858 s GCC_except_table47
00036714 s GCC_except_table5
000368a4 s GCC_except_table52
00036760 s GCC_except_table7
         U _CGLGetCurrentContext
         U _CGLSetParameter
000368f0 s __GLOBAL__I_a
000374bc s __GLOBAL__I_a.eh
         U __Unwind_Resume
00000a70 T __Z10ofGetWidthv
000370e4 S __Z10ofGetWidthv.eh
00000750 T __Z11ofGetAppPtrv
00036ee8 S __Z11ofGetAppPtrv.eh
00000a90 T __Z11ofGetHeightv
00037100 S __Z11ofGetHeightv.eh
00000770 T __Z11ofSetAppPtr5ofPtrI9ofBaseAppE
00036f04 S __Z11ofSetAppPtr5ofPtrI9ofBaseAppE.eh
000008c0 T __Z12ofHideCursorv
00036fcc S __Z12ofHideCursorv.eh
         U __Z12ofNotifyExitv
         U __Z12ofSeedRandomv
000008e0 T __Z12ofShowCursorv
00036fe8 S __Z12ofShowCursorv.eh
00000810 T __Z13ofGetFrameNumv
00036f40 S __Z13ofGetFrameNumv.eh
00000120 T __Z13ofSetupOpenGL5ofPtrI15ofAppBaseWindowEiii
00036e24 S __Z13ofSetupOpenGL5ofPtrI15ofAppBaseWindowEiii.eh
00000000 T __Z13ofSetupOpenGLP15ofAppBaseWindowiii
00036e00 S __Z13ofSetupOpenGLP15ofAppBaseWindowiii.eh
00000490 T __Z13ofSetupOpenGLiii
00036ea4 S __Z13ofSetupOpenGLiii.eh
000008a0 T __Z13ofSleepMillisi
00036fb0 S __Z13ofSleepMillisi.eh
         U __Z14closeQuicktimev
00000470 T __Z14ofExitCallbackv
00036e88 S __Z14ofExitCallbackv.eh
00000830 T __Z14ofGetFrameRatev
00036f5c S __Z14ofGetFrameRatev.eh
00000870 T __Z14ofSetFrameRatei
00036f94 S __Z14ofSetFrameRatei.eh
00000d40 T __Z15ofGetWindowModev
0003723c S __Z15ofGetWindowModev.eh
00000b70 T __Z15ofGetWindowRectv
0003718c S __Z15ofGetWindowRectv.eh
00000b40 T __Z15ofGetWindowSizev
00037170 S __Z15ofGetWindowSizev.eh
00000d10 T __Z15ofSetFullscreenb
00037220 S __Z15ofSetFullscreenb.eh
         U __Z15ofSoundShutdownv
         U __Z16ofCloseFreeImagev
00000930 T __Z16ofGetOrientationv
00037020 S __Z16ofGetOrientationv.eh
00000a10 T __Z16ofGetScreenWidthv
000370ac S __Z16ofGetScreenWidthv.eh
00000ab0 T __Z16ofGetWindowWidthv
0003711c S __Z16ofGetWindowWidthv.eh
00000900 T __Z16ofSetOrientation13ofOrientation
00037004 S __Z16ofSetOrientation13ofOrientation.eh
00000980 T __Z16ofSetWindowShapeii
00037058 S __Z16ofSetWindowShapeii.eh
00000c00 T __Z16ofSetWindowTitleSs
000371a8 S __Z16ofSetWindowTitleSs.eh
00000a40 T __Z17ofGetScreenHeightv
000370c8 S __Z17ofGetScreenHeightv.eh
00000ae0 T __Z17ofGetWindowHeightv
00037138 S __Z17ofGetWindowHeightv.eh
00000d60 T __Z17ofSetVerticalSyncb
00037258 S __Z17ofSetVerticalSyncb.eh
00000850 T __Z18ofGetLastFrameTimev
00036f78 S __Z18ofGetLastFrameTimev.eh
00000cf0 T __Z18ofToggleFullscreenv
00037204 S __Z18ofToggleFullscreenv.eh
00000b10 T __Z19ofDoesHWOrientationv
00037154 S __Z19ofDoesHWOrientationv.eh
00000cb0 T __Z19ofEnableSetupScreenv
000371cc S __Z19ofEnableSetupScreenv.eh
00000950 T __Z19ofSetWindowPositionii
0003703c S __Z19ofSetWindowPositionii.eh
00000cd0 T __Z20ofDisableSetupScreenv
000371e8 S __Z20ofDisableSetupScreenv.eh
000009b0 T __Z20ofGetWindowPositionXv
00037074 S __Z20ofGetWindowPositionXv.eh
000009e0 T __Z20ofGetWindowPositionYv
00037090 S __Z20ofGetWindowPositionYv.eh
         U __Z20ofSetCurrentRenderer5ofPtrI14ofBaseRendererE
         U __Z25ofResetElapsedTimeCounterv
000007f0 T __Z6ofExiti
00036f24 S __Z6ofExiti.eh
00000670 T __Z8ofRunApp5ofPtrI9ofBaseAppE
00036ec8 S __Z8ofRunApp5ofPtrI9ofBaseAppE.eh
00000300 T __Z8ofRunAppP9ofBaseApp
00036e64 S __Z8ofRunAppP9ofBaseApp.eh
000002f0 t __ZL11noopDeleterP15ofAppBaseWindow
00036e48 s __ZL11noopDeleterP15ofAppBaseWindow.eh
000379ac b __ZL6window
000379a4 b __ZL7OFSAptr
         U __ZN11ofRectangleC1Effff
         U __ZN12ofGLRendererC1Eb
         U __ZN15ofAppGlutWindowC1Ev
         U __ZN5ofLogC1E10ofLogLevelPKcz
         U __ZN5ofLogD1Ev
00036290 S __ZN5ofPtrI15ofAppBaseWindowED1Ev
00036dc0 S __ZN5ofPtrI15ofAppBaseWindowED1Ev.eh
00036240 S __ZN5ofPtrI9ofBaseAppED1Ev
00036da0 S __ZN5ofPtrI9ofBaseAppED1Ev.eh
         U __ZNSs4_Rep10_M_destroyERKSaIcE
         U __ZNSs4_Rep20_S_empty_rep_storageE
         U __ZNSsC1ERKSs
000363f0 S __ZNSt3tr114__shared_countILN9__gnu_cxx12_Lock_policyE2EEC2IP12ofGLRendererNS_11_Sp_deleterIS5_EEEET_T0_
00037324 S __ZNSt3tr114__shared_countILN9__gnu_cxx12_Lock_policyE2EEC2IP12ofGLRendererNS_11_Sp_deleterIS5_EEEET_T0_.eh
000362e0 S __ZNSt3tr114__shared_countILN9__gnu_cxx12_Lock_policyE2EEC2IP15ofAppGlutWindowNS_11_Sp_deleterIS5_EEEET_T0_
00037274 S __ZNSt3tr114__shared_countILN9__gnu_cxx12_Lock_policyE2EEC2IP15ofAppGlutWindowNS_11_Sp_deleterIS5_EEEET_T0_.eh
000364e0 S __ZNSt3tr114__shared_countILN9__gnu_cxx12_Lock_policyE2EEC2IP9ofBaseAppNS_11_Sp_deleterIS5_EEEET_T0_
000373b8 S __ZNSt3tr114__shared_countILN9__gnu_cxx12_Lock_policyE2EEC2IP9ofBaseAppNS_11_Sp_deleterIS5_EEEET_T0_.eh
000363a0 S __ZNSt3tr116_Sp_counted_baseILN9__gnu_cxx12_Lock_policyE2EE10_M_destroyEv
000372ec S __ZNSt3tr116_Sp_counted_baseILN9__gnu_cxx12_Lock_policyE2EE10_M_destroyEv.eh
00036490 S __ZNSt3tr121_Sp_counted_base_implIP12ofGLRendererNS_11_Sp_deleterIS1_EELN9__gnu_cxx12_Lock_policyE2EE10_M_disposeEv
00037380 S __ZNSt3tr121_Sp_counted_base_implIP12ofGLRendererNS_11_Sp_deleterIS1_EELN9__gnu_cxx12_Lock_policyE2EE10_M_disposeEv.eh
000364b0 S __ZNSt3tr121_Sp_counted_base_implIP12ofGLRendererNS_11_Sp_deleterIS1_EELN9__gnu_cxx12_Lock_policyE2EE14_M_get_deleterERKSt9type_info
0003739c S __ZNSt3tr121_Sp_counted_base_implIP12ofGLRendererNS_11_Sp_deleterIS1_EELN9__gnu_cxx12_Lock_policyE2EE14_M_get_deleterERKSt9type_info.eh
00036480 S __ZNSt3tr121_Sp_counted_base_implIP12ofGLRendererNS_11_Sp_deleterIS1_EELN9__gnu_cxx12_Lock_policyE2EED0Ev
00037364 S __ZNSt3tr121_Sp_counted_base_implIP12ofGLRendererNS_11_Sp_deleterIS1_EELN9__gnu_cxx12_Lock_policyE2EED0Ev.eh
00036470 S __ZNSt3tr121_Sp_counted_base_implIP12ofGLRendererNS_11_Sp_deleterIS1_EELN9__gnu_cxx12_Lock_policyE2EED1Ev
00037348 S __ZNSt3tr121_Sp_counted_base_implIP12ofGLRendererNS_11_Sp_deleterIS1_EELN9__gnu_cxx12_Lock_policyE2EED1Ev.eh
000365f0 S __ZNSt3tr121_Sp_counted_base_implIP15ofAppBaseWindowSt25pointer_to_unary_functionIS2_vELN9__gnu_cxx12_Lock_policyE2EE10_M_disposeEv
00037484 S __ZNSt3tr121_Sp_counted_base_implIP15ofAppBaseWindowSt25pointer_to_unary_functionIS2_vELN9__gnu_cxx12_Lock_policyE2EE10_M_disposeEv.eh
00036610 S __ZNSt3tr121_Sp_counted_base_implIP15ofAppBaseWindowSt25pointer_to_unary_functionIS2_vELN9__gnu_cxx12_Lock_policyE2EE14_M_get_deleterERKSt9type_info
000374a0 S __ZNSt3tr121_Sp_counted_base_implIP15ofAppBaseWindowSt25pointer_to_unary_functionIS2_vELN9__gnu_cxx12_Lock_policyE2EE14_M_get_deleterERKSt9type_info.eh
000365e0 S __ZNSt3tr121_Sp_counted_base_implIP15ofAppBaseWindowSt25pointer_to_unary_functionIS2_vELN9__gnu_cxx12_Lock_policyE2EED0Ev
00037468 S __ZNSt3tr121_Sp_counted_base_implIP15ofAppBaseWindowSt25pointer_to_unary_functionIS2_vELN9__gnu_cxx12_Lock_policyE2EED0Ev.eh
000365d0 S __ZNSt3tr121_Sp_counted_base_implIP15ofAppBaseWindowSt25pointer_to_unary_functionIS2_vELN9__gnu_cxx12_Lock_policyE2EED1Ev
0003744c S __ZNSt3tr121_Sp_counted_base_implIP15ofAppBaseWindowSt25pointer_to_unary_functionIS2_vELN9__gnu_cxx12_Lock_policyE2EED1Ev.eh
00036380 S __ZNSt3tr121_Sp_counted_base_implIP15ofAppGlutWindowNS_11_Sp_deleterIS1_EELN9__gnu_cxx12_Lock_policyE2EE10_M_disposeEv
000372d0 S __ZNSt3tr121_Sp_counted_base_implIP15ofAppGlutWindowNS_11_Sp_deleterIS1_EELN9__gnu_cxx12_Lock_policyE2EE10_M_disposeEv.eh
000363c0 S __ZNSt3tr121_Sp_counted_base_implIP15ofAppGlutWindowNS_11_Sp_deleterIS1_EELN9__gnu_cxx12_Lock_policyE2EE14_M_get_deleterERKSt9type_info
00037308 S __ZNSt3tr121_Sp_counted_base_implIP15ofAppGlutWindowNS_11_Sp_deleterIS1_EELN9__gnu_cxx12_Lock_policyE2EE14_M_get_deleterERKSt9type_info.eh
00036370 S __ZNSt3tr121_Sp_counted_base_implIP15ofAppGlutWindowNS_11_Sp_deleterIS1_EELN9__gnu_cxx12_Lock_policyE2EED0Ev
000372b4 S __ZNSt3tr121_Sp_counted_base_implIP15ofAppGlutWindowNS_11_Sp_deleterIS1_EELN9__gnu_cxx12_Lock_policyE2EED0Ev.eh
00036360 S __ZNSt3tr121_Sp_counted_base_implIP15ofAppGlutWindowNS_11_Sp_deleterIS1_EELN9__gnu_cxx12_Lock_policyE2EED1Ev
00037298 S __ZNSt3tr121_Sp_counted_base_implIP15ofAppGlutWindowNS_11_Sp_deleterIS1_EELN9__gnu_cxx12_Lock_policyE2EED1Ev.eh
00036580 S __ZNSt3tr121_Sp_counted_base_implIP9ofBaseAppNS_11_Sp_deleterIS1_EELN9__gnu_cxx12_Lock_policyE2EE10_M_disposeEv
00037414 S __ZNSt3tr121_Sp_counted_base_implIP9ofBaseAppNS_11_Sp_deleterIS1_EELN9__gnu_cxx12_Lock_policyE2EE10_M_disposeEv.eh
000365a0 S __ZNSt3tr121_Sp_counted_base_implIP9ofBaseAppNS_11_Sp_deleterIS1_EELN9__gnu_cxx12_Lock_policyE2EE14_M_get_deleterERKSt9type_info
00037430 S __ZNSt3tr121_Sp_counted_base_implIP9ofBaseAppNS_11_Sp_deleterIS1_EELN9__gnu_cxx12_Lock_policyE2EE14_M_get_deleterERKSt9type_info.eh
00036570 S __ZNSt3tr121_Sp_counted_base_implIP9ofBaseAppNS_11_Sp_deleterIS1_EELN9__gnu_cxx12_Lock_policyE2EED0Ev
000373f8 S __ZNSt3tr121_Sp_counted_base_implIP9ofBaseAppNS_11_Sp_deleterIS1_EELN9__gnu_cxx12_Lock_policyE2EED0Ev.eh
00036560 S __ZNSt3tr121_Sp_counted_base_implIP9ofBaseAppNS_11_Sp_deleterIS1_EELN9__gnu_cxx12_Lock_policyE2EED1Ev
000373dc S __ZNSt3tr121_Sp_counted_base_implIP9ofBaseAppNS_11_Sp_deleterIS1_EELN9__gnu_cxx12_Lock_policyE2EED1Ev.eh
         U __ZNSt8ios_base4InitC1Ev
         U __ZNSt8ios_base4InitD1Ev
         U __ZSt9terminatev
000379a0 b __ZStL8__ioinit
000369c0 S __ZTINSt3tr111_Mutex_baseILN9__gnu_cxx12_Lock_policyE2EEE
000369c8 S __ZTINSt3tr116_Sp_counted_baseILN9__gnu_cxx12_Lock_policyE2EEE
00036a10 S __ZTINSt3tr121_Sp_counted_base_implIP12ofGLRendererNS_11_Sp_deleterIS1_EELN9__gnu_cxx12_Lock_policyE2EEE
00036a70 S __ZTINSt3tr121_Sp_counted_base_implIP15ofAppBaseWindowSt25pointer_to_unary_functionIS2_vELN9__gnu_cxx12_Lock_policyE2EEE
000369d8 S __ZTINSt3tr121_Sp_counted_base_implIP15ofAppGlutWindowNS_11_Sp_deleterIS1_EELN9__gnu_cxx12_Lock_policyE2EEE
00036a40 S __ZTINSt3tr121_Sp_counted_base_implIP9ofBaseAppNS_11_Sp_deleterIS1_EELN9__gnu_cxx12_Lock_policyE2EEE
00036b30 S __ZTSNSt3tr111_Mutex_baseILN9__gnu_cxx12_Lock_policyE2EEE
00036c10 S __ZTSNSt3tr111_Sp_deleterI12ofGLRendererEE
00036b70 S __ZTSNSt3tr111_Sp_deleterI15ofAppGlutWindowEE
00036ca0 S __ZTSNSt3tr111_Sp_deleterI9ofBaseAppEE
00036af0 S __ZTSNSt3tr116_Sp_counted_baseILN9__gnu_cxx12_Lock_policyE2EEE
00036ba0 S __ZTSNSt3tr121_Sp_counted_base_implIP12ofGLRendererNS_11_Sp_deleterIS1_EELN9__gnu_cxx12_Lock_policyE2EEE
00036cd0 S __ZTSNSt3tr121_Sp_counted_base_implIP15ofAppBaseWindowSt25pointer_to_unary_functionIS2_vELN9__gnu_cxx12_Lock_policyE2EEE
00036a80 S __ZTSNSt3tr121_Sp_counted_base_implIP15ofAppGlutWindowNS_11_Sp_deleterIS1_EELN9__gnu_cxx12_Lock_policyE2EEE
00036c40 S __ZTSNSt3tr121_Sp_counted_base_implIP9ofBaseAppNS_11_Sp_deleterIS1_EELN9__gnu_cxx12_Lock_policyE2EEE
00036d50 S __ZTSSt25pointer_to_unary_functionIP15ofAppBaseWindowvE
         U __ZTVN10__cxxabiv117__class_type_infoE
         U __ZTVN10__cxxabiv120__si_class_type_infoE
000369f0 S __ZTVNSt3tr121_Sp_counted_base_implIP12ofGLRendererNS_11_Sp_deleterIS1_EELN9__gnu_cxx12_Lock_policyE2EEE
00036a50 S __ZTVNSt3tr121_Sp_counted_base_implIP15ofAppBaseWindowSt25pointer_to_unary_functionIS2_vELN9__gnu_cxx12_Lock_policyE2EEE
000369a0 S __ZTVNSt3tr121_Sp_counted_base_implIP15ofAppGlutWindowNS_11_Sp_deleterIS1_EELN9__gnu_cxx12_Lock_policyE2EEE
00036a20 S __ZTVNSt3tr121_Sp_counted_base_implIP9ofBaseAppNS_11_Sp_deleterIS1_EELN9__gnu_cxx12_Lock_policyE2EEE
         U __ZdlPv
         U __Znwm
         U ___cxa_atexit
         U ___cxa_begin_catch
         U ___cxa_end_catch
         U ___cxa_rethrow
         U ___dso_handle
         U ___gxx_personality_v0
         U _atexit
         U _exit
         U _glewExperimental
         U _glewGetErrorString
         U _glewInit
         U _usleep$UNIX2003

../../../libs/openFrameworksCompiled/lib/osx/openFrameworks.a(ofArduino.o):
000683d4 s EH_frame0
00068408 s EH_frame1
000629f0 s GCC_except_table1
00062b48 s GCC_except_table10
0006375c s GCC_except_table100
00063788 s GCC_except_table101
0006381c s GCC_except_table102
00063864 s GCC_except_table103
000638ac s GCC_except_table105
000638d8 s GCC_except_table106
00063904 s GCC_except_table107
00063a0c s GCC_except_table108
00063a68 s GCC_except_table109
00063a88 s GCC_except_table110
00063ab4 s GCC_except_table111
00063b10 s GCC_except_table113
00063b30 s GCC_except_table114
00063b74 s GCC_except_table115
00063bc4 s GCC_except_table117
00063be4 s GCC_except_table118
00063c9c s GCC_except_table119
00063cc8 s GCC_except_table120
00063ce8 s GCC_except_table121
00063d2c s GCC_except_table122
00063d7c s GCC_except_table124
00063d9c s GCC_except_table125
00063e6c s GCC_except_table126
00063e98 s GCC_except_table127
00063eb8 s GCC_except_table128
00063efc s GCC_except_table129
00063f4c s GCC_except_table131
00063f6c s GCC_except_table132
00063fe0 s GCC_except_table133
00062b84 s GCC_except_table19
00062bcc s GCC_except_table23
00062bec s GCC_except_table52
00062c28 s GCC_except_table59
00062a8c s GCC_except_table6
00062cac s GCC_except_table60
00062ccc s GCC_except_table61
00062cec s GCC_except_table62
00062d0c s GCC_except_table63
00062d38 s GCC_except_table64
00062dcc s GCC_except_table65
00062e14 s GCC_except_table66
00062e5c s GCC_except_table68
00062e88 s GCC_except_table69
00062eb4 s GCC_except_table70
00062fbc s GCC_except_table71
00063018 s GCC_except_table72
00063054 s GCC_except_table73
00063074 s GCC_except_table74
000630a0 s GCC_except_table75
000630fc s GCC_except_table76
00063138 s GCC_except_table77
00063194 s GCC_except_table78
00063218 s GCC_except_table79
00062aac s GCC_except_table8
00063238 s GCC_except_table80
00063258 s GCC_except_table81
00063278 s GCC_except_table82
000632a4 s GCC_except_table83
00063338 s GCC_except_table84
00063380 s GCC_except_table85
000633c8 s GCC_except_table87
000633f4 s GCC_except_table88
00063420 s GCC_except_table89
00063528 s GCC_except_table90
00063584 s GCC_except_table91
000635a4 s GCC_except_table92
000635d0 s GCC_except_table93
0006362c s GCC_except_table94
00063678 s GCC_except_table96
000636fc s GCC_except_table97
0006371c s GCC_except_table98
0006373c s GCC_except_table99
         U _OSAtomicAdd32
00067be0 s __GLOBAL__I_a
00069548 s __GLOBAL__I_a.eh
         U __Unwind_Resume
         U __Z17ofGetElapsedTimefv
0006b430 b __ZGVZN9ofArduino6updateEvE14bytesToProcess
00065bd0 S __ZN4Poco12FIFOStrategyIKSsNS_16AbstractDelegateIS1_EEED0Ev
00068f68 S __ZN4Poco12FIFOStrategyIKSsNS_16AbstractDelegateIS1_EEED0Ev.eh
00065190 S __ZN4Poco12FIFOStrategyIKSsNS_16AbstractDelegateIS1_EEED1Ev
00068dc0 S __ZN4Poco12FIFOStrategyIKSsNS_16AbstractDelegateIS1_EEED1Ev.eh
00064cd0 S __ZN4Poco12FIFOStrategyIKSt6vectorIhSaIhEENS_16AbstractDelegateIS4_EEED0Ev
00068ce8 S __ZN4Poco12FIFOStrategyIKSt6vectorIhSaIhEENS_16AbstractDelegateIS4_EEED0Ev.eh
000641b0 S __ZN4Poco12FIFOStrategyIKSt6vectorIhSaIhEENS_16AbstractDelegateIS4_EEED1Ev
00068b1c S __ZN4Poco12FIFOStrategyIKSt6vectorIhSaIhEENS_16AbstractDelegateIS4_EEED1Ev.eh
00066ab0 S __ZN4Poco12FIFOStrategyIKiNS_16AbstractDelegateIS1_EEED0Ev
000691e0 S __ZN4Poco12FIFOStrategyIKiNS_16AbstractDelegateIS1_EEED0Ev.eh
00066070 S __ZN4Poco12FIFOStrategyIKiNS_16AbstractDelegateIS1_EEED1Ev
00069038 S __ZN4Poco12FIFOStrategyIKiNS_16AbstractDelegateIS1_EEED1Ev.eh
00067080 S __ZN4Poco13AbstractEventIKSsNS_12FIFOStrategyIS1_NS_16AbstractDelegateIS1_EEEES4_NS_9FastMutexEE16executeAsyncImplERKNS7_17NotifyAsyncParamsE
00069318 S __ZN4Poco13AbstractEventIKSsNS_12FIFOStrategyIS1_NS_16AbstractDelegateIS1_EEEES4_NS_9FastMutexEE16executeAsyncImplERKNS7_17NotifyAsyncParamsE.eh
00065040 S __ZN4Poco13AbstractEventIKSsNS_12FIFOStrategyIS1_NS_16AbstractDelegateIS1_EEEES4_NS_9FastMutexEE6notifyEPKvRS1_
00068d9c S __ZN4Poco13AbstractEventIKSsNS_12FIFOStrategyIS1_NS_16AbstractDelegateIS1_EEEES4_NS_9FastMutexEE6notifyEPKvRS1_.eh
00066e70 S __ZN4Poco13AbstractEventIKSsNS_12FIFOStrategyIS1_NS_16AbstractDelegateIS1_EEEES4_NS_9FastMutexEEC2Ev
00069290 S __ZN4Poco13AbstractEventIKSsNS_12FIFOStrategyIS1_NS_16AbstractDelegateIS1_EEEES4_NS_9FastMutexEEC2Ev.eh
00067050 S __ZN4Poco13AbstractEventIKSsNS_12FIFOStrategyIS1_NS_16AbstractDelegateIS1_EEEES4_NS_9FastMutexEED0Ev
000692f4 S __ZN4Poco13AbstractEventIKSsNS_12FIFOStrategyIS1_NS_16AbstractDelegateIS1_EEEES4_NS_9FastMutexEED0Ev.eh
00067040 S __ZN4Poco13AbstractEventIKSsNS_12FIFOStrategyIS1_NS_16AbstractDelegateIS1_EEEES4_NS_9FastMutexEED1Ev
000692d8 S __ZN4Poco13AbstractEventIKSsNS_12FIFOStrategyIS1_NS_16AbstractDelegateIS1_EEEES4_NS_9FastMutexEED1Ev.eh
00066f60 S __ZN4Poco13AbstractEventIKSsNS_12FIFOStrategyIS1_NS_16AbstractDelegateIS1_EEEES4_NS_9FastMutexEED2Ev
000692b4 S __ZN4Poco13AbstractEventIKSsNS_12FIFOStrategyIS1_NS_16AbstractDelegateIS1_EEEES4_NS_9FastMutexEED2Ev.eh
00067520 S __ZN4Poco13AbstractEventIKSt6vectorIhSaIhEENS_12FIFOStrategyIS4_NS_16AbstractDelegateIS4_EEEES7_NS_9FastMutexEE16executeAsyncImplERKNSA_17NotifyAsyncParamsE
0006940c S __ZN4Poco13AbstractEventIKSt6vectorIhSaIhEENS_12FIFOStrategyIS4_NS_16AbstractDelegateIS4_EEEES7_NS_9FastMutexEE16executeAsyncImplERKNSA_17NotifyAsyncParamsE.eh
00064060 S __ZN4Poco13AbstractEventIKSt6vectorIhSaIhEENS_12FIFOStrategyIS4_NS_16AbstractDelegateIS4_EEEES7_NS_9FastMutexEE6notifyEPKvRS4_
00068af8 S __ZN4Poco13AbstractEventIKSt6vectorIhSaIhEENS_12FIFOStrategyIS4_NS_16AbstractDelegateIS4_EEEES7_NS_9FastMutexEE6notifyEPKvRS4_.eh
00067310 S __ZN4Poco13AbstractEventIKSt6vectorIhSaIhEENS_12FIFOStrategyIS4_NS_16AbstractDelegateIS4_EEEES7_NS_9FastMutexEEC2Ev
00069384 S __ZN4Poco13AbstractEventIKSt6vectorIhSaIhEENS_12FIFOStrategyIS4_NS_16AbstractDelegateIS4_EEEES7_NS_9FastMutexEEC2Ev.eh
000674f0 S __ZN4Poco13AbstractEventIKSt6vectorIhSaIhEENS_12FIFOStrategyIS4_NS_16AbstractDelegateIS4_EEEES7_NS_9FastMutexEED0Ev
000693e8 S __ZN4Poco13AbstractEventIKSt6vectorIhSaIhEENS_12FIFOStrategyIS4_NS_16AbstractDelegateIS4_EEEES7_NS_9FastMutexEED0Ev.eh
000674e0 S __ZN4Poco13AbstractEventIKSt6vectorIhSaIhEENS_12FIFOStrategyIS4_NS_16AbstractDelegateIS4_EEEES7_NS_9FastMutexEED1Ev
000693cc S __ZN4Poco13AbstractEventIKSt6vectorIhSaIhEENS_12FIFOStrategyIS4_NS_16AbstractDelegateIS4_EEEES7_NS_9FastMutexEED1Ev.eh
00067400 S __ZN4Poco13AbstractEventIKSt6vectorIhSaIhEENS_12FIFOStrategyIS4_NS_16AbstractDelegateIS4_EEEES7_NS_9FastMutexEED2Ev
000693a8 S __ZN4Poco13AbstractEventIKSt6vectorIhSaIhEENS_12FIFOStrategyIS4_NS_16AbstractDelegateIS4_EEEES7_NS_9FastMutexEED2Ev.eh
00067a80 S __ZN4Poco13AbstractEventIKiNS_12FIFOStrategyIS1_NS_16AbstractDelegateIS1_EEEES4_NS_9FastMutexEE16executeAsyncImplERKNS7_17NotifyAsyncParamsE
00069500 S __ZN4Poco13AbstractEventIKiNS_12FIFOStrategyIS1_NS_16AbstractDelegateIS1_EEEES4_NS_9FastMutexEE16executeAsyncImplERKNS7_17NotifyAsyncParamsE.eh
00065f20 S __ZN4Poco13AbstractEventIKiNS_12FIFOStrategyIS1_NS_16AbstractDelegateIS1_EEEES4_NS_9FastMutexEE6notifyEPKvRS1_
00069014 S __ZN4Poco13AbstractEventIKiNS_12FIFOStrategyIS1_NS_16AbstractDelegateIS1_EEEES4_NS_9FastMutexEE6notifyEPKvRS1_.eh
00067870 S __ZN4Poco13AbstractEventIKiNS_12FIFOStrategyIS1_NS_16AbstractDelegateIS1_EEEES4_NS_9FastMutexEEC2Ev
00069478 S __ZN4Poco13AbstractEventIKiNS_12FIFOStrategyIS1_NS_16AbstractDelegateIS1_EEEES4_NS_9FastMutexEEC2Ev.eh
00067a50 S __ZN4Poco13AbstractEventIKiNS_12FIFOStrategyIS1_NS_16AbstractDelegateIS1_EEEES4_NS_9FastMutexEED0Ev
000694dc S __ZN4Poco13AbstractEventIKiNS_12FIFOStrategyIS1_NS_16AbstractDelegateIS1_EEEES4_NS_9FastMutexEED0Ev.eh
00067a40 S __ZN4Poco13AbstractEventIKiNS_12FIFOStrategyIS1_NS_16AbstractDelegateIS1_EEEES4_NS_9FastMutexEED1Ev
000694c0 S __ZN4Poco13AbstractEventIKiNS_12FIFOStrategyIS1_NS_16AbstractDelegateIS1_EEEES4_NS_9FastMutexEED1Ev.eh
00067960 S __ZN4Poco13AbstractEventIKiNS_12FIFOStrategyIS1_NS_16AbstractDelegateIS1_EEEES4_NS_9FastMutexEED2Ev
0006949c S __ZN4Poco13AbstractEventIKiNS_12FIFOStrategyIS1_NS_16AbstractDelegateIS1_EEEES4_NS_9FastMutexEED2Ev.eh
         U __ZN4Poco13AtomicCounterC1Ei
         U __ZN4Poco13AtomicCounterD1Ev
00065390 S __ZN4Poco15DefaultStrategyIKSsNS_16AbstractDelegateIS1_EEE3addERKS3_
00068e50 S __ZN4Poco15DefaultStrategyIKSsNS_16AbstractDelegateIS1_EEE3addERKS3_.eh
00065620 S __ZN4Poco15DefaultStrategyIKSsNS_16AbstractDelegateIS1_EEE5clearEv
00068e98 S __ZN4Poco15DefaultStrategyIKSsNS_16AbstractDelegateIS1_EEE5clearEv.eh
000652f0 S __ZN4Poco15DefaultStrategyIKSsNS_16AbstractDelegateIS1_EEE6notifyEPKvRS1_
00068e2c S __ZN4Poco15DefaultStrategyIKSsNS_16AbstractDelegateIS1_EEE6notifyEPKvRS1_.eh
000654f0 S __ZN4Poco15DefaultStrategyIKSsNS_16AbstractDelegateIS1_EEE6removeERKS3_
00068e74 S __ZN4Poco15DefaultStrategyIKSsNS_16AbstractDelegateIS1_EEE6removeERKS3_.eh
00065270 S __ZN4Poco15DefaultStrategyIKSsNS_16AbstractDelegateIS1_EEED0Ev
00068e08 S __ZN4Poco15DefaultStrategyIKSsNS_16AbstractDelegateIS1_EEED0Ev.eh
00065200 S __ZN4Poco15DefaultStrategyIKSsNS_16AbstractDelegateIS1_EEED1Ev
00068de4 S __ZN4Poco15DefaultStrategyIKSsNS_16AbstractDelegateIS1_EEED1Ev.eh
000643b0 S __ZN4Poco15DefaultStrategyIKSt6vectorIhSaIhEENS_16AbstractDelegateIS4_EEE3addERKS6_
00068bac S __ZN4Poco15DefaultStrategyIKSt6vectorIhSaIhEENS_16AbstractDelegateIS4_EEE3addERKS6_.eh
00064640 S __ZN4Poco15DefaultStrategyIKSt6vectorIhSaIhEENS_16AbstractDelegateIS4_EEE5clearEv
00068bf4 S __ZN4Poco15DefaultStrategyIKSt6vectorIhSaIhEENS_16AbstractDelegateIS4_EEE5clearEv.eh
00064310 S __ZN4Poco15DefaultStrategyIKSt6vectorIhSaIhEENS_16AbstractDelegateIS4_EEE6notifyEPKvRS4_
00068b88 S __ZN4Poco15DefaultStrategyIKSt6vectorIhSaIhEENS_16AbstractDelegateIS4_EEE6notifyEPKvRS4_.eh
00064510 S __ZN4Poco15DefaultStrategyIKSt6vectorIhSaIhEENS_16AbstractDelegateIS4_EEE6removeERKS6_
00068bd0 S __ZN4Poco15DefaultStrategyIKSt6vectorIhSaIhEENS_16AbstractDelegateIS4_EEE6removeERKS6_.eh
00064290 S __ZN4Poco15DefaultStrategyIKSt6vectorIhSaIhEENS_16AbstractDelegateIS4_EEED0Ev
00068b64 S __ZN4Poco15DefaultStrategyIKSt6vectorIhSaIhEENS_16AbstractDelegateIS4_EEED0Ev.eh
00064220 S __ZN4Poco15DefaultStrategyIKSt6vectorIhSaIhEENS_16AbstractDelegateIS4_EEED1Ev
00068b40 S __ZN4Poco15DefaultStrategyIKSt6vectorIhSaIhEENS_16AbstractDelegateIS4_EEED1Ev.eh
00066270 S __ZN4Poco15DefaultStrategyIKiNS_16AbstractDelegateIS1_EEE3addERKS3_
000690c8 S __ZN4Poco15DefaultStrategyIKiNS_16AbstractDelegateIS1_EEE3addERKS3_.eh
00066500 S __ZN4Poco15DefaultStrategyIKiNS_16AbstractDelegateIS1_EEE5clearEv
00069110 S __ZN4Poco15DefaultStrategyIKiNS_16AbstractDelegateIS1_EEE5clearEv.eh
000661d0 S __ZN4Poco15DefaultStrategyIKiNS_16AbstractDelegateIS1_EEE6notifyEPKvRS1_
000690a4 S __ZN4Poco15DefaultStrategyIKiNS_16AbstractDelegateIS1_EEE6notifyEPKvRS1_.eh
000663d0 S __ZN4Poco15DefaultStrategyIKiNS_16AbstractDelegateIS1_EEE6removeERKS3_
000690ec S __ZN4Poco15DefaultStrategyIKiNS_16AbstractDelegateIS1_EEE6removeERKS3_.eh
00066150 S __ZN4Poco15DefaultStrategyIKiNS_16AbstractDelegateIS1_EEED0Ev
00069080 S __ZN4Poco15DefaultStrategyIKiNS_16AbstractDelegateIS1_EEED0Ev.eh
000660e0 S __ZN4Poco15DefaultStrategyIKiNS_16AbstractDelegateIS1_EEED1Ev
0006905c S __ZN4Poco15DefaultStrategyIKiNS_16AbstractDelegateIS1_EEED1Ev.eh
         U __ZN4Poco15SystemExceptionC1ERKSsi
         U __ZN4Poco15SystemExceptionD1Ev
         U __ZN4Poco20NullPointerExceptionC1Ei
         U __ZN4Poco20NullPointerExceptionD1Ev
         U __ZN4Poco8Bugcheck11nullPointerEPKcS2_i
         U __ZN4Poco9FastMutexC1Ev
         U __ZN4Poco9FastMutexD1Ev
00064bf0 S __ZN4Poco9MutexImpl10unlockImplEv
00068cc4 S __ZN4Poco9MutexImpl10unlockImplEv.eh
00064eb0 S __ZN4Poco9MutexImpl8lockImplEv
00068d54 S __ZN4Poco9MutexImpl8lockImplEv.eh
00067270 S __ZN4Poco9SharedPtrINS_12FIFOStrategyIKSsNS_16AbstractDelegateIS2_EEEENS_16ReferenceCounterENS_13ReleasePolicyIS5_EEE7releaseEv
0006933c S __ZN4Poco9SharedPtrINS_12FIFOStrategyIKSsNS_16AbstractDelegateIS2_EEEENS_16ReferenceCounterENS_13ReleasePolicyIS5_EEE7releaseEv.eh
000677d0 S __ZN4Poco9SharedPtrINS_12FIFOStrategyIKSt6vectorIhSaIhEENS_16AbstractDelegateIS5_EEEENS_16ReferenceCounterENS_13ReleasePolicyIS8_EEE7releaseEv
00069430 S __ZN4Poco9SharedPtrINS_12FIFOStrategyIKSt6vectorIhSaIhEENS_16AbstractDelegateIS5_EEEENS_16ReferenceCounterENS_13ReleasePolicyIS8_EEE7releaseEv.eh
00067b70 S __ZN4Poco9SharedPtrINS_12FIFOStrategyIKiNS_16AbstractDelegateIS2_EEEENS_16ReferenceCounterENS_13ReleasePolicyIS5_EEE7releaseEv
00069524 S __ZN4Poco9SharedPtrINS_12FIFOStrategyIKiNS_16AbstractDelegateIS2_EEEENS_16ReferenceCounterENS_13ReleasePolicyIS5_EEE7releaseEv.eh
00065780 S __ZN4Poco9SharedPtrINS_16AbstractDelegateIKSsEENS_16ReferenceCounterENS_13ReleasePolicyIS3_EEE6assignERKS7_
00068efc S __ZN4Poco9SharedPtrINS_16AbstractDelegateIKSsEENS_16ReferenceCounterENS_13ReleasePolicyIS3_EEE6assignERKS7_.eh
00065710 S __ZN4Poco9SharedPtrINS_16AbstractDelegateIKSsEENS_16ReferenceCounterENS_13ReleasePolicyIS3_EEE7releaseEv
00068ed8 S __ZN4Poco9SharedPtrINS_16AbstractDelegateIKSsEENS_16ReferenceCounterENS_13ReleasePolicyIS3_EEE7releaseEv.eh
000647a0 S __ZN4Poco9SharedPtrINS_16AbstractDelegateIKSt6vectorIhSaIhEEEENS_16ReferenceCounterENS_13ReleasePolicyIS6_EEE6assignERKSA_
00068c58 S __ZN4Poco9SharedPtrINS_16AbstractDelegateIKSt6vectorIhSaIhEEEENS_16ReferenceCounterENS_13ReleasePolicyIS6_EEE6assignERKSA_.eh
00064730 S __ZN4Poco9SharedPtrINS_16AbstractDelegateIKSt6vectorIhSaIhEEEENS_16ReferenceCounterENS_13ReleasePolicyIS6_EEE7releaseEv
00068c34 S __ZN4Poco9SharedPtrINS_16AbstractDelegateIKSt6vectorIhSaIhEEEENS_16ReferenceCounterENS_13ReleasePolicyIS6_EEE7releaseEv.eh
00066660 S __ZN4Poco9SharedPtrINS_16AbstractDelegateIKiEENS_16ReferenceCounterENS_13ReleasePolicyIS3_EEE6assignERKS7_
00069174 S __ZN4Poco9SharedPtrINS_16AbstractDelegateIKiEENS_16ReferenceCounterENS_13ReleasePolicyIS3_EEE6assignERKS7_.eh
000665f0 S __ZN4Poco9SharedPtrINS_16AbstractDelegateIKiEENS_16ReferenceCounterENS_13ReleasePolicyIS3_EEE7releaseEv
00069150 S __ZN4Poco9SharedPtrINS_16AbstractDelegateIKiEENS_16ReferenceCounterENS_13ReleasePolicyIS3_EEE7releaseEv.eh
00066e40 S __ZN7ofEventIKSsED0Ev
0006926c S __ZN7ofEventIKSsED0Ev.eh
00064030 S __ZN7ofEventIKSsED1Ev
00068468 S __ZN7ofEventIKSsED1Ev.eh
000672e0 S __ZN7ofEventIKSt6vectorIhSaIhEEED0Ev
00069360 S __ZN7ofEventIKSt6vectorIhSaIhEEED0Ev.eh
00064050 S __ZN7ofEventIKSt6vectorIhSaIhEEED1Ev
000684a0 S __ZN7ofEventIKSt6vectorIhSaIhEEED1Ev.eh
00067840 S __ZN7ofEventIKiED0Ev
00069454 S __ZN7ofEventIKiED0Ev.eh
00064040 S __ZN7ofEventIKiED1Ev
00068484 S __ZN7ofEventIKiED1Ev.eh
         U __ZN8ofSerial16enumerateDevicesEv
         U __ZN8ofSerial5closeEv
         U __ZN8ofSerial5setupESsi
         U __ZN8ofSerial9availableEv
         U __ZN8ofSerial9readBytesEPhi
         U __ZN8ofSerial9writeByteEh
         U __ZN8ofSerialC1Ev
         U __ZN8ofSerialD1Ev
00000df0 T __ZN9ofArduino10disconnectEv
0006860c S __ZN9ofArduino10disconnectEv.eh
000013f0 T __ZN9ofArduino10getDigitalEi
00068688 S __ZN9ofArduino10getDigitalEi.eh
00001860 T __ZN9ofArduino10sendStringESs
000687f4 S __ZN9ofArduino10sendStringESs.eh
00000f40 T __ZN9ofArduino11processDataEh
00068648 S __ZN9ofArduino11processDataEh.eh
00001560 T __ZN9ofArduino11sendDigitalEiib
00068720 S __ZN9ofArduino11sendDigitalEiib.eh
00000d50 T __ZN9ofArduino11setUseDelayEb
00068580 S __ZN9ofArduino11setUseDelayEb.eh
00001830 T __ZN9ofArduino12sendSysExEndEv
000687d8 S __ZN9ofArduino12sendSysExEndEv.eh
00001ee0 T __ZN9ofArduino13isInitializedEv
000689e0 S __ZN9ofArduino13isInitializedEv.eh
00000be0 T __ZN9ofArduino14isArduinoReadyEv
00068560 S __ZN9ofArduino14isArduinoReadyEv.eh
00001800 T __ZN9ofArduino14sendSysExBeginEv
000687bc S __ZN9ofArduino14sendSysExBeginEv.eh
00001eb0 T __ZN9ofArduino15getFirmwareNameEv
000689c4 S __ZN9ofArduino15getFirmwareNameEv.eh
00001e50 T __ZN9ofArduino15getSysExHistoryEv
0006891c S __ZN9ofArduino15getSysExHistoryEv.eh
000028a0 T __ZN9ofArduino15sendServoAttachEiiii
00068a9c S __ZN9ofArduino15sendServoAttachEiiii.eh
00002980 T __ZN9ofArduino15sendServoDetachEi
00068abc S __ZN9ofArduino15sendServoDetachEi.eh
00001e10 T __ZN9ofArduino16getAnalogHistoryEi
000688e4 S __ZN9ofArduino16getAnalogHistoryEi.eh
00001e60 T __ZN9ofArduino16getStringHistoryEv
00068938 S __ZN9ofArduino16getStringHistoryEv.eh
00002260 T __ZN9ofArduino16processSysExDataESt6vectorIhSaIhEE
00068a1c S __ZN9ofArduino16processSysExDataESt6vectorIhSaIhEE.eh
00001e30 T __ZN9ofArduino17getDigitalHistoryEi
00068900 S __ZN9ofArduino17getDigitalHistoryEi.eh
00001540 T __ZN9ofArduino17getDigitalPinModeEi
00068704 S __ZN9ofArduino17getDigitalPinModeEi.eh
00001f00 T __ZN9ofArduino18processDigitalPortEih
000689fc S __ZN9ofArduino18processDigitalPortEih.eh
00001d60 T __ZN9ofArduino18sendDigitalPinModeEii
000688a8 S __ZN9ofArduino18sendDigitalPinModeEii.eh
00001df0 T __ZN9ofArduino21getAnalogPinReportingEi
000688c8 S __ZN9ofArduino21getAnalogPinReportingEi.eh
00000db0 T __ZN9ofArduino21setSysExHistoryLengthEi
000685d4 S __ZN9ofArduino21setSysExHistoryLengthEi.eh
000019d0 T __ZN9ofArduino22sendAnalogPinReportingEii
00068868 S __ZN9ofArduino22sendAnalogPinReportingEii.eh
00000d90 T __ZN9ofArduino22setAnalogHistoryLengthEi
000685b8 S __ZN9ofArduino22setAnalogHistoryLengthEi.eh
00000dd0 T __ZN9ofArduino22setStringHistoryLengthEi
000685f0 S __ZN9ofArduino22setStringHistoryLengthEi.eh
00001e90 T __ZN9ofArduino23getMajorFirmwareVersionEv
0006898c S __ZN9ofArduino23getMajorFirmwareVersionEv.eh
00001e70 T __ZN9ofArduino23getMajorProtocolVersionEv
00068954 S __ZN9ofArduino23getMajorProtocolVersionEv.eh
00001ea0 T __ZN9ofArduino23getMinorFirmwareVersionEv
000689a8 S __ZN9ofArduino23getMinorFirmwareVersionEv.eh
00001e80 T __ZN9ofArduino23getMinorProtocolVersionEv
00068970 S __ZN9ofArduino23getMinorProtocolVersionEv.eh
00001a60 T __ZN9ofArduino23sendDigitalPinReportingEii
00068888 S __ZN9ofArduino23sendDigitalPinReportingEii.eh
000016b0 T __ZN9ofArduino23sendValueAsTwo7bitBytesEi
0006875c S __ZN9ofArduino23sendValueAsTwo7bitBytesEi.eh
00000d70 T __ZN9ofArduino23setDigitalHistoryLengthEi
0006859c S __ZN9ofArduino23setDigitalHistoryLengthEi.eh
00002750 T __ZN9ofArduino24getValueFromTwo7bitBytesEhh
00068a60 S __ZN9ofArduino24getValueFromTwo7bitBytesEhh.eh
000026a0 T __ZN9ofArduino24sendDigitalPortReportingEii
00068a40 S __ZN9ofArduino24sendDigitalPortReportingEii.eh
00001950 T __ZN9ofArduino26sendFirmwareVersionRequestEv
00068830 S __ZN9ofArduino26sendFirmwareVersionRequestEv.eh
00001920 T __ZN9ofArduino26sendProtocolVersionRequestEv
00068814 S __ZN9ofArduino26sendProtocolVersionRequestEv.eh
00001460 T __ZN9ofArduino6getPwmEi
000686a8 S __ZN9ofArduino6getPwmEi.eh
00000e10 T __ZN9ofArduino6updateEv
00068628 S __ZN9ofArduino6updateEv.eh
00000af0 T __ZN9ofArduino7connectESsi
0006853c S __ZN9ofArduino7connectESsi.eh
000016f0 T __ZN9ofArduino7sendPwmEiib
0006877c S __ZN9ofArduino7sendPwmEiib.eh
000029f0 T __ZN9ofArduino8getServoEi
00068adc S __ZN9ofArduino8getServoEi.eh
00001490 T __ZN9ofArduino8getSysExEv
000686c4 S __ZN9ofArduino8getSysExEv.eh
000009f0 T __ZN9ofArduino8initPinsEv
00068520 S __ZN9ofArduino8initPinsEv.eh
00001680 T __ZN9ofArduino8sendByteEh
00068740 S __ZN9ofArduino8sendByteEh.eh
000013a0 T __ZN9ofArduino9getAnalogEi
0006866c S __ZN9ofArduino9getAnalogEi.eh
00001510 T __ZN9ofArduino9getStringEv
000686e8 S __ZN9ofArduino9getStringEv.eh
000019a0 T __ZN9ofArduino9sendResetEv
0006884c S __ZN9ofArduino9sendResetEv.eh
00002770 T __ZN9ofArduino9sendServoEiib
00068a7c S __ZN9ofArduino9sendServoEiib.eh
00001770 T __ZN9ofArduino9sendSysExEiSt6vectorIhSaIhEE
0006879c S __ZN9ofArduino9sendSysExEiSt6vectorIhSaIhEE.eh
00000000 T __ZN9ofArduinoC1Ev
000683ec S __ZN9ofArduinoC1Ev.eh
00000010 T __ZN9ofArduinoC2Ev
00068428 S __ZN9ofArduinoC2Ev.eh
00000480 T __ZN9ofArduinoD0Ev
000684bc S __ZN9ofArduinoD0Ev.eh
000004b0 T __ZN9ofArduinoD1Ev
000684e0 S __ZN9ofArduinoD1Ev.eh
000004c0 T __ZN9ofArduinoD2Ev
000684fc S __ZN9ofArduinoD2Ev.eh
000656f0 S __ZNK4Poco15DefaultStrategyIKSsNS_16AbstractDelegateIS1_EEE5emptyEv
00068ebc S __ZNK4Poco15DefaultStrategyIKSsNS_16AbstractDelegateIS1_EEE5emptyEv.eh
00064710 S __ZNK4Poco15DefaultStrategyIKSt6vectorIhSaIhEENS_16AbstractDelegateIS4_EEE5emptyEv
00068c18 S __ZNK4Poco15DefaultStrategyIKSt6vectorIhSaIhEENS_16AbstractDelegateIS4_EEE5emptyEv.eh
000665d0 S __ZNK4Poco15DefaultStrategyIKiNS_16AbstractDelegateIS1_EEE5emptyEv
00069134 S __ZNK4Poco15DefaultStrategyIKiNS_16AbstractDelegateIS1_EEE5emptyEv.eh
         U __ZNSs12_M_leak_hardEv
         U __ZNSs4_Rep10_M_destroyERKSaIcE
         U __ZNSs4_Rep11_S_terminalE
         U __ZNSs4_Rep20_S_empty_rep_storageE
         U __ZNSs6assignEPKcm
         U __ZNSs6assignERKSs
         U __ZNSs7reserveEm
         U __ZNSsC1EPKcRKSaIcE
         U __ZNSsC1ERKSs
         U __ZNSt15_List_node_base4hookEPS_
         U __ZNSt15_List_node_base6unhookEv
00065db0 S __ZNSt4listISsSaISsEE14_M_create_nodeERKSs
00068fd4 S __ZNSt4listISsSaISsEE14_M_create_nodeERKSs.eh
00064f90 S __ZNSt4listISt6vectorIhSaIhEESaIS2_EE14_M_create_nodeERKS2_
00068d78 S __ZNSt4listISt6vectorIhSaIhEESaIS2_EE14_M_create_nodeERKS2_.eh
00064830 S __ZNSt6vectorIN4Poco9SharedPtrINS0_16AbstractDelegateIKS_IhSaIhEEEENS0_16ReferenceCounterENS0_13ReleasePolicyIS6_EEEESaISA_EE13_M_insert_auxEN9__gnu_cxx17__normal_iteratorIPSA_SC_EERKSA_
00068c7c S __ZNSt6vectorIN4Poco9SharedPtrINS0_16AbstractDelegateIKS_IhSaIhEEEENS0_16ReferenceCounterENS0_13ReleasePolicyIS6_EEEESaISA_EE13_M_insert_auxEN9__gnu_cxx17__normal_iteratorIPSA_SC_EERKSA_.eh
00064d50 S __ZNSt6vectorIN4Poco9SharedPtrINS0_16AbstractDelegateIKS_IhSaIhEEEENS0_16ReferenceCounterENS0_13ReleasePolicyIS6_EEEESaISA_EEC2ERKSC_
00068d0c S __ZNSt6vectorIN4Poco9SharedPtrINS0_16AbstractDelegateIKS_IhSaIhEEEENS0_16ReferenceCounterENS0_13ReleasePolicyIS6_EEEESaISA_EEC2ERKSC_.eh
00065810 S __ZNSt6vectorIN4Poco9SharedPtrINS0_16AbstractDelegateIKSsEENS0_16ReferenceCounterENS0_13ReleasePolicyIS4_EEEESaIS8_EE13_M_insert_auxEN9__gnu_cxx17__normal_iteratorIPS8_SA_EERKS8_
00068f20 S __ZNSt6vectorIN4Poco9SharedPtrINS0_16AbstractDelegateIKSsEENS0_16ReferenceCounterENS0_13ReleasePolicyIS4_EEEESaIS8_EE13_M_insert_auxEN9__gnu_cxx17__normal_iteratorIPS8_SA_EERKS8_.eh
00065c50 S __ZNSt6vectorIN4Poco9SharedPtrINS0_16AbstractDelegateIKSsEENS0_16ReferenceCounterENS0_13ReleasePolicyIS4_EEEESaIS8_EEC2ERKSA_
00068f8c S __ZNSt6vectorIN4Poco9SharedPtrINS0_16AbstractDelegateIKSsEENS0_16ReferenceCounterENS0_13ReleasePolicyIS4_EEEESaIS8_EEC2ERKSA_.eh
000666f0 S __ZNSt6vectorIN4Poco9SharedPtrINS0_16AbstractDelegateIKiEENS0_16ReferenceCounterENS0_13ReleasePolicyIS4_EEEESaIS8_EE13_M_insert_auxEN9__gnu_cxx17__normal_iteratorIPS8_SA_EERKS8_
00069198 S __ZNSt6vectorIN4Poco9SharedPtrINS0_16AbstractDelegateIKiEENS0_16ReferenceCounterENS0_13ReleasePolicyIS4_EEEESaIS8_EE13_M_insert_auxEN9__gnu_cxx17__normal_iteratorIPS8_SA_EERKS8_.eh
00066b30 S __ZNSt6vectorIN4Poco9SharedPtrINS0_16AbstractDelegateIKiEENS0_16ReferenceCounterENS0_13ReleasePolicyIS4_EEEESaIS8_EEC2ERKSA_
00069204 S __ZNSt6vectorIN4Poco9SharedPtrINS0_16AbstractDelegateIKiEENS0_16ReferenceCounterENS0_13ReleasePolicyIS4_EEEESaIS8_EEC2ERKSA_.eh
00065e10 S __ZNSt6vectorIhSaIhEE13_M_insert_auxEN9__gnu_cxx17__normal_iteratorIPhS1_EERKh
00068ff4 S __ZNSt6vectorIhSaIhEE13_M_insert_auxEN9__gnu_cxx17__normal_iteratorIPhS1_EERKh.eh
00066c90 S __ZNSt6vectorIhSaIhEE14_M_fill_insertEN9__gnu_cxx17__normal_iteratorIPhS1_EEmRKh
0006924c S __ZNSt6vectorIhSaIhEE14_M_fill_insertEN9__gnu_cxx17__normal_iteratorIPhS1_EEmRKh.eh
00064010 S __ZNSt6vectorIhSaIhEED1Ev
0006844c S __ZNSt6vectorIhSaIhEED1Ev.eh
         U __ZNSt8ios_base4InitC1Ev
         U __ZNSt8ios_base4InitD1Ev
         U __ZSt17__throw_bad_allocv
         U __ZSt20__throw_length_errorPKc
00065d00 S __ZSt24__uninitialized_copy_auxIN9__gnu_cxx17__normal_iteratorIPKN4Poco9SharedPtrINS2_16AbstractDelegateIKSsEENS2_16ReferenceCounterENS2_13ReleasePolicyIS6_EEEESt6vectorISA_SaISA_EEEEPSA_ET0_T_SJ_SI_St12__false_type
00068fb0 S __ZSt24__uninitialized_copy_auxIN9__gnu_cxx17__normal_iteratorIPKN4Poco9SharedPtrINS2_16AbstractDelegateIKSsEENS2_16ReferenceCounterENS2_13ReleasePolicyIS6_EEEESt6vectorISA_SaISA_EEEEPSA_ET0_T_SJ_SI_St12__false_type.eh
00064e00 S __ZSt24__uninitialized_copy_auxIN9__gnu_cxx17__normal_iteratorIPKN4Poco9SharedPtrINS2_16AbstractDelegateIKSt6vectorIhSaIhEEEENS2_16ReferenceCounterENS2_13ReleasePolicyIS9_EEEES5_ISD_SaISD_EEEEPSD_ET0_T_SL_SK_St12__false_type
00068d30 S __ZSt24__uninitialized_copy_auxIN9__gnu_cxx17__normal_iteratorIPKN4Poco9SharedPtrINS2_16AbstractDelegateIKSt6vectorIhSaIhEEEENS2_16ReferenceCounterENS2_13ReleasePolicyIS9_EEEES5_ISD_SaISD_EEEEPSD_ET0_T_SL_SK_St12__false_type.eh
00066be0 S __ZSt24__uninitialized_copy_auxIN9__gnu_cxx17__normal_iteratorIPKN4Poco9SharedPtrINS2_16AbstractDelegateIKiEENS2_16ReferenceCounterENS2_13ReleasePolicyIS6_EEEESt6vectorISA_SaISA_EEEEPSA_ET0_T_SJ_SI_St12__false_type
00069228 S __ZSt24__uninitialized_copy_auxIN9__gnu_cxx17__normal_iteratorIPKN4Poco9SharedPtrINS2_16AbstractDelegateIKiEENS2_16ReferenceCounterENS2_13ReleasePolicyIS6_EEEESt6vectorISA_SaISA_EEEEPSA_ET0_T_SJ_SI_St12__false_type.eh
00065b20 S __ZSt24__uninitialized_copy_auxIPN4Poco9SharedPtrINS0_16AbstractDelegateIKSsEENS0_16ReferenceCounterENS0_13ReleasePolicyIS4_EEEES9_ET0_T_SB_SA_St12__false_type
00068f44 S __ZSt24__uninitialized_copy_auxIPN4Poco9SharedPtrINS0_16AbstractDelegateIKSsEENS0_16ReferenceCounterENS0_13ReleasePolicyIS4_EEEES9_ET0_T_SB_SA_St12__false_type.eh
00064b40 S __ZSt24__uninitialized_copy_auxIPN4Poco9SharedPtrINS0_16AbstractDelegateIKSt6vectorIhSaIhEEEENS0_16ReferenceCounterENS0_13ReleasePolicyIS7_EEEESC_ET0_T_SE_SD_St12__false_type
00068ca0 S __ZSt24__uninitialized_copy_auxIPN4Poco9SharedPtrINS0_16AbstractDelegateIKSt6vectorIhSaIhEEEENS0_16ReferenceCounterENS0_13ReleasePolicyIS7_EEEESC_ET0_T_SE_SD_St12__false_type.eh
00066a00 S __ZSt24__uninitialized_copy_auxIPN4Poco9SharedPtrINS0_16AbstractDelegateIKiEENS0_16ReferenceCounterENS0_13ReleasePolicyIS4_EEEES9_ET0_T_SB_SA_St12__false_type
000691bc S __ZSt24__uninitialized_copy_auxIPN4Poco9SharedPtrINS0_16AbstractDelegateIKiEENS0_16ReferenceCounterENS0_13ReleasePolicyIS4_EEEES9_ET0_T_SB_SA_St12__false_type.eh
         U __ZSt9terminatev
0006b420 b __ZStL8__ioinit
00067ea0 S __ZTI7ofEventIKSsE
00067ee8 S __ZTI7ofEventIKSt6vectorIhSaIhEEE
00067f30 S __ZTI7ofEventIKiE
00067c38 S __ZTI9ofArduino
00067de8 S __ZTIN4Poco12FIFOStrategyIKSsNS_16AbstractDelegateIS1_EEEE
00067d68 S __ZTIN4Poco12FIFOStrategyIKSt6vectorIhSaIhEENS_16AbstractDelegateIS4_EEEE
00067e68 S __ZTIN4Poco12FIFOStrategyIKiNS_16AbstractDelegateIS1_EEEE
00067e88 S __ZTIN4Poco13AbstractEventIKSsNS_12FIFOStrategyIS1_NS_16AbstractDelegateIS1_EEEES4_NS_9FastMutexEEE
00067ed0 S __ZTIN4Poco13AbstractEventIKSt6vectorIhSaIhEENS_12FIFOStrategyIS4_NS_16AbstractDelegateIS4_EEEES7_NS_9FastMutexEEE
00067f18 S __ZTIN4Poco13AbstractEventIKiNS_12FIFOStrategyIS1_NS_16AbstractDelegateIS1_EEEES4_NS_9FastMutexEEE
00067db0 S __ZTIN4Poco15DefaultStrategyIKSsNS_16AbstractDelegateIS1_EEEE
00067d30 S __ZTIN4Poco15DefaultStrategyIKSt6vectorIhSaIhEENS_16AbstractDelegateIS4_EEEE
00067e30 S __ZTIN4Poco15DefaultStrategyIKiNS_16AbstractDelegateIS1_EEEE
         U __ZTIN4Poco15SystemExceptionE
00067da8 S __ZTIN4Poco20NotificationStrategyIKSsNS_16AbstractDelegateIS1_EEEE
00067d28 S __ZTIN4Poco20NotificationStrategyIKSt6vectorIhSaIhEENS_16AbstractDelegateIS4_EEEE
00067e28 S __ZTIN4Poco20NotificationStrategyIKiNS_16AbstractDelegateIS1_EEEE
         U __ZTIN4Poco20NullPointerExceptionE
00067e90 S __ZTIN4Poco9FIFOEventIKSsNS_9FastMutexEEE
00067ed8 S __ZTIN4Poco9FIFOEventIKSt6vectorIhSaIhEENS_9FastMutexEEE
00067f20 S __ZTIN4Poco9FIFOEventIKiNS_9FastMutexEEE
000681b5 S __ZTS7ofEventIKSsE
00068260 S __ZTS7ofEventIKSt6vectorIhSaIhEEE
0006832e S __ZTS7ofEventIKiE
00067ce6 S __ZTS9ofArduino
000680c0 S __ZTSN4Poco12FIFOStrategyIKSsNS_16AbstractDelegateIS1_EEEE
00067ff0 S __ZTSN4Poco12FIFOStrategyIKSt6vectorIhSaIhEENS_16AbstractDelegateIS4_EEEE
00068180 S __ZTSN4Poco12FIFOStrategyIKiNS_16AbstractDelegateIS1_EEEE
00068200 S __ZTSN4Poco13AbstractEventIKSsNS_12FIFOStrategyIS1_NS_16AbstractDelegateIS1_EEEES4_NS_9FastMutexEEE
000682c0 S __ZTSN4Poco13AbstractEventIKSt6vectorIhSaIhEENS_12FIFOStrategyIS4_NS_16AbstractDelegateIS4_EEEES7_NS_9FastMutexEEE
00068370 S __ZTSN4Poco13AbstractEventIKiNS_12FIFOStrategyIS1_NS_16AbstractDelegateIS1_EEEES4_NS_9FastMutexEEE
00068040 S __ZTSN4Poco15DefaultStrategyIKSsNS_16AbstractDelegateIS1_EEEE
00067f50 S __ZTSN4Poco15DefaultStrategyIKSt6vectorIhSaIhEENS_16AbstractDelegateIS4_EEEE
00068100 S __ZTSN4Poco15DefaultStrategyIKiNS_16AbstractDelegateIS1_EEEE
00068080 S __ZTSN4Poco20NotificationStrategyIKSsNS_16AbstractDelegateIS1_EEEE
00067fa0 S __ZTSN4Poco20NotificationStrategyIKSt6vectorIhSaIhEENS_16AbstractDelegateIS4_EEEE
00068140 S __ZTSN4Poco20NotificationStrategyIKiNS_16AbstractDelegateIS1_EEEE
000681d0 S __ZTSN4Poco9FIFOEventIKSsNS_9FastMutexEEE
00068280 S __ZTSN4Poco9FIFOEventIKSt6vectorIhSaIhEENS_9FastMutexEEE
00068340 S __ZTSN4Poco9FIFOEventIKiNS_9FastMutexEEE
00067e74 S __ZTV7ofEventIKSsE
00067ebc S __ZTV7ofEventIKSt6vectorIhSaIhEEE
00067f04 S __ZTV7ofEventIKiE
00067c20 S __ZTV9ofArduino
         U __ZTVN10__cxxabiv117__class_type_infoE
         U __ZTVN10__cxxabiv120__si_class_type_infoE
00067dc0 S __ZTVN4Poco12FIFOStrategyIKSsNS_16AbstractDelegateIS1_EEEE
00067d40 S __ZTVN4Poco12FIFOStrategyIKSt6vectorIhSaIhEENS_16AbstractDelegateIS4_EEEE
00067e40 S __ZTVN4Poco12FIFOStrategyIKiNS_16AbstractDelegateIS1_EEEE
00067eac S __ZTVN4Poco13AbstractEventIKSsNS_12FIFOStrategyIS1_NS_16AbstractDelegateIS1_EEEES4_NS_9FastMutexEEE
00067ef4 S __ZTVN4Poco13AbstractEventIKSt6vectorIhSaIhEENS_12FIFOStrategyIS4_NS_16AbstractDelegateIS4_EEEES7_NS_9FastMutexEEE
00067f3c S __ZTVN4Poco13AbstractEventIKiNS_12FIFOStrategyIS1_NS_16AbstractDelegateIS1_EEEES4_NS_9FastMutexEEE
00067d80 S __ZTVN4Poco15DefaultStrategyIKSsNS_16AbstractDelegateIS1_EEEE
00067d00 S __ZTVN4Poco15DefaultStrategyIKSt6vectorIhSaIhEENS_16AbstractDelegateIS4_EEEE
00067e00 S __ZTVN4Poco15DefaultStrategyIKiNS_16AbstractDelegateIS1_EEEE
0006b424 b __ZZN9ofArduino6updateEvE14bytesToProcess
         U __ZdlPv
         U __Znwm
         U ___bzero
         U ___cxa_allocate_exception
         U ___cxa_atexit
         U ___cxa_begin_catch
         U ___cxa_end_catch
         U ___cxa_free_exception
         U ___cxa_guard_acquire
         U ___cxa_guard_release
         U ___cxa_rethrow
         U ___cxa_throw
         U ___dso_handle
         U ___gxx_personality_v0
         U ___stack_chk_fail
         U ___stack_chk_guard
         U _memcpy
         U _memmove
         U _memset
         U _pthread_mutex_lock
         U _pthread_mutex_unlock
         U _sprintf

../../../libs/openFrameworksCompiled/lib/osx/openFrameworks.a(ofSerial.o):
0001d560 s EH_frame0
0001d5b0 s EH_frame1
0001bff0 s GCC_except_table13
0001c01c s GCC_except_table14
0001bdc4 s GCC_except_table2
0001c064 s GCC_except_table22
0001c090 s GCC_except_table23
0001c0ec s GCC_except_table24
0001c128 s GCC_except_table25
0001c208 s GCC_except_table26
0001c264 s GCC_except_table27
0001c310 s GCC_except_table28
0001bde4 s GCC_except_table4
0001be24 s GCC_except_table6
0001bf24 s GCC_except_table7
0001bf50 s GCC_except_table8
0001bf70 s GCC_except_table9
0001d300 s __GLOBAL__I_a
0001d96c s __GLOBAL__I_a.eh
         U __Unwind_Resume
         U __ZN11ofLogNoticeC1ERKSs
         U __ZN5ofLog7paddingE
         U __ZN5ofLogC1E10ofLogLevelPKcz
         U __ZN5ofLogD1Ev
         U __ZN5ofLogD2Ev
00001770 T __ZN8ofSerial10writeBytesEPhi
0001d77c S __ZN8ofSerial10writeBytesEPhi.eh
00000cb0 T __ZN8ofSerial11listDevicesEv
0001d6bc S __ZN8ofSerial11listDevicesEv.eh
00000fe0 T __ZN8ofSerial13getDeviceListEv
0001d6e0 S __ZN8ofSerial13getDeviceListEv.eh
000001e0 T __ZN8ofSerial15buildDeviceListEv
0001d650 S __ZN8ofSerial15buildDeviceListEv.eh
00001010 T __ZN8ofSerial16enumerateDevicesEv
0001d6fc S __ZN8ofSerial16enumerateDevicesEv.eh
000001a0 T __ZN8ofSerial5closeEv
0001d634 S __ZN8ofSerial5closeEv.eh
00001b60 T __ZN8ofSerial5drainEv
0001d818 S __ZN8ofSerial5drainEv.eh
00001ae0 T __ZN8ofSerial5flushEbb
0001d7fc S __ZN8ofSerial5flushEbb.eh
00001160 T __ZN8ofSerial5setupESsi
0001d758 S __ZN8ofSerial5setupESsi.eh
00001050 T __ZN8ofSerial5setupEii
0001d734 S __ZN8ofSerial5setupEii.eh
00001020 T __ZN8ofSerial5setupEv
0001d718 S __ZN8ofSerial5setupEv.eh
00001a00 T __ZN8ofSerial8readByteEv
0001d7dc S __ZN8ofSerial8readByteEv.eh
00001bc0 T __ZN8ofSerial9availableEv
0001d834 S __ZN8ofSerial9availableEv.eh
00001850 T __ZN8ofSerial9readBytesEPhi
0001d79c S __ZN8ofSerial9readBytesEPhi.eh
00001900 T __ZN8ofSerial9writeByteEh
0001d7bc S __ZN8ofSerial9writeByteEh.eh
00000000 T __ZN8ofSerialC1Ev
0001d578 S __ZN8ofSerialC1Ev.eh
00000040 T __ZN8ofSerialC2Ev
0001d594 S __ZN8ofSerialC2Ev.eh
00000080 T __ZN8ofSerialD0Ev
0001d5d0 S __ZN8ofSerialD0Ev.eh
000000b0 T __ZN8ofSerialD1Ev
0001d5f4 S __ZN8ofSerialD1Ev.eh
000000c0 T __ZN8ofSerialD2Ev
0001d610 S __ZN8ofSerialD2Ev.eh
         U __ZNKSs7compareEPKc
         U __ZNSolsEi
         U __ZNSs4_Rep10_M_destroyERKSaIcE
         U __ZNSs4_Rep20_S_empty_rep_storageE
         U __ZNSs6appendEPKcm
         U __ZNSs6appendERKSs
         U __ZNSs6assignEPKcm
         U __ZNSs6assignERKSs
         U __ZNSs7reserveEm
         U __ZNSsC1EPKcRKSaIcE
         U __ZNSsC1ERKSs
         U __ZNSsC1ERKSsmm
0001c890 S __ZNSt6vectorI18ofSerialDeviceInfoSaIS0_EE13_M_insert_auxEN9__gnu_cxx17__normal_iteratorIPS0_S2_EERKS0_
0001d8bc S __ZNSt6vectorI18ofSerialDeviceInfoSaIS0_EE13_M_insert_auxEN9__gnu_cxx17__normal_iteratorIPS0_S2_EERKS0_.eh
0001c360 S __ZNSt6vectorI18ofSerialDeviceInfoSaIS0_EE9push_backERKS0_
0001d674 S __ZNSt6vectorI18ofSerialDeviceInfoSaIS0_EE9push_backERKS0_.eh
0001c4c0 S __ZNSt6vectorI18ofSerialDeviceInfoSaIS0_EEC2ERKS2_
0001d850 S __ZNSt6vectorI18ofSerialDeviceInfoSaIS0_EEC2ERKS2_.eh
0001d260 S __ZNSt6vectorI18ofSerialDeviceInfoSaIS0_EED2Ev
0001d94c S __ZNSt6vectorI18ofSerialDeviceInfoSaIS0_EED2Ev.eh
0001ced0 S __ZNSt6vectorISsSaISsEE13_M_insert_auxEN9__gnu_cxx17__normal_iteratorIPSsS1_EERKSs
0001d904 S __ZNSt6vectorISsSaISsEE13_M_insert_auxEN9__gnu_cxx17__normal_iteratorIPSsS1_EERKSs.eh
         U __ZNSt8ios_base4InitC1Ev
         U __ZNSt8ios_base4InitD1Ev
         U __ZNSt9basic_iosIcSt11char_traitsIcEE5clearESt12_Ios_Iostate
         U __ZSt16__ostream_insertIcSt11char_traitsIcEERSt13basic_ostreamIT_T0_ES6_PKS3_i
         U __ZSt17__throw_bad_allocv
         U __ZSt20__throw_length_errorPKc
0001c590 S __ZSt24__uninitialized_copy_auxIN9__gnu_cxx17__normal_iteratorIPK18ofSerialDeviceInfoSt6vectorIS2_SaIS2_EEEEPS2_ET0_T_SB_SA_St12__false_type
0001d874 S __ZSt24__uninitialized_copy_auxIN9__gnu_cxx17__normal_iteratorIPK18ofSerialDeviceInfoSt6vectorIS2_SaIS2_EEEEPS2_ET0_T_SB_SA_St12__false_type.eh
0001cd70 S __ZSt24__uninitialized_copy_auxIP18ofSerialDeviceInfoS1_ET0_T_S3_S2_St12__false_type
0001d8e0 S __ZSt24__uninitialized_copy_auxIP18ofSerialDeviceInfoS1_ET0_T_S3_S2_St12__false_type.eh
0001d1a0 S __ZSt24__uninitialized_copy_auxIPSsS0_ET0_T_S2_S1_St12__false_type
0001d928 S __ZSt24__uninitialized_copy_auxIPSsS0_ET0_T_S2_S1_St12__false_type.eh
0001c700 S __ZSt4swapI18ofSerialDeviceInfoEvRT_S2_
0001d898 S __ZSt4swapI18ofSerialDeviceInfoEvRT_S2_.eh
         U __ZSt9terminatev
0001df66 b __ZStL8__ioinit
0001c410 S __ZStplIcSt11char_traitsIcESaIcEESbIT_T0_T1_EPKS3_RKS6_
0001d698 S __ZStplIcSt11char_traitsIcESaIcEESbIT_T0_T1_EPKS3_RKS6_.eh
0001d350 S __ZTI8ofSerial
0001d552 S __ZTS8ofSerial
0001d340 S __ZTV8ofSerial
         U __ZTVN10__cxxabiv117__class_type_infoE
         U __ZdlPv
         U __Znwm
         U ___cxa_atexit
         U ___cxa_begin_catch
         U ___cxa_end_catch
         U ___cxa_rethrow
         U ___dso_handle
         U ___error
         U ___gxx_personality_v0
         U _cfsetispeed
         U _cfsetospeed
         U _close$UNIX2003
         U _closedir$UNIX2003
         U _ioctl
         U _open$UNIX2003
         U _opendir$INODE64$UNIX2003
         U _read$UNIX2003
         U _readdir$INODE64
         U _strerror$UNIX2003
         U _strlen
         U _strstr
         U _tcdrain$UNIX2003
         U _tcflush
         U _tcgetattr
         U _tcsetattr
         U _write$UNIX2003

../../../libs/openFrameworksCompiled/lib/osx/openFrameworks.a(ofQtUtils-7805BED1DF6F668C.o):
000081e8 s EH_frame0
         U _BeginUpdate
         U _CFDataCreate
         U _CFDataGetBytePtr
         U _CFDataGetLength
         U _CFPreferencesAppSynchronize
         U _CFPreferencesCopyAppValue
         U _CFPreferencesSetAppValue
         U _CFRelease
         U _DisposeHandle
         U _EndUpdate
         U _EnterMovies
         U _ExitMovies
         U _Fix2X
         U _GetHandleSize
         U _GetMediaDuration
         U _GetMediaHandler
         U _GetMediaSampleCount
         U _GetMediaTimeScale
         U _GetMovieIndTrackType
         U _GetMoviesError
         U _GetTrackMedia
         U _HLock
         U _MediaGetPublicInfo
         U _MediaHasCharacteristic
         U _MemError
         U _NewHandle
         U _NewUserDataFromHandle
         U _PtrToHand
         U _PutUserDataIntoHandle
000080a0 s __GLOBAL__I_a
00008350 s __GLOBAL__I_a.eh
000000d0 T __Z13convertPixelsPhS_ii
0000823c S __Z13convertPixelsPhS_ii.eh
000000a0 T __Z14closeQuicktimev
00008220 S __Z14closeQuicktimev.eh
00000370 T __Z18IsMPEGMediaHandlerP23ComponentInstanceRecordPh
000082b8 S __Z18IsMPEGMediaHandlerP23ComponentInstanceRecordPh.eh
00000000 T __Z19initializeQuicktimev
00008200 S __Z19initializeQuicktimev.eh
00000480 T __Z21GetSettingsPreferencePK10__CFStringPPP14UserDataRecord
00008310 S __Z21GetSettingsPreferencePK10__CFStringPPP14UserDataRecord.eh
00000530 T __Z22SaveSettingsPreferencePK10__CFStringPP14UserDataRecord
00008330 S __Z22SaveSettingsPreferencePK10__CFStringPP14UserDataRecord.eh
000003f0 T __Z23MediaGetStaticFrameRatePP9MediaTypePd
000082f0 S __Z23MediaGetStaticFrameRatePP9MediaTypePd.eh
00000180 T __Z23MovieGetStaticFrameRatePP9MovieTypePd
00008278 S __Z23MovieGetStaticFrameRatePP9MovieTypePd.eh
00000140 T __Z24SeqGrabberModalFilterUPPP15OpaqueDialogPtrPK11EventRecordPsl
0000825c S __Z24SeqGrabberModalFilterUPPP15OpaqueDialogPtrPK11EventRecordPsl.eh
000003a0 T __Z27MPEGMediaGetStaticFrameRateP23ComponentInstanceRecordPl
000082d4 S __Z27MPEGMediaGetStaticFrameRateP23ComponentInstanceRecordPl.eh
00000310 T __Z33MovieGetVideoMediaAndMediaHandlerPP9MovieTypePPP9MediaTypePP23ComponentInstanceRecord
00008298 S __Z33MovieGetVideoMediaAndMediaHandlerPP9MovieTypePPP9MediaTypePP23ComponentInstanceRecord.eh
00008371 b __ZL21bQuicktimeInitialized.b
         U __ZN5ofLogC1E10ofLogLevelPKcz
         U __ZN5ofLogD1Ev
         U __ZNSt8ios_base4InitC1Ev
         U __ZNSt8ios_base4InitD1Ev
00008370 b __ZStL8__ioinit
         U ___cxa_atexit
         U ___dso_handle
         U _exit
         U _kCFAllocatorDefault
         U _kCFPreferencesCurrentApplication

../../../libs/openFrameworksCompiled/lib/osx/openFrameworks.a(ofVideoGrabber.o):
00017154 s EH_frame0
00017334 s EH_frame1
0001623c s GCC_except_table0
00016270 s GCC_except_table1
000163d0 s GCC_except_table10
000163f0 s GCC_except_table11
00016410 s GCC_except_table12
00016430 s GCC_except_table15
000162a4 s GCC_except_table2
000162c4 s GCC_except_table3
000162e4 s GCC_except_table4
00016304 s GCC_except_table5
00016324 s GCC_except_table6
00016344 s GCC_except_table7
000164a4 s GCC_except_table76
00016364 s GCC_except_table8
000163b0 s GCC_except_table9
00016900 s __GLOBAL__I_a
00017b9c s __GLOBAL__I_a.eh
         U __Unwind_Resume
00016630 S __ZN11ofBaseDraws11resetAnchorEv
000178a0 S __ZN11ofBaseDraws11resetAnchorEv.eh
00016620 S __ZN11ofBaseDraws14setAnchorPointEff
00017884 S __ZN11ofBaseDraws14setAnchorPointEff.eh
00016610 S __ZN11ofBaseDraws16setAnchorPercentEff
00017868 S __ZN11ofBaseDraws16setAnchorPercentEff.eh
00016550 S __ZN11ofBaseDraws4drawERK11ofRectangle
000177f8 S __ZN11ofBaseDraws4drawERK11ofRectangle.eh
00016520 S __ZN11ofBaseDraws4drawERK7ofVec3f
000177dc S __ZN11ofBaseDraws4drawERK7ofVec3f.eh
000165a0 S __ZN11ofBaseDraws4drawERK7ofVec3fff
00017814 S __ZN11ofBaseDraws4drawERK7ofVec3fff.eh
00016700 S __ZN11ofBaseVideoD0Ev
000179b8 S __ZN11ofBaseVideoD0Ev.eh
000166f0 S __ZN11ofBaseVideoD1Ev
0001799c S __ZN11ofBaseVideoD1Ev.eh
000166b0 S __ZN12ofBaseImage_IhED0Ev
00017948 S __ZN12ofBaseImage_IhED0Ev.eh
000166a0 S __ZN12ofBaseImage_IhED1Ev
0001792c S __ZN12ofBaseImage_IhED1Ev.eh
000005e0 T __ZN14ofVideoGrabber10getGrabberEv
0001736c S __ZN14ofVideoGrabber10getGrabberEv.eh
00000a80 T __ZN14ofVideoGrabber10isFrameNewEv
000174fc S __ZN14ofVideoGrabber10isFrameNewEv.eh
00000570 T __ZN14ofVideoGrabber10setGrabberE5ofPtrI18ofBaseVideoGrabberE
0001734c S __ZN14ofVideoGrabber10setGrabberE5ofPtrI18ofBaseVideoGrabberE.eh
000008f0 T __ZN14ofVideoGrabber10setVerboseEb
00017400 S __ZN14ofVideoGrabber10setVerboseEb.eh
000164f0 S __ZN14ofVideoGrabber11initGrabberEii
000177c0 S __ZN14ofVideoGrabber11initGrabberEii.eh
00000600 T __ZN14ofVideoGrabber11initGrabberEiib
00017388 S __ZN14ofVideoGrabber11initGrabberEiib.eh
000008d0 T __ZN14ofVideoGrabber11listDevicesEv
000173e4 S __ZN14ofVideoGrabber11listDevicesEv.eh
00000dd0 T __ZN14ofVideoGrabber11resetAnchorEv
0001768c S __ZN14ofVideoGrabber11resetAnchorEv.eh
00000920 T __ZN14ofVideoGrabber11setDeviceIDEi
0001741c S __ZN14ofVideoGrabber11setDeviceIDEi.eh
00000a00 T __ZN14ofVideoGrabber12getPixelsRefEv
0001748c S __ZN14ofVideoGrabber12getPixelsRefEv.eh
00001010 T __ZN14ofVideoGrabber13isInitializedEv
000177a4 S __ZN14ofVideoGrabber13isInitializedEv.eh
00000cf0 T __ZN14ofVideoGrabber13setUseTextureEb
000175e4 S __ZN14ofVideoGrabber13setUseTextureEb.eh
00000cd0 T __ZN14ofVideoGrabber13videoSettingsEv
000175c8 S __ZN14ofVideoGrabber13videoSettingsEv.eh
000008b0 T __ZN14ofVideoGrabber14getPixelFormatEv
000173c8 S __ZN14ofVideoGrabber14getPixelFormatEv.eh
00000d70 T __ZN14ofVideoGrabber14setAnchorPointEff
00017654 S __ZN14ofVideoGrabber14setAnchorPointEff.eh
000008a0 T __ZN14ofVideoGrabber14setPixelFormatE13ofPixelFormat
000173ac S __ZN14ofVideoGrabber14setPixelFormatE13ofPixelFormat.eh
00000d10 T __ZN14ofVideoGrabber16setAnchorPercentEff
0001761c S __ZN14ofVideoGrabber16setAnchorPercentEff.eh
00000a60 T __ZN14ofVideoGrabber19getTextureReferenceEv
000174c4 S __ZN14ofVideoGrabber19getTextureReferenceEv.eh
00000970 T __ZN14ofVideoGrabber19setDesiredFrameRateEi
00017438 S __ZN14ofVideoGrabber19setDesiredFrameRateEi.eh
00000eb0 T __ZN14ofVideoGrabber4drawEff
000176fc S __ZN14ofVideoGrabber4drawEff.eh
00000e10 T __ZN14ofVideoGrabber4drawEffff
000176c4 S __ZN14ofVideoGrabber4drawEffff.eh
00000c60 T __ZN14ofVideoGrabber5closeEv
0001758c S __ZN14ofVideoGrabber5closeEv.eh
00000ae0 T __ZN14ofVideoGrabber6updateEv
00017534 S __ZN14ofVideoGrabber6updateEv.eh
00000f90 T __ZN14ofVideoGrabber8getWidthEv
0001776c S __ZN14ofVideoGrabber8getWidthEv.eh
00000f10 T __ZN14ofVideoGrabber9getHeightEv
00017734 S __ZN14ofVideoGrabber9getHeightEv.eh
000009a0 T __ZN14ofVideoGrabber9getPixelsEv
00017454 S __ZN14ofVideoGrabber9getPixelsEv.eh
00000c50 T __ZN14ofVideoGrabber9grabFrameEv
00017570 S __ZN14ofVideoGrabber9grabFrameEv.eh
00000000 T __ZN14ofVideoGrabberC1Ev
00017174 S __ZN14ofVideoGrabberC1Ev.eh
000000e0 T __ZN14ofVideoGrabberC2Ev
00017198 S __ZN14ofVideoGrabberC2Ev.eh
000001f0 T __ZN14ofVideoGrabberD0Ev
000171bc S __ZN14ofVideoGrabberD0Ev.eh
00000230 T __ZN14ofVideoGrabberD1Ev
000171e0 S __ZN14ofVideoGrabberD1Ev.eh
000003a0 T __ZN14ofVideoGrabberD2Ev
00017290 S __ZN14ofVideoGrabberD2Ev.eh
000168c0 S __ZN15ofAbstractImageD0Ev
00017b48 S __ZN15ofAbstractImageD0Ev.eh
000168b0 S __ZN15ofAbstractImageD1Ev
00017b2c S __ZN15ofAbstractImageD1Ev.eh
00016600 S __ZN16ofBaseVideoDrawsD0Ev
0001784c S __ZN16ofBaseVideoDrawsD0Ev.eh
000165f0 S __ZN16ofBaseVideoDrawsD1Ev
00017830 S __ZN16ofBaseVideoDrawsD1Ev.eh
         U __ZN18ofBaseVideoGrabber10setVerboseEb
         U __ZN18ofBaseVideoGrabber11setDeviceIDEi
         U __ZN18ofBaseVideoGrabber13videoSettingsEv
         U __ZN18ofBaseVideoGrabber14getPixelFormatEv
         U __ZN18ofBaseVideoGrabber14setPixelFormatE13ofPixelFormat
         U __ZN18ofBaseVideoGrabber19setDesiredFrameRateEi
         U __ZN18ofBaseVideoGrabberD0Ev
         U __ZN18ofBaseVideoGrabberD1Ev
         U __ZN18ofBaseVideoGrabberD2Ev
         U __ZN18ofQuickTimeGrabberC1Ev
         U __ZN5ofLogC1E10ofLogLevelPKcz
         U __ZN5ofLogD1Ev
         U __ZN9ofTexture5clearEv
         U __ZN9ofTexture8loadDataEPKhiii
         U __ZN9ofTextureC1Ev
         U __ZN9ofTextureD1Ev
00016740 S __ZNSt3tr114__shared_countILN9__gnu_cxx12_Lock_policyE2EEC2IP18ofQuickTimeGrabberNS_11_Sp_deleterIS5_EEEET_T0_
00017a0c S __ZNSt3tr114__shared_countILN9__gnu_cxx12_Lock_policyE2EEC2IP18ofQuickTimeGrabberNS_11_Sp_deleterIS5_EEEET_T0_.eh
00016800 S __ZNSt3tr116_Sp_counted_baseILN9__gnu_cxx12_Lock_policyE2EE10_M_destroyEv
00017a84 S __ZNSt3tr116_Sp_counted_baseILN9__gnu_cxx12_Lock_policyE2EE10_M_destroyEv.eh
000167e0 S __ZNSt3tr121_Sp_counted_base_implIP18ofQuickTimeGrabberNS_11_Sp_deleterIS1_EELN9__gnu_cxx12_Lock_policyE2EE10_M_disposeEv
00017a68 S __ZNSt3tr121_Sp_counted_base_implIP18ofQuickTimeGrabberNS_11_Sp_deleterIS1_EELN9__gnu_cxx12_Lock_policyE2EE10_M_disposeEv.eh
00016820 S __ZNSt3tr121_Sp_counted_base_implIP18ofQuickTimeGrabberNS_11_Sp_deleterIS1_EELN9__gnu_cxx12_Lock_policyE2EE14_M_get_deleterERKSt9type_info
00017aa0 S __ZNSt3tr121_Sp_counted_base_implIP18ofQuickTimeGrabberNS_11_Sp_deleterIS1_EELN9__gnu_cxx12_Lock_policyE2EE14_M_get_deleterERKSt9type_info.eh
000167d0 S __ZNSt3tr121_Sp_counted_base_implIP18ofQuickTimeGrabberNS_11_Sp_deleterIS1_EELN9__gnu_cxx12_Lock_policyE2EED0Ev
00017a4c S __ZNSt3tr121_Sp_counted_base_implIP18ofQuickTimeGrabberNS_11_Sp_deleterIS1_EELN9__gnu_cxx12_Lock_policyE2EED0Ev.eh
000167c0 S __ZNSt3tr121_Sp_counted_base_implIP18ofQuickTimeGrabberNS_11_Sp_deleterIS1_EELN9__gnu_cxx12_Lock_policyE2EED1Ev
00017a30 S __ZNSt3tr121_Sp_counted_base_implIP18ofQuickTimeGrabberNS_11_Sp_deleterIS1_EELN9__gnu_cxx12_Lock_policyE2EED1Ev.eh
         U __ZNSt8ios_base4InitC1Ev
         U __ZNSt8ios_base4InitD1Ev
         U __ZSt9terminatev
00017e44 b __ZStL8__ioinit
00016c30 S __ZTC14ofVideoGrabber0_11ofBaseVideo
00016aa0 S __ZTC14ofVideoGrabber0_18ofBaseVideoGrabber
00016bd0 S __ZTC14ofVideoGrabber4_12ofBaseImage_IhE
00016b30 S __ZTC14ofVideoGrabber4_16ofBaseVideoDraws
00016f10 S __ZTI11ofBaseDraws
00016ef0 S __ZTI11ofBaseVideo
00016f40 S __ZTI12ofBaseImage_IhE
00016ee8 S __ZTI13ofBaseUpdates
00016a80 S __ZTI14ofVideoGrabber
00016f20 S __ZTI15ofAbstractImage
00016ed8 S __ZTI16ofBaseHasPixels_IhE
00016f18 S __ZTI16ofBaseHasTexture
00016f60 S __ZTI16ofBaseVideoDraws
         U __ZTI18ofBaseVideoGrabber
00016ed0 S __ZTI19ofAbstractHasPixels
00016fa0 S __ZTINSt3tr111_Mutex_baseILN9__gnu_cxx12_Lock_policyE2EEE
00016fa8 S __ZTINSt3tr116_Sp_counted_baseILN9__gnu_cxx12_Lock_policyE2EEE
00016fb8 S __ZTINSt3tr121_Sp_counted_base_implIP18ofQuickTimeGrabberNS_11_Sp_deleterIS1_EELN9__gnu_cxx12_Lock_policyE2EEE
00016d82 S __ZTS11ofBaseDraws
00016cd0 S __ZTS11ofBaseVideo
00016d50 S __ZTS12ofBaseImage_IhE
00016d16 S __ZTS13ofBaseUpdates
00016cb0 S __ZTS14ofVideoGrabber
00016d70 S __ZTS15ofAbstractImage
00016ce0 S __ZTS16ofBaseHasPixels_IhE
00016d90 S __ZTS16ofBaseHasTexture
00016d30 S __ZTS16ofBaseVideoDraws
00016d00 S __ZTS19ofAbstractHasPixels
00016e60 S __ZTSNSt3tr111_Mutex_baseILN9__gnu_cxx12_Lock_policyE2EEE
00016ea0 S __ZTSNSt3tr111_Sp_deleterI18ofQuickTimeGrabberEE
00016e20 S __ZTSNSt3tr116_Sp_counted_baseILN9__gnu_cxx12_Lock_policyE2EEE
00016db0 S __ZTSNSt3tr121_Sp_counted_base_implIP18ofQuickTimeGrabberNS_11_Sp_deleterIS1_EELN9__gnu_cxx12_Lock_policyE2EEE
00016940 S __ZTT14ofVideoGrabber
00016fd0 S __ZTV12ofBaseImage_IhE
00016980 S __ZTV14ofVideoGrabber
00017100 S __ZTV15ofAbstractImage
00017050 S __ZTV16ofBaseVideoDraws
         U __ZTVN10__cxxabiv117__class_type_infoE
         U __ZTVN10__cxxabiv120__si_class_type_infoE
         U __ZTVN10__cxxabiv121__vmi_class_type_infoE
00016f80 S __ZTVNSt3tr121_Sp_counted_base_implIP18ofQuickTimeGrabberNS_11_Sp_deleterIS1_EELN9__gnu_cxx12_Lock_policyE2EEE
00016860 S __ZThn4_N12ofBaseImage_IhED0Ev
00017ad8 S __ZThn4_N12ofBaseImage_IhED0Ev.eh
00016850 S __ZThn4_N12ofBaseImage_IhED1Ev
00017abc S __ZThn4_N12ofBaseImage_IhED1Ev.eh
00000df0 T __ZThn4_N14ofVideoGrabber11resetAnchorEv
000176a8 S __ZThn4_N14ofVideoGrabber11resetAnchorEv.eh
00000da0 T __ZThn4_N14ofVideoGrabber14setAnchorPointEff
00017670 S __ZThn4_N14ofVideoGrabber14setAnchorPointEff.eh
00000d40 T __ZThn4_N14ofVideoGrabber16setAnchorPercentEff
00017638 S __ZThn4_N14ofVideoGrabber16setAnchorPercentEff.eh
00000ee0 T __ZThn4_N14ofVideoGrabber4drawEff
00017718 S __ZThn4_N14ofVideoGrabber4drawEff.eh
00000e60 T __ZThn4_N14ofVideoGrabber4drawEffff
000176e0 S __ZThn4_N14ofVideoGrabber4drawEffff.eh
00000fd0 T __ZThn4_N14ofVideoGrabber8getWidthEv
00017788 S __ZThn4_N14ofVideoGrabber8getWidthEv.eh
00000f50 T __ZThn4_N14ofVideoGrabber9getHeightEv
00017750 S __ZThn4_N14ofVideoGrabber9getHeightEv.eh
000002b0 T __ZThn4_N14ofVideoGrabberD0Ev
00017224 S __ZThn4_N14ofVideoGrabberD0Ev.eh
000004b0 T __ZThn4_N14ofVideoGrabberD1Ev
000172d4 S __ZThn4_N14ofVideoGrabberD1Ev.eh
000168e0 S __ZThn4_N15ofAbstractImageD0Ev
00017b80 S __ZThn4_N15ofAbstractImageD0Ev.eh
000168d0 S __ZThn4_N15ofAbstractImageD1Ev
00017b64 S __ZThn4_N15ofAbstractImageD1Ev.eh
00016880 S __ZThn4_N16ofBaseVideoDrawsD0Ev
00017af4 S __ZThn4_N16ofBaseVideoDrawsD0Ev.eh
000168a0 S __ZThn4_N16ofBaseVideoDrawsD1Ev
00017b10 S __ZThn4_N16ofBaseVideoDrawsD1Ev.eh
00000d00 T __ZThn8_N14ofVideoGrabber13setUseTextureEb
00017600 S __ZThn8_N14ofVideoGrabber13setUseTextureEb.eh
00000a70 T __ZThn8_N14ofVideoGrabber19getTextureReferenceEv
000174e0 S __ZThn8_N14ofVideoGrabber19getTextureReferenceEv.eh
00000300 T __ZThn8_N14ofVideoGrabberD0Ev
00017248 S __ZThn8_N14ofVideoGrabberD0Ev.eh
000004f0 T __ZThn8_N14ofVideoGrabberD1Ev
000172f4 S __ZThn8_N14ofVideoGrabberD1Ev.eh
00016720 S __ZTv0_n12_N11ofBaseVideoD0Ev
000179f0 S __ZTv0_n12_N11ofBaseVideoD0Ev.eh
00016710 S __ZTv0_n12_N11ofBaseVideoD1Ev
000179d4 S __ZTv0_n12_N11ofBaseVideoD1Ev.eh
000166d0 S __ZTv0_n12_N12ofBaseImage_IhED0Ev
00017980 S __ZTv0_n12_N12ofBaseImage_IhED0Ev.eh
000166c0 S __ZTv0_n12_N12ofBaseImage_IhED1Ev
00017964 S __ZTv0_n12_N12ofBaseImage_IhED1Ev.eh
00000350 T __ZTv0_n12_N14ofVideoGrabberD0Ev
0001726c S __ZTv0_n12_N14ofVideoGrabberD0Ev.eh
00000530 T __ZTv0_n12_N14ofVideoGrabberD1Ev
00017314 S __ZTv0_n12_N14ofVideoGrabberD1Ev.eh
00016680 S __ZTv0_n12_N16ofBaseVideoDrawsD0Ev
00017910 S __ZTv0_n12_N16ofBaseVideoDrawsD0Ev.eh
00016670 S __ZTv0_n12_N16ofBaseVideoDrawsD1Ev
000178f4 S __ZTv0_n12_N16ofBaseVideoDrawsD1Ev.eh
         U __ZTv0_n12_N18ofBaseVideoGrabberD0Ev
         U __ZTv0_n12_N18ofBaseVideoGrabberD1Ev
000009d0 T __ZTv0_n16_N14ofVideoGrabber9getPixelsEv
00017470 S __ZTv0_n16_N14ofVideoGrabber9getPixelsEv.eh
00000260 T __ZTv0_n16_N14ofVideoGrabberD0Ev
00017200 S __ZTv0_n16_N14ofVideoGrabberD0Ev.eh
00000470 T __ZTv0_n16_N14ofVideoGrabberD1Ev
000172b4 S __ZTv0_n16_N14ofVideoGrabberD1Ev.eh
00016650 S __ZTv0_n16_N16ofBaseVideoDrawsD0Ev
000178d8 S __ZTv0_n16_N16ofBaseVideoDrawsD0Ev.eh
00016640 S __ZTv0_n16_N16ofBaseVideoDrawsD1Ev
000178bc S __ZTv0_n16_N16ofBaseVideoDrawsD1Ev.eh
00000a30 T __ZTv0_n20_N14ofVideoGrabber12getPixelsRefEv
000174a8 S __ZTv0_n20_N14ofVideoGrabber12getPixelsRefEv.eh
00000c30 T __ZTv0_n20_N14ofVideoGrabber6updateEv
00017554 S __ZTv0_n20_N14ofVideoGrabber6updateEv.eh
00000ab0 T __ZTv0_n24_N14ofVideoGrabber10isFrameNewEv
00017518 S __ZTv0_n24_N14ofVideoGrabber10isFrameNewEv.eh
00000c90 T __ZTv0_n28_N14ofVideoGrabber5closeEv
000175a8 S __ZTv0_n28_N14ofVideoGrabber5closeEv.eh
         U __ZdlPv
         U __Znwm
         U ___cxa_atexit
         U ___cxa_begin_catch
         U ___cxa_end_catch
         U ___cxa_pure_virtual
         U ___cxa_rethrow
         U ___dso_handle
         U ___gxx_personality_v0

../../../libs/openFrameworksCompiled/lib/osx/openFrameworks.a(ofVideoPlayer.o):
0001f91c s EH_frame0
0001f984 s EH_frame1
0001e450 s GCC_except_table0
0001e484 s GCC_except_table1
0001e4b8 s GCC_except_table5
0001e5b0 s GCC_except_table58
0001e5d0 s GCC_except_table59
0001e548 s GCC_except_table6
0001e5f0 s GCC_except_table61
0001e610 s GCC_except_table62
0001e630 s GCC_except_table66
0001e650 s GCC_except_table67
0001e670 s GCC_except_table68
0001e690 s GCC_except_table69
0001e6b0 s GCC_except_table89
0001e6fc s GCC_except_table99
0001f030 s __GLOBAL__I_a
000204f0 s __GLOBAL__I_a.eh
         U __Unwind_Resume
0001e750 S __Z26ofGetGLTypeFromPixelFormat13ofPixelFormat
0001fa18 S __Z26ofGetGLTypeFromPixelFormat13ofPixelFormat.eh
         U __ZN10ofLogErrorC1ERKSs
0001ec60 S __ZN11ofBaseDraws11resetAnchorEv
000201d0 S __ZN11ofBaseDraws11resetAnchorEv.eh
0001ec50 S __ZN11ofBaseDraws14setAnchorPointEff
000201b4 S __ZN11ofBaseDraws14setAnchorPointEff.eh
0001ec40 S __ZN11ofBaseDraws16setAnchorPercentEff
00020198 S __ZN11ofBaseDraws16setAnchorPercentEff.eh
0001ea60 S __ZN11ofBaseDraws4drawERK11ofRectangle
000200a0 S __ZN11ofBaseDraws4drawERK11ofRectangle.eh
0001ea30 S __ZN11ofBaseDraws4drawERK7ofVec3f
00020084 S __ZN11ofBaseDraws4drawERK7ofVec3f.eh
0001eab0 S __ZN11ofBaseDraws4drawERK7ofVec3fff
000200bc S __ZN11ofBaseDraws4drawERK7ofVec3fff.eh
0001ed30 S __ZN11ofBaseVideoD0Ev
000202e8 S __ZN11ofBaseVideoD0Ev.eh
0001ed20 S __ZN11ofBaseVideoD1Ev
000202cc S __ZN11ofBaseVideoD1Ev.eh
0001ece0 S __ZN12ofBaseImage_IhED0Ev
00020278 S __ZN12ofBaseImage_IhED0Ev.eh
0001ecd0 S __ZN12ofBaseImage_IhED1Ev
0002025c S __ZN12ofBaseImage_IhED1Ev.eh
00000920 T __ZN13ofVideoPlayer10closeMovieEv
0001fb74 S __ZN13ofVideoPlayer10closeMovieEv.eh
00000b90 T __ZN13ofVideoPlayer10firstFrameEv
0001fd00 S __ZN13ofVideoPlayer10firstFrameEv.eh
000006b0 T __ZN13ofVideoPlayer10isFrameNewEv
0001fae4 S __ZN13ofVideoPlayer10isFrameNewEv.eh
00000ad0 T __ZN13ofVideoPlayer11getDurationEv
0001fc90 S __ZN13ofVideoPlayer11getDurationEv.eh
00000b00 T __ZN13ofVideoPlayer11getPositionEv
0001fcac S __ZN13ofVideoPlayer11getPositionEv.eh
00000e60 T __ZN13ofVideoPlayer11resetAnchorEv
0001fe58 S __ZN13ofVideoPlayer11resetAnchorEv.eh
00000a70 T __ZN13ofVideoPlayer11setPositionEf
0001fc58 S __ZN13ofVideoPlayer11setPositionEf.eh
00000a40 T __ZN13ofVideoPlayer12getLoopStateEv
0001fc3c S __ZN13ofVideoPlayer12getLoopStateEv.eh
00000610 T __ZN13ofVideoPlayer12getPixelsRefEv
0001fa74 S __ZN13ofVideoPlayer12getPixelsRefEv.eh
00000a10 T __ZN13ofVideoPlayer12setLoopStateE10ofLoopType
0001fc20 S __ZN13ofVideoPlayer12setLoopStateE10ofLoopType.eh
00000bd0 T __ZN13ofVideoPlayer13previousFrameEv
0001fd38 S __ZN13ofVideoPlayer13previousFrameEv.eh
00000c80 T __ZN13ofVideoPlayer13setUseTextureEb
0001fda8 S __ZN13ofVideoPlayer13setUseTextureEb.eh
00000b60 T __ZN13ofVideoPlayer14getIsMovieDoneEv
0001fce4 S __ZN13ofVideoPlayer14getIsMovieDoneEv.eh
00000de0 T __ZN13ofVideoPlayer14setAnchorPointEff
0001fe20 S __ZN13ofVideoPlayer14setAnchorPointEff.eh
000002e0 T __ZN13ofVideoPlayer14setPixelFormatE13ofPixelFormat
0001f9d8 S __ZN13ofVideoPlayer14setPixelFormatE13ofPixelFormat.eh
00000b30 T __ZN13ofVideoPlayer15getCurrentFrameEv
0001fcc8 S __ZN13ofVideoPlayer15getCurrentFrameEv.eh
00000d60 T __ZN13ofVideoPlayer16setAnchorPercentEff
0001fde8 S __ZN13ofVideoPlayer16setAnchorPercentEff.eh
00000ff0 T __ZN13ofVideoPlayer17getTotalNumFramesEv
0001ff00 S __ZN13ofVideoPlayer17getTotalNumFramesEv.eh
00000670 T __ZN13ofVideoPlayer19getTextureReferenceEv
0001faac S __ZN13ofVideoPlayer19getTextureReferenceEv.eh
00000f70 T __ZN13ofVideoPlayer4drawEff
0001fec8 S __ZN13ofVideoPlayer4drawEff.eh
00000ec0 T __ZN13ofVideoPlayer4drawEffff
0001fe90 S __ZN13ofVideoPlayer4drawEffff.eh
000009a0 T __ZN13ofVideoPlayer4playEv
0001fbcc S __ZN13ofVideoPlayer4playEv.eh
000009c0 T __ZN13ofVideoPlayer4stopEv
0001fbe8 S __ZN13ofVideoPlayer4stopEv.eh
00000930 T __ZN13ofVideoPlayer5closeEv
0001fb90 S __ZN13ofVideoPlayer5closeEv.eh
00000710 T __ZN13ofVideoPlayer6updateEv
0001fb1c S __ZN13ofVideoPlayer6updateEv.eh
00000c20 T __ZN13ofVideoPlayer8getSpeedEv
0001fd70 S __ZN13ofVideoPlayer8getSpeedEv.eh
00001020 T __ZN13ofVideoPlayer8getWidthEv
0001ff1c S __ZN13ofVideoPlayer8getWidthEv.eh
00001150 T __ZN13ofVideoPlayer8isLoadedEv
0001ffa8 S __ZN13ofVideoPlayer8isLoadedEv.eh
00001120 T __ZN13ofVideoPlayer8isPausedEv
0001ff8c S __ZN13ofVideoPlayer8isPausedEv.eh
00000aa0 T __ZN13ofVideoPlayer8setFrameEi
0001fc74 S __ZN13ofVideoPlayer8setFrameEi.eh
00000bf0 T __ZN13ofVideoPlayer8setSpeedEf
0001fd54 S __ZN13ofVideoPlayer8setSpeedEf.eh
000010a0 T __ZN13ofVideoPlayer9getHeightEv
0001ff54 S __ZN13ofVideoPlayer9getHeightEv.eh
000005b0 T __ZN13ofVideoPlayer9getPixelsEv
0001fa3c S __ZN13ofVideoPlayer9getPixelsEv.eh
000002c0 T __ZN13ofVideoPlayer9getPlayerEv
0001f9bc S __ZN13ofVideoPlayer9getPlayerEv.eh
00000910 T __ZN13ofVideoPlayer9idleMovieEv
0001fb58 S __ZN13ofVideoPlayer9idleMovieEv.eh
00001180 T __ZN13ofVideoPlayer9isPlayingEv
0001ffc4 S __ZN13ofVideoPlayer9isPlayingEv.eh
000002f0 T __ZN13ofVideoPlayer9loadMovieESs
0001f9f4 S __ZN13ofVideoPlayer9loadMovieESs.eh
00000bb0 T __ZN13ofVideoPlayer9nextFrameEv
0001fd1c S __ZN13ofVideoPlayer9nextFrameEv.eh
00000c50 T __ZN13ofVideoPlayer9setPausedEb
0001fd8c S __ZN13ofVideoPlayer9setPausedEb.eh
00000250 T __ZN13ofVideoPlayer9setPlayerE5ofPtrI17ofBaseVideoPlayerE
0001f99c S __ZN13ofVideoPlayer9setPlayerE5ofPtrI17ofBaseVideoPlayerE.eh
000009e0 T __ZN13ofVideoPlayer9setVolumeEi
0001fc04 S __ZN13ofVideoPlayer9setVolumeEi.eh
00000000 T __ZN13ofVideoPlayerC1Ev
0001f93c S __ZN13ofVideoPlayerC1Ev.eh
00000110 T __ZN13ofVideoPlayerC2Ev
0001f960 S __ZN13ofVideoPlayerC2Ev.eh
0001e950 S __ZN13ofVideoPlayerD0Ev
00020000 S __ZN13ofVideoPlayerD0Ev.eh
0001e920 S __ZN13ofVideoPlayerD1Ev
0001ffe0 S __ZN13ofVideoPlayerD1Ev.eh
0001eee0 S __ZN13ofVideoPlayerD2Ev
0002045c S __ZN13ofVideoPlayerD2Ev.eh
0001eff0 S __ZN15ofAbstractImageD0Ev
0002049c S __ZN15ofAbstractImageD0Ev.eh
0001efe0 S __ZN15ofAbstractImageD1Ev
00020480 S __ZN15ofAbstractImageD1Ev.eh
0001ec30 S __ZN16ofBaseVideoDrawsD0Ev
0002017c S __ZN16ofBaseVideoDrawsD0Ev.eh
0001ec20 S __ZN16ofBaseVideoDrawsD1Ev
00020160 S __ZN16ofBaseVideoDrawsD1Ev.eh
         U __ZN17ofBaseVideoPlayer10firstFrameEv
0001e990 S __ZN17ofBaseVideoPlayer10getTextureEv
00020024 S __ZN17ofBaseVideoPlayer10getTextureEv.eh
         U __ZN17ofBaseVideoPlayer11getDurationEv
         U __ZN17ofBaseVideoPlayer11getPositionEv
         U __ZN17ofBaseVideoPlayer11setPositionEf
         U __ZN17ofBaseVideoPlayer12getLoopStateEv
         U __ZN17ofBaseVideoPlayer12setLoopStateE10ofLoopType
         U __ZN17ofBaseVideoPlayer13previousFrameEv
         U __ZN17ofBaseVideoPlayer14getIsMovieDoneEv
         U __ZN17ofBaseVideoPlayer14setPixelFormatE13ofPixelFormat
         U __ZN17ofBaseVideoPlayer15getCurrentFrameEv
         U __ZN17ofBaseVideoPlayer17getTotalNumFramesEv
         U __ZN17ofBaseVideoPlayer8getSpeedEv
         U __ZN17ofBaseVideoPlayer8setFrameEi
         U __ZN17ofBaseVideoPlayer8setSpeedEf
         U __ZN17ofBaseVideoPlayer9nextFrameEv
         U __ZN17ofBaseVideoPlayer9setPausedEb
         U __ZN17ofBaseVideoPlayer9setVolumeEi
         U __ZN17ofBaseVideoPlayerD0Ev
         U __ZN17ofBaseVideoPlayerD1Ev
         U __ZN17ofBaseVideoPlayerD2Ev
         U __ZN17ofQuickTimePlayerC1Ev
         U __ZN5ofLog7paddingE
         U __ZN5ofLogD2Ev
         U __ZN9ofTexture10bAllocatedEv
         U __ZN9ofTexture11isAllocatedEv
         U __ZN9ofTexture5clearEv
         U __ZN9ofTexture8loadDataEPKhiii
         U __ZN9ofTextureC1Ev
         U __ZN9ofTextureD1Ev
         U __ZNSolsEi
         U __ZNSs4_Rep10_M_destroyERKSaIcE
         U __ZNSs4_Rep20_S_empty_rep_storageE
         U __ZNSsC1EPKcRKSaIcE
         U __ZNSsC1ERKSs
0001ed70 S __ZNSt3tr114__shared_countILN9__gnu_cxx12_Lock_policyE2EEC2IP17ofQuickTimePlayerNS_11_Sp_deleterIS5_EEEET_T0_
0002033c S __ZNSt3tr114__shared_countILN9__gnu_cxx12_Lock_policyE2EEC2IP17ofQuickTimePlayerNS_11_Sp_deleterIS5_EEEET_T0_.eh
0001ee30 S __ZNSt3tr116_Sp_counted_baseILN9__gnu_cxx12_Lock_policyE2EE10_M_destroyEv
000203b4 S __ZNSt3tr116_Sp_counted_baseILN9__gnu_cxx12_Lock_policyE2EE10_M_destroyEv.eh
0001ee10 S __ZNSt3tr121_Sp_counted_base_implIP17ofQuickTimePlayerNS_11_Sp_deleterIS1_EELN9__gnu_cxx12_Lock_policyE2EE10_M_disposeEv
00020398 S __ZNSt3tr121_Sp_counted_base_implIP17ofQuickTimePlayerNS_11_Sp_deleterIS1_EELN9__gnu_cxx12_Lock_policyE2EE10_M_disposeEv.eh
0001ee50 S __ZNSt3tr121_Sp_counted_base_implIP17ofQuickTimePlayerNS_11_Sp_deleterIS1_EELN9__gnu_cxx12_Lock_policyE2EE14_M_get_deleterERKSt9type_info
000203d0 S __ZNSt3tr121_Sp_counted_base_implIP17ofQuickTimePlayerNS_11_Sp_deleterIS1_EELN9__gnu_cxx12_Lock_policyE2EE14_M_get_deleterERKSt9type_info.eh
0001ee00 S __ZNSt3tr121_Sp_counted_base_implIP17ofQuickTimePlayerNS_11_Sp_deleterIS1_EELN9__gnu_cxx12_Lock_policyE2EED0Ev
0002037c S __ZNSt3tr121_Sp_counted_base_implIP17ofQuickTimePlayerNS_11_Sp_deleterIS1_EELN9__gnu_cxx12_Lock_policyE2EED0Ev.eh
0001edf0 S __ZNSt3tr121_Sp_counted_base_implIP17ofQuickTimePlayerNS_11_Sp_deleterIS1_EELN9__gnu_cxx12_Lock_policyE2EED1Ev
00020360 S __ZNSt3tr121_Sp_counted_base_implIP17ofQuickTimePlayerNS_11_Sp_deleterIS1_EELN9__gnu_cxx12_Lock_policyE2EED1Ev.eh
         U __ZNSt8ios_base4InitC1Ev
         U __ZNSt8ios_base4InitD1Ev
         U __ZSt16__ostream_insertIcSt11char_traitsIcEERSt13basic_ostreamIT_T0_ES6_PKS3_i
         U __ZSt9terminatev
00020894 b __ZStL8__ioinit
0001f3e0 S __ZTC13ofVideoPlayer0_11ofBaseVideo
0001f210 S __ZTC13ofVideoPlayer0_17ofBaseVideoPlayer
0001f380 S __ZTC13ofVideoPlayer4_12ofBaseImage_IhE
0001f2e0 S __ZTC13ofVideoPlayer4_16ofBaseVideoDraws
0001f690 S __ZTI11ofBaseDraws
0001f670 S __ZTI11ofBaseVideo
0001f6c0 S __ZTI12ofBaseImage_IhE
0001f668 S __ZTI13ofBaseUpdates
0001f1f0 S __ZTI13ofVideoPlayer
0001f6a0 S __ZTI15ofAbstractImage
0001f658 S __ZTI16ofBaseHasPixels_IhE
0001f698 S __ZTI16ofBaseHasTexture
0001f6e0 S __ZTI16ofBaseVideoDraws
         U __ZTI17ofBaseVideoPlayer
0001f650 S __ZTI19ofAbstractHasPixels
0001f720 S __ZTINSt3tr111_Mutex_baseILN9__gnu_cxx12_Lock_policyE2EEE
0001f728 S __ZTINSt3tr116_Sp_counted_baseILN9__gnu_cxx12_Lock_policyE2EEE
0001f738 S __ZTINSt3tr121_Sp_counted_base_implIP17ofQuickTimePlayerNS_11_Sp_deleterIS1_EELN9__gnu_cxx12_Lock_policyE2EEE
0001f502 S __ZTS11ofBaseDraws
0001f450 S __ZTS11ofBaseVideo
0001f4d0 S __ZTS12ofBaseImage_IhE
0001f496 S __ZTS13ofBaseUpdates
0001f434 S __ZTS13ofVideoPlayer
0001f4f0 S __ZTS15ofAbstractImage
0001f460 S __ZTS16ofBaseHasPixels_IhE
0001f510 S __ZTS16ofBaseHasTexture
0001f4b0 S __ZTS16ofBaseVideoDraws
0001f480 S __ZTS19ofAbstractHasPixels
0001f5e0 S __ZTSNSt3tr111_Mutex_baseILN9__gnu_cxx12_Lock_policyE2EEE
0001f620 S __ZTSNSt3tr111_Sp_deleterI17ofQuickTimePlayerEE
0001f5a0 S __ZTSNSt3tr116_Sp_counted_baseILN9__gnu_cxx12_Lock_policyE2EEE
0001f530 S __ZTSNSt3tr121_Sp_counted_base_implIP17ofQuickTimePlayerNS_11_Sp_deleterIS1_EELN9__gnu_cxx12_Lock_policyE2EEE
0001f070 S __ZTT13ofVideoPlayer
0001f750 S __ZTV12ofBaseImage_IhE
0001f0b0 S __ZTV13ofVideoPlayer
0001f880 S __ZTV15ofAbstractImage
0001f7d0 S __ZTV16ofBaseVideoDraws
         U __ZTVN10__cxxabiv117__class_type_infoE
         U __ZTVN10__cxxabiv120__si_class_type_infoE
         U __ZTVN10__cxxabiv121__vmi_class_type_infoE
0001f700 S __ZTVNSt3tr121_Sp_counted_base_implIP17ofQuickTimePlayerNS_11_Sp_deleterIS1_EELN9__gnu_cxx12_Lock_policyE2EEE
0001ee90 S __ZThn4_N12ofBaseImage_IhED0Ev
00020408 S __ZThn4_N12ofBaseImage_IhED0Ev.eh
0001ee80 S __ZThn4_N12ofBaseImage_IhED1Ev
000203ec S __ZThn4_N12ofBaseImage_IhED1Ev.eh
00000e90 T __ZThn4_N13ofVideoPlayer11resetAnchorEv
0001fe74 S __ZThn4_N13ofVideoPlayer11resetAnchorEv.eh
00000e20 T __ZThn4_N13ofVideoPlayer14setAnchorPointEff
0001fe3c S __ZThn4_N13ofVideoPlayer14setAnchorPointEff.eh
00000da0 T __ZThn4_N13ofVideoPlayer16setAnchorPercentEff
0001fe04 S __ZThn4_N13ofVideoPlayer16setAnchorPercentEff.eh
00000fb0 T __ZThn4_N13ofVideoPlayer4drawEff
0001fee4 S __ZThn4_N13ofVideoPlayer4drawEff.eh
00000f10 T __ZThn4_N13ofVideoPlayer4drawEffff
0001feac S __ZThn4_N13ofVideoPlayer4drawEffff.eh
00001060 T __ZThn4_N13ofVideoPlayer8getWidthEv
0001ff38 S __ZThn4_N13ofVideoPlayer8getWidthEv.eh
000010e0 T __ZThn4_N13ofVideoPlayer9getHeightEv
0001ff70 S __ZThn4_N13ofVideoPlayer9getHeightEv.eh
0001e9e0 S __ZThn4_N13ofVideoPlayerD0Ev
00020060 S __ZThn4_N13ofVideoPlayerD0Ev.eh
0001e9a0 S __ZThn4_N13ofVideoPlayerD1Ev
00020040 S __ZThn4_N13ofVideoPlayerD1Ev.eh
0001f010 S __ZThn4_N15ofAbstractImageD0Ev
000204d4 S __ZThn4_N15ofAbstractImageD0Ev.eh
0001f000 S __ZThn4_N15ofAbstractImageD1Ev
000204b8 S __ZThn4_N15ofAbstractImageD1Ev.eh
0001eeb0 S __ZThn4_N16ofBaseVideoDrawsD0Ev
00020424 S __ZThn4_N16ofBaseVideoDrawsD0Ev.eh
0001eed0 S __ZThn4_N16ofBaseVideoDrawsD1Ev
00020440 S __ZThn4_N16ofBaseVideoDrawsD1Ev.eh
00000cf0 T __ZThn8_N13ofVideoPlayer13setUseTextureEb
0001fdc8 S __ZThn8_N13ofVideoPlayer13setUseTextureEb.eh
00000690 T __ZThn8_N13ofVideoPlayer19getTextureReferenceEv
0001fac8 S __ZThn8_N13ofVideoPlayer19getTextureReferenceEv.eh
0001eb40 S __ZThn8_N13ofVideoPlayerD0Ev
000200f8 S __ZThn8_N13ofVideoPlayerD0Ev.eh
0001eb00 S __ZThn8_N13ofVideoPlayerD1Ev
000200d8 S __ZThn8_N13ofVideoPlayerD1Ev.eh
0001ed50 S __ZTv0_n12_N11ofBaseVideoD0Ev
00020320 S __ZTv0_n12_N11ofBaseVideoD0Ev.eh
0001ed40 S __ZTv0_n12_N11ofBaseVideoD1Ev
00020304 S __ZTv0_n12_N11ofBaseVideoD1Ev.eh
0001ed00 S __ZTv0_n12_N12ofBaseImage_IhED0Ev
000202b0 S __ZTv0_n12_N12ofBaseImage_IhED0Ev.eh
0001ecf0 S __ZTv0_n12_N12ofBaseImage_IhED1Ev
00020294 S __ZTv0_n12_N12ofBaseImage_IhED1Ev.eh
0001ebd0 S __ZTv0_n12_N13ofVideoPlayerD0Ev
0002013c S __ZTv0_n12_N13ofVideoPlayerD0Ev.eh
0001eb90 S __ZTv0_n12_N13ofVideoPlayerD1Ev
0002011c S __ZTv0_n12_N13ofVideoPlayerD1Ev.eh
0001ecb0 S __ZTv0_n12_N16ofBaseVideoDrawsD0Ev
00020240 S __ZTv0_n12_N16ofBaseVideoDrawsD0Ev.eh
0001eca0 S __ZTv0_n12_N16ofBaseVideoDrawsD1Ev
00020224 S __ZTv0_n12_N16ofBaseVideoDrawsD1Ev.eh
         U __ZTv0_n12_N17ofBaseVideoPlayerD0Ev
         U __ZTv0_n12_N17ofBaseVideoPlayerD1Ev
000005e0 T __ZTv0_n16_N13ofVideoPlayer9getPixelsEv
0001fa58 S __ZTv0_n16_N13ofVideoPlayer9getPixelsEv.eh
0001ec80 S __ZTv0_n16_N16ofBaseVideoDrawsD0Ev
00020208 S __ZTv0_n16_N16ofBaseVideoDrawsD0Ev.eh
0001ec70 S __ZTv0_n16_N16ofBaseVideoDrawsD1Ev
000201ec S __ZTv0_n16_N16ofBaseVideoDrawsD1Ev.eh
00000640 T __ZTv0_n20_N13ofVideoPlayer12getPixelsRefEv
0001fa90 S __ZTv0_n20_N13ofVideoPlayer12getPixelsRefEv.eh
000008f0 T __ZTv0_n20_N13ofVideoPlayer6updateEv
0001fb3c S __ZTv0_n20_N13ofVideoPlayer6updateEv.eh
000006e0 T __ZTv0_n24_N13ofVideoPlayer10isFrameNewEv
0001fb00 S __ZTv0_n24_N13ofVideoPlayer10isFrameNewEv.eh
00000960 T __ZTv0_n28_N13ofVideoPlayer5closeEv
0001fbac S __ZTv0_n28_N13ofVideoPlayer5closeEv.eh
         U __ZdlPv
         U __Znwm
         U ___cxa_atexit
         U ___cxa_begin_catch
         U ___cxa_end_catch
         U ___cxa_pure_virtual
         U ___cxa_rethrow
         U ___dso_handle
         U ___gxx_personality_v0

../../../libs/openFrameworksCompiled/lib/osx/openFrameworks.a(ofEvents.o):
000e9514 s EH_frame0
000e9558 s EH_frame1
000da27c s GCC_except_table0
000db864 s GCC_except_table100
000db890 s GCC_except_table101
000db8bc s GCC_except_table102
000db9c4 s GCC_except_table103
000dba20 s GCC_except_table104
000dba40 s GCC_except_table105
000dba6c s GCC_except_table106
000dbac8 s GCC_except_table109
000dbb4c s GCC_except_table110
000dbb6c s GCC_except_table111
000dbb8c s GCC_except_table112
000dbbac s GCC_except_table113
000dbbd8 s GCC_except_table114
000dbc6c s GCC_except_table115
000dbcb4 s GCC_except_table116
000dbcfc s GCC_except_table118
000dbd28 s GCC_except_table119
000dbd54 s GCC_except_table120
000dbe5c s GCC_except_table121
000dbeb8 s GCC_except_table122
000dbed8 s GCC_except_table123
000dbf04 s GCC_except_table124
000dbf60 s GCC_except_table126
000dbfe4 s GCC_except_table127
000dc004 s GCC_except_table128
000dc024 s GCC_except_table129
000dc044 s GCC_except_table130
000dc070 s GCC_except_table131
000dc104 s GCC_except_table132
000dc14c s GCC_except_table133
000dc194 s GCC_except_table135
000dc1c0 s GCC_except_table136
000dc1ec s GCC_except_table137
000dc2f4 s GCC_except_table138
000dc350 s GCC_except_table139
000dc370 s GCC_except_table140
000dc39c s GCC_except_table141
000dc3f8 s GCC_except_table142
000dc424 s GCC_except_table143
000dc470 s GCC_except_table144
000dc5a8 s GCC_except_table153
000dc5f8 s GCC_except_table155
000dc618 s GCC_except_table156
000dc668 s GCC_except_table158
000dc688 s GCC_except_table159
000dc6d8 s GCC_except_table161
000dc6f8 s GCC_except_table162
000dc748 s GCC_except_table164
000dc768 s GCC_except_table165
000dc7b8 s GCC_except_table167
000dc7d8 s GCC_except_table168
000dc828 s GCC_except_table169
000dc848 s GCC_except_table171
000dc868 s GCC_except_table172
000dc888 s GCC_except_table173
000dc8a8 s GCC_except_table174
000dc8d4 s GCC_except_table175
000dc968 s GCC_except_table176
000dc9b0 s GCC_except_table177
000dc9f8 s GCC_except_table179
000dca24 s GCC_except_table180
000dca50 s GCC_except_table181
000dcb58 s GCC_except_table182
000dcbb4 s GCC_except_table183
000dcc04 s GCC_except_table184
000dcc24 s GCC_except_table186
000dcc44 s GCC_except_table187
000dcc64 s GCC_except_table188
000dcc84 s GCC_except_table189
000dccb0 s GCC_except_table190
000dcd44 s GCC_except_table191
000dcd8c s GCC_except_table192
000dcdd4 s GCC_except_table194
000dce00 s GCC_except_table195
000dce2c s GCC_except_table196
000dcf34 s GCC_except_table197
000dcf90 s GCC_except_table198
000dcfe0 s GCC_except_table200
000dd000 s GCC_except_table202
000dd020 s GCC_except_table203
000dd070 s GCC_except_table205
000dd090 s GCC_except_table206
000dd0d4 s GCC_except_table207
000dd18c s GCC_except_table208
000dd1b8 s GCC_except_table209
000da2b8 s GCC_except_table21
000dd1d8 s GCC_except_table210
000dd21c s GCC_except_table211
000dd2d4 s GCC_except_table212
000dd300 s GCC_except_table213
000dd320 s GCC_except_table214
000dd364 s GCC_except_table215
000dd3d8 s GCC_except_table216
000dd3f8 s GCC_except_table217
000dd424 s GCC_except_table218
000dd444 s GCC_except_table219
000da2e4 s GCC_except_table22
000dd488 s GCC_except_table220
000dd4fc s GCC_except_table221
000dd51c s GCC_except_table222
000dd548 s GCC_except_table223
000dd568 s GCC_except_table224
000dd5ac s GCC_except_table225
000dd620 s GCC_except_table226
000dd64c s GCC_except_table227
000dd66c s GCC_except_table228
000dd6b0 s GCC_except_table229
000da310 s GCC_except_table23
000dd724 s GCC_except_table230
000dd750 s GCC_except_table231
000dd770 s GCC_except_table232
000dd7b4 s GCC_except_table233
000dd828 s GCC_except_table234
000dd854 s GCC_except_table235
000dd874 s GCC_except_table236
000dd8b8 s GCC_except_table237
000dd92c s GCC_except_table238
000dd958 s GCC_except_table239
000dd978 s GCC_except_table240
000dd9bc s GCC_except_table241
000dda30 s GCC_except_table242
000da358 s GCC_except_table25
000da3dc s GCC_except_table26
000da3fc s GCC_except_table27
000da41c s GCC_except_table28
000da43c s GCC_except_table29
000da468 s GCC_except_table30
000da4fc s GCC_except_table31
000da544 s GCC_except_table32
000da58c s GCC_except_table34
000da5b8 s GCC_except_table35
000da5e4 s GCC_except_table36
000da6ec s GCC_except_table37
000da748 s GCC_except_table38
000da784 s GCC_except_table39
000da7a4 s GCC_except_table40
000da7d0 s GCC_except_table41
000da82c s GCC_except_table42
000da868 s GCC_except_table43
000da8ec s GCC_except_table44
000da90c s GCC_except_table45
000da92c s GCC_except_table46
000da94c s GCC_except_table47
000da978 s GCC_except_table48
000daa0c s GCC_except_table49
000daa54 s GCC_except_table50
000daa9c s GCC_except_table52
000daac8 s GCC_except_table53
000daaf4 s GCC_except_table54
000dabfc s GCC_except_table55
000dac58 s GCC_except_table56
000dac78 s GCC_except_table57
000daca4 s GCC_except_table58
000dad00 s GCC_except_table59
000dad84 s GCC_except_table60
000dada4 s GCC_except_table61
000dadc4 s GCC_except_table62
000dade4 s GCC_except_table63
000dae10 s GCC_except_table64
000daea4 s GCC_except_table65
000daeec s GCC_except_table66
000daf34 s GCC_except_table68
000daf60 s GCC_except_table69
000daf8c s GCC_except_table70
000db094 s GCC_except_table71
000db0f0 s GCC_except_table72
000db110 s GCC_except_table73
000db13c s GCC_except_table74
000db198 s GCC_except_table75
000db21c s GCC_except_table76
000db23c s GCC_except_table77
000db25c s GCC_except_table78
000db27c s GCC_except_table79
000db2a8 s GCC_except_table80
000db33c s GCC_except_table81
000db384 s GCC_except_table82
000db3cc s GCC_except_table84
000db3f8 s GCC_except_table85
000db424 s GCC_except_table86
000db52c s GCC_except_table87
000db588 s GCC_except_table88
000db5a8 s GCC_except_table89
000db5d4 s GCC_except_table90
000db630 s GCC_except_table91
000db6b4 s GCC_except_table92
000db6d4 s GCC_except_table93
000db6f4 s GCC_except_table94
000db714 s GCC_except_table95
000db740 s GCC_except_table96
000db7d4 s GCC_except_table97
000db81c s GCC_except_table98
         U _OSAtomicAdd32
000e7d20 s __GLOBAL__I_a
000eb614 s __GLOBAL__I_a.eh
         U __Unwind_Resume
         U __Z11ofGetAppPtrv
00000180 T __Z11ofGetMouseXv
000e95cc S __Z11ofGetMouseXv.eh
000001a0 T __Z11ofGetMouseYv
000e95e8 S __Z11ofGetMouseYv.eh
00000320 T __Z12ofNotifyDrawv
000e96ac S __Z12ofNotifyDrawv.eh
00000760 T __Z12ofNotifyExitv
000e9788 S __Z12ofNotifyExitv.eh
00000270 T __Z13ofNotifySetupv
000e9674 S __Z13ofNotifySetupv.eh
00000950 T __Z13ofSendMessage9ofMessage
000e97e8 S __Z13ofSendMessage9ofMessage.eh
00000a20 T __Z13ofSendMessageSs
000e980c S __Z13ofSendMessageSs.eh
000002c0 T __Z14ofNotifyUpdatev
000e9690 S __Z14ofNotifyUpdatev.eh
00000100 T __Z15ofGetKeyPressedi
000e95ac S __Z15ofGetKeyPressedi.eh
00000080 T __Z17ofGetMousePressedi
000e958c S __Z17ofGetMousePressedi.eh
00000820 T __Z17ofNotifyDragEvent10ofDragInfo
000e97c4 S __Z17ofNotifyDragEvent10ofDragInfo.eh
00000370 T __Z18ofNotifyKeyPressedi
000e96c8 S __Z18ofNotifyKeyPressedi.eh
000006c0 T __Z18ofNotifyMouseMovedii
000e9768 S __Z18ofNotifyMouseMovedii.eh
000001c0 T __Z19ofGetPreviousMouseXv
000e9604 S __Z19ofGetPreviousMouseXv.eh
000001e0 T __Z19ofGetPreviousMouseYv
000e9620 S __Z19ofGetPreviousMouseYv.eh
00000400 T __Z19ofNotifyKeyReleasedi
000e96e8 S __Z19ofNotifyKeyReleasedi.eh
00000bb0 T __Z19ofNotifyWindowEntryi
000e9830 S __Z19ofNotifyWindowEntryi.eh
00000200 T __Z19ofSetEscapeQuitsAppb
000e963c S __Z19ofSetEscapeQuitsAppb.eh
         U __Z20ofGetCurrentRendererv
00000610 T __Z20ofNotifyMouseDraggediii
000e9748 S __Z20ofNotifyMouseDraggediii.eh
00000480 T __Z20ofNotifyMousePressediii
000e9708 S __Z20ofNotifyMousePressediii.eh
00000530 T __Z21ofNotifyMouseReleasediii
000e9728 S __Z21ofNotifyMouseReleasediii.eh
000007b0 T __Z21ofNotifyWindowResizedii
000e97a4 S __Z21ofNotifyWindowResizedii.eh
00000220 T __Z7exitAppv
000e9658 S __Z7exitAppv.eh
00000000 T __Z8ofEventsv
000e9534 S __Z8ofEventsv.eh
000ee1e0 b __ZGVZ8ofEventsvE6events
000ee200 b __ZL11pressedKeys
000ee218 b __ZL13currentMouseX
000ee21c b __ZL13currentMouseY
000ee220 b __ZL14previousMouseX
000ee224 b __ZL14previousMouseY
000ee1e8 b __ZL19pressedMouseButtons
000da278 d __ZL9bEscQuits
000e3e30 S __ZN12ofCoreEventsC2Ev
000ea8c8 S __ZN12ofCoreEventsC2Ev.eh
000e02b0 S __ZN4Poco12FIFOStrategyI10ofDragInfoNS_16AbstractDelegateIS1_EEED0Ev
000e9ed4 S __ZN4Poco12FIFOStrategyI10ofDragInfoNS_16AbstractDelegateIS1_EEED0Ev.eh
000df870 S __ZN4Poco12FIFOStrategyI10ofDragInfoNS_16AbstractDelegateIS1_EEED1Ev
000e9d2c S __ZN4Poco12FIFOStrategyI10ofDragInfoNS_16AbstractDelegateIS1_EEED1Ev.eh
000e3ad0 S __ZN4Poco12FIFOStrategyI11ofEventArgsNS_16AbstractDelegateIS1_EEED0Ev
000ea814 S __ZN4Poco12FIFOStrategyI11ofEventArgsNS_16AbstractDelegateIS1_EEED0Ev.eh
000e3090 S __ZN4Poco12FIFOStrategyI11ofEventArgsNS_16AbstractDelegateIS1_EEED1Ev
000ea66c S __ZN4Poco12FIFOStrategyI11ofEventArgsNS_16AbstractDelegateIS1_EEED1Ev.eh
000e2c60 S __ZN4Poco12FIFOStrategyI14ofKeyEventArgsNS_16AbstractDelegateIS1_EEED0Ev
000ea5bc S __ZN4Poco12FIFOStrategyI14ofKeyEventArgsNS_16AbstractDelegateIS1_EEED0Ev.eh
000e2220 S __ZN4Poco12FIFOStrategyI14ofKeyEventArgsNS_16AbstractDelegateIS1_EEED1Ev
000ea414 S __ZN4Poco12FIFOStrategyI14ofKeyEventArgsNS_16AbstractDelegateIS1_EEED1Ev.eh
000e6f80 S __ZN4Poco12FIFOStrategyI16ofAudioEventArgsNS_16AbstractDelegateIS1_EEED0Ev
000eb2fc S __ZN4Poco12FIFOStrategyI16ofAudioEventArgsNS_16AbstractDelegateIS1_EEED0Ev.eh
000e48c0 S __ZN4Poco12FIFOStrategyI16ofAudioEventArgsNS_16AbstractDelegateIS1_EEED1Ev
000eabe4 S __ZN4Poco12FIFOStrategyI16ofAudioEventArgsNS_16AbstractDelegateIS1_EEED1Ev.eh
000de6f0 S __ZN4Poco12FIFOStrategyI16ofEntryEventArgsNS_16AbstractDelegateIS1_EEED0Ev
000e9a40 S __ZN4Poco12FIFOStrategyI16ofEntryEventArgsNS_16AbstractDelegateIS1_EEED0Ev.eh
000ddbd0 S __ZN4Poco12FIFOStrategyI16ofEntryEventArgsNS_16AbstractDelegateIS1_EEED1Ev
000e9874 S __ZN4Poco12FIFOStrategyI16ofEntryEventArgsNS_16AbstractDelegateIS1_EEED1Ev.eh
000e1d90 S __ZN4Poco12FIFOStrategyI16ofMouseEventArgsNS_16AbstractDelegateIS1_EEED0Ev
000ea344 S __ZN4Poco12FIFOStrategyI16ofMouseEventArgsNS_16AbstractDelegateIS1_EEED0Ev.eh
000e1350 S __ZN4Poco12FIFOStrategyI16ofMouseEventArgsNS_16AbstractDelegateIS1_EEED1Ev
000ea19c S __ZN4Poco12FIFOStrategyI16ofMouseEventArgsNS_16AbstractDelegateIS1_EEED1Ev.eh
000e6c50 S __ZN4Poco12FIFOStrategyI16ofTouchEventArgsNS_16AbstractDelegateIS1_EEED0Ev
000eb248 S __ZN4Poco12FIFOStrategyI16ofTouchEventArgsNS_16AbstractDelegateIS1_EEED0Ev.eh
000e5420 S __ZN4Poco12FIFOStrategyI16ofTouchEventArgsNS_16AbstractDelegateIS1_EEED1Ev
000eadf0 S __ZN4Poco12FIFOStrategyI16ofTouchEventArgsNS_16AbstractDelegateIS1_EEED1Ev.eh
000e1020 S __ZN4Poco12FIFOStrategyI17ofResizeEventArgsNS_16AbstractDelegateIS1_EEED0Ev
000ea10c S __ZN4Poco12FIFOStrategyI17ofResizeEventArgsNS_16AbstractDelegateIS1_EEED0Ev.eh
000e05e0 S __ZN4Poco12FIFOStrategyI17ofResizeEventArgsNS_16AbstractDelegateIS1_EEED1Ev
000e9f64 S __ZN4Poco12FIFOStrategyI17ofResizeEventArgsNS_16AbstractDelegateIS1_EEED1Ev.eh
000df540 S __ZN4Poco12FIFOStrategyI9ofMessageNS_16AbstractDelegateIS1_EEED0Ev
000e9c9c S __ZN4Poco12FIFOStrategyI9ofMessageNS_16AbstractDelegateIS1_EEED0Ev.eh
000deb00 S __ZN4Poco12FIFOStrategyI9ofMessageNS_16AbstractDelegateIS1_EEED1Ev
000e9af4 S __ZN4Poco12FIFOStrategyI9ofMessageNS_16AbstractDelegateIS1_EEED1Ev.eh
000e6210 S __ZN4Poco13AbstractEventI10ofDragInfoNS_12FIFOStrategyIS1_NS_16AbstractDelegateIS1_EEEES4_NS_9FastMutexEE16executeAsyncImplERKNS7_17NotifyAsyncParamsE
000eb104 S __ZN4Poco13AbstractEventI10ofDragInfoNS_12FIFOStrategyIS1_NS_16AbstractDelegateIS1_EEEES4_NS_9FastMutexEE16executeAsyncImplERKNS7_17NotifyAsyncParamsE.eh
000df720 S __ZN4Poco13AbstractEventI10ofDragInfoNS_12FIFOStrategyIS1_NS_16AbstractDelegateIS1_EEEES4_NS_9FastMutexEE6notifyEPKvRS1_
000e9d08 S __ZN4Poco13AbstractEventI10ofDragInfoNS_12FIFOStrategyIS1_NS_16AbstractDelegateIS1_EEEES4_NS_9FastMutexEE6notifyEPKvRS1_.eh
000e6120 S __ZN4Poco13AbstractEventI10ofDragInfoNS_12FIFOStrategyIS1_NS_16AbstractDelegateIS1_EEEES4_NS_9FastMutexEEC2Ev
000eb0e0 S __ZN4Poco13AbstractEventI10ofDragInfoNS_12FIFOStrategyIS1_NS_16AbstractDelegateIS1_EEEES4_NS_9FastMutexEEC2Ev.eh
000e60f0 S __ZN4Poco13AbstractEventI10ofDragInfoNS_12FIFOStrategyIS1_NS_16AbstractDelegateIS1_EEEES4_NS_9FastMutexEED0Ev
000eb0bc S __ZN4Poco13AbstractEventI10ofDragInfoNS_12FIFOStrategyIS1_NS_16AbstractDelegateIS1_EEEES4_NS_9FastMutexEED0Ev.eh
000e60e0 S __ZN4Poco13AbstractEventI10ofDragInfoNS_12FIFOStrategyIS1_NS_16AbstractDelegateIS1_EEEES4_NS_9FastMutexEED1Ev
000eb0a0 S __ZN4Poco13AbstractEventI10ofDragInfoNS_12FIFOStrategyIS1_NS_16AbstractDelegateIS1_EEEES4_NS_9FastMutexEED1Ev.eh
000e6000 S __ZN4Poco13AbstractEventI10ofDragInfoNS_12FIFOStrategyIS1_NS_16AbstractDelegateIS1_EEEES4_NS_9FastMutexEED2Ev
000eb07c S __ZN4Poco13AbstractEventI10ofDragInfoNS_12FIFOStrategyIS1_NS_16AbstractDelegateIS1_EEEES4_NS_9FastMutexEED2Ev.eh
000e7bd0 S __ZN4Poco13AbstractEventI11ofEventArgsNS_12FIFOStrategyIS1_NS_16AbstractDelegateIS1_EEEES4_NS_9FastMutexEE16executeAsyncImplERKNS7_17NotifyAsyncParamsE
000eb5cc S __ZN4Poco13AbstractEventI11ofEventArgsNS_12FIFOStrategyIS1_NS_16AbstractDelegateIS1_EEEES4_NS_9FastMutexEE16executeAsyncImplERKNS7_17NotifyAsyncParamsE.eh
000e2f40 S __ZN4Poco13AbstractEventI11ofEventArgsNS_12FIFOStrategyIS1_NS_16AbstractDelegateIS1_EEEES4_NS_9FastMutexEE6notifyEPKvRS1_
000ea648 S __ZN4Poco13AbstractEventI11ofEventArgsNS_12FIFOStrategyIS1_NS_16AbstractDelegateIS1_EEEES4_NS_9FastMutexEE6notifyEPKvRS1_.eh
000e7ae0 S __ZN4Poco13AbstractEventI11ofEventArgsNS_12FIFOStrategyIS1_NS_16AbstractDelegateIS1_EEEES4_NS_9FastMutexEEC2Ev
000eb5a8 S __ZN4Poco13AbstractEventI11ofEventArgsNS_12FIFOStrategyIS1_NS_16AbstractDelegateIS1_EEEES4_NS_9FastMutexEEC2Ev.eh
000e4330 S __ZN4Poco13AbstractEventI11ofEventArgsNS_12FIFOStrategyIS1_NS_16AbstractDelegateIS1_EEEES4_NS_9FastMutexEED0Ev
000eaa0c S __ZN4Poco13AbstractEventI11ofEventArgsNS_12FIFOStrategyIS1_NS_16AbstractDelegateIS1_EEEES4_NS_9FastMutexEED0Ev.eh
000e4320 S __ZN4Poco13AbstractEventI11ofEventArgsNS_12FIFOStrategyIS1_NS_16AbstractDelegateIS1_EEEES4_NS_9FastMutexEED1Ev
000ea9f0 S __ZN4Poco13AbstractEventI11ofEventArgsNS_12FIFOStrategyIS1_NS_16AbstractDelegateIS1_EEEES4_NS_9FastMutexEED1Ev.eh
000e4240 S __ZN4Poco13AbstractEventI11ofEventArgsNS_12FIFOStrategyIS1_NS_16AbstractDelegateIS1_EEEES4_NS_9FastMutexEED2Ev
000ea9cc S __ZN4Poco13AbstractEventI11ofEventArgsNS_12FIFOStrategyIS1_NS_16AbstractDelegateIS1_EEEES4_NS_9FastMutexEED2Ev.eh
000e7440 S __ZN4Poco13AbstractEventI14ofKeyEventArgsNS_12FIFOStrategyIS1_NS_16AbstractDelegateIS1_EEEES4_NS_9FastMutexEE16executeAsyncImplERKNS7_17NotifyAsyncParamsE
000eb41c S __ZN4Poco13AbstractEventI14ofKeyEventArgsNS_12FIFOStrategyIS1_NS_16AbstractDelegateIS1_EEEES4_NS_9FastMutexEE16executeAsyncImplERKNS7_17NotifyAsyncParamsE.eh
000e20d0 S __ZN4Poco13AbstractEventI14ofKeyEventArgsNS_12FIFOStrategyIS1_NS_16AbstractDelegateIS1_EEEES4_NS_9FastMutexEE6notifyEPKvRS1_
000ea3f0 S __ZN4Poco13AbstractEventI14ofKeyEventArgsNS_12FIFOStrategyIS1_NS_16AbstractDelegateIS1_EEEES4_NS_9FastMutexEE6notifyEPKvRS1_.eh
000e7350 S __ZN4Poco13AbstractEventI14ofKeyEventArgsNS_12FIFOStrategyIS1_NS_16AbstractDelegateIS1_EEEES4_NS_9FastMutexEEC2Ev
000eb3f8 S __ZN4Poco13AbstractEventI14ofKeyEventArgsNS_12FIFOStrategyIS1_NS_16AbstractDelegateIS1_EEEES4_NS_9FastMutexEEC2Ev.eh
000e4690 S __ZN4Poco13AbstractEventI14ofKeyEventArgsNS_12FIFOStrategyIS1_NS_16AbstractDelegateIS1_EEEES4_NS_9FastMutexEED0Ev
000eab38 S __ZN4Poco13AbstractEventI14ofKeyEventArgsNS_12FIFOStrategyIS1_NS_16AbstractDelegateIS1_EEEES4_NS_9FastMutexEED0Ev.eh
000e4680 S __ZN4Poco13AbstractEventI14ofKeyEventArgsNS_12FIFOStrategyIS1_NS_16AbstractDelegateIS1_EEEES4_NS_9FastMutexEED1Ev
000eab1c S __ZN4Poco13AbstractEventI14ofKeyEventArgsNS_12FIFOStrategyIS1_NS_16AbstractDelegateIS1_EEEES4_NS_9FastMutexEED1Ev.eh
000e45a0 S __ZN4Poco13AbstractEventI14ofKeyEventArgsNS_12FIFOStrategyIS1_NS_16AbstractDelegateIS1_EEEES4_NS_9FastMutexEED2Ev
000eaaf8 S __ZN4Poco13AbstractEventI14ofKeyEventArgsNS_12FIFOStrategyIS1_NS_16AbstractDelegateIS1_EEEES4_NS_9FastMutexEED2Ev.eh
000e6e60 S __ZN4Poco13AbstractEventI16ofAudioEventArgsNS_12FIFOStrategyIS1_NS_16AbstractDelegateIS1_EEEES4_NS_9FastMutexEE16executeAsyncImplERKNS7_17NotifyAsyncParamsE
000eb2d8 S __ZN4Poco13AbstractEventI16ofAudioEventArgsNS_12FIFOStrategyIS1_NS_16AbstractDelegateIS1_EEEES4_NS_9FastMutexEE16executeAsyncImplERKNS7_17NotifyAsyncParamsE.eh
000e6d70 S __ZN4Poco13AbstractEventI16ofAudioEventArgsNS_12FIFOStrategyIS1_NS_16AbstractDelegateIS1_EEEES4_NS_9FastMutexEEC2Ev
000eb2b4 S __ZN4Poco13AbstractEventI16ofAudioEventArgsNS_12FIFOStrategyIS1_NS_16AbstractDelegateIS1_EEEES4_NS_9FastMutexEEC2Ev.eh
000e4940 S __ZN4Poco13AbstractEventI16ofAudioEventArgsNS_12FIFOStrategyIS1_NS_16AbstractDelegateIS1_EEEES4_NS_9FastMutexEED0Ev
000eac24 S __ZN4Poco13AbstractEventI16ofAudioEventArgsNS_12FIFOStrategyIS1_NS_16AbstractDelegateIS1_EEEES4_NS_9FastMutexEED0Ev.eh
000e4930 S __ZN4Poco13AbstractEventI16ofAudioEventArgsNS_12FIFOStrategyIS1_NS_16AbstractDelegateIS1_EEEES4_NS_9FastMutexEED1Ev
000eac08 S __ZN4Poco13AbstractEventI16ofAudioEventArgsNS_12FIFOStrategyIS1_NS_16AbstractDelegateIS1_EEEES4_NS_9FastMutexEED1Ev.eh
000e47e0 S __ZN4Poco13AbstractEventI16ofAudioEventArgsNS_12FIFOStrategyIS1_NS_16AbstractDelegateIS1_EEEES4_NS_9FastMutexEED2Ev
000eabc0 S __ZN4Poco13AbstractEventI16ofAudioEventArgsNS_12FIFOStrategyIS1_NS_16AbstractDelegateIS1_EEEES4_NS_9FastMutexEED2Ev.eh
000e7950 S __ZN4Poco13AbstractEventI16ofEntryEventArgsNS_12FIFOStrategyIS1_NS_16AbstractDelegateIS1_EEEES4_NS_9FastMutexEE16executeAsyncImplERKNS7_17NotifyAsyncParamsE
000eb53c S __ZN4Poco13AbstractEventI16ofEntryEventArgsNS_12FIFOStrategyIS1_NS_16AbstractDelegateIS1_EEEES4_NS_9FastMutexEE16executeAsyncImplERKNS7_17NotifyAsyncParamsE.eh
000dda80 S __ZN4Poco13AbstractEventI16ofEntryEventArgsNS_12FIFOStrategyIS1_NS_16AbstractDelegateIS1_EEEES4_NS_9FastMutexEE6notifyEPKvRS1_
000e9850 S __ZN4Poco13AbstractEventI16ofEntryEventArgsNS_12FIFOStrategyIS1_NS_16AbstractDelegateIS1_EEEES4_NS_9FastMutexEE6notifyEPKvRS1_.eh
000e7860 S __ZN4Poco13AbstractEventI16ofEntryEventArgsNS_12FIFOStrategyIS1_NS_16AbstractDelegateIS1_EEEES4_NS_9FastMutexEEC2Ev
000eb518 S __ZN4Poco13AbstractEventI16ofEntryEventArgsNS_12FIFOStrategyIS1_NS_16AbstractDelegateIS1_EEEES4_NS_9FastMutexEEC2Ev.eh
000e4450 S __ZN4Poco13AbstractEventI16ofEntryEventArgsNS_12FIFOStrategyIS1_NS_16AbstractDelegateIS1_EEEES4_NS_9FastMutexEED0Ev
000eaa70 S __ZN4Poco13AbstractEventI16ofEntryEventArgsNS_12FIFOStrategyIS1_NS_16AbstractDelegateIS1_EEEES4_NS_9FastMutexEED0Ev.eh
000e4440 S __ZN4Poco13AbstractEventI16ofEntryEventArgsNS_12FIFOStrategyIS1_NS_16AbstractDelegateIS1_EEEES4_NS_9FastMutexEED1Ev
000eaa54 S __ZN4Poco13AbstractEventI16ofEntryEventArgsNS_12FIFOStrategyIS1_NS_16AbstractDelegateIS1_EEEES4_NS_9FastMutexEED1Ev.eh
000e4360 S __ZN4Poco13AbstractEventI16ofEntryEventArgsNS_12FIFOStrategyIS1_NS_16AbstractDelegateIS1_EEEES4_NS_9FastMutexEED2Ev
000eaa30 S __ZN4Poco13AbstractEventI16ofEntryEventArgsNS_12FIFOStrategyIS1_NS_16AbstractDelegateIS1_EEEES4_NS_9FastMutexEED2Ev.eh
000e7190 S __ZN4Poco13AbstractEventI16ofMouseEventArgsNS_12FIFOStrategyIS1_NS_16AbstractDelegateIS1_EEEES4_NS_9FastMutexEE16executeAsyncImplERKNS7_17NotifyAsyncParamsE
000eb38c S __ZN4Poco13AbstractEventI16ofMouseEventArgsNS_12FIFOStrategyIS1_NS_16AbstractDelegateIS1_EEEES4_NS_9FastMutexEE16executeAsyncImplERKNS7_17NotifyAsyncParamsE.eh
000e1200 S __ZN4Poco13AbstractEventI16ofMouseEventArgsNS_12FIFOStrategyIS1_NS_16AbstractDelegateIS1_EEEES4_NS_9FastMutexEE6notifyEPKvRS1_
000ea178 S __ZN4Poco13AbstractEventI16ofMouseEventArgsNS_12FIFOStrategyIS1_NS_16AbstractDelegateIS1_EEEES4_NS_9FastMutexEE6notifyEPKvRS1_.eh
000e70a0 S __ZN4Poco13AbstractEventI16ofMouseEventArgsNS_12FIFOStrategyIS1_NS_16AbstractDelegateIS1_EEEES4_NS_9FastMutexEEC2Ev
000eb368 S __ZN4Poco13AbstractEventI16ofMouseEventArgsNS_12FIFOStrategyIS1_NS_16AbstractDelegateIS1_EEEES4_NS_9FastMutexEEC2Ev.eh
000e47b0 S __ZN4Poco13AbstractEventI16ofMouseEventArgsNS_12FIFOStrategyIS1_NS_16AbstractDelegateIS1_EEEES4_NS_9FastMutexEED0Ev
000eab9c S __ZN4Poco13AbstractEventI16ofMouseEventArgsNS_12FIFOStrategyIS1_NS_16AbstractDelegateIS1_EEEES4_NS_9FastMutexEED0Ev.eh
000e47a0 S __ZN4Poco13AbstractEventI16ofMouseEventArgsNS_12FIFOStrategyIS1_NS_16AbstractDelegateIS1_EEEES4_NS_9FastMutexEED1Ev
000eab80 S __ZN4Poco13AbstractEventI16ofMouseEventArgsNS_12FIFOStrategyIS1_NS_16AbstractDelegateIS1_EEEES4_NS_9FastMutexEED1Ev.eh
000e46c0 S __ZN4Poco13AbstractEventI16ofMouseEventArgsNS_12FIFOStrategyIS1_NS_16AbstractDelegateIS1_EEEES4_NS_9FastMutexEED2Ev
000eab5c S __ZN4Poco13AbstractEventI16ofMouseEventArgsNS_12FIFOStrategyIS1_NS_16AbstractDelegateIS1_EEEES4_NS_9FastMutexEED2Ev.eh
000e6a00 S __ZN4Poco13AbstractEventI16ofTouchEventArgsNS_12FIFOStrategyIS1_NS_16AbstractDelegateIS1_EEEES4_NS_9FastMutexEE16executeAsyncImplERKNS7_17NotifyAsyncParamsE
000eb224 S __ZN4Poco13AbstractEventI16ofTouchEventArgsNS_12FIFOStrategyIS1_NS_16AbstractDelegateIS1_EEEES4_NS_9FastMutexEE16executeAsyncImplERKNS7_17NotifyAsyncParamsE.eh
000e6910 S __ZN4Poco13AbstractEventI16ofTouchEventArgsNS_12FIFOStrategyIS1_NS_16AbstractDelegateIS1_EEEES4_NS_9FastMutexEEC2Ev
000eb200 S __ZN4Poco13AbstractEventI16ofTouchEventArgsNS_12FIFOStrategyIS1_NS_16AbstractDelegateIS1_EEEES4_NS_9FastMutexEEC2Ev.eh
000e54a0 S __ZN4Poco13AbstractEventI16ofTouchEventArgsNS_12FIFOStrategyIS1_NS_16AbstractDelegateIS1_EEEES4_NS_9FastMutexEED0Ev
000eae30 S __ZN4Poco13AbstractEventI16ofTouchEventArgsNS_12FIFOStrategyIS1_NS_16AbstractDelegateIS1_EEEES4_NS_9FastMutexEED0Ev.eh
000e5490 S __ZN4Poco13AbstractEventI16ofTouchEventArgsNS_12FIFOStrategyIS1_NS_16AbstractDelegateIS1_EEEES4_NS_9FastMutexEED1Ev
000eae14 S __ZN4Poco13AbstractEventI16ofTouchEventArgsNS_12FIFOStrategyIS1_NS_16AbstractDelegateIS1_EEEES4_NS_9FastMutexEED1Ev.eh
000e5340 S __ZN4Poco13AbstractEventI16ofTouchEventArgsNS_12FIFOStrategyIS1_NS_16AbstractDelegateIS1_EEEES4_NS_9FastMutexEED2Ev
000eadcc S __ZN4Poco13AbstractEventI16ofTouchEventArgsNS_12FIFOStrategyIS1_NS_16AbstractDelegateIS1_EEEES4_NS_9FastMutexEED2Ev.eh
000e76c0 S __ZN4Poco13AbstractEventI17ofResizeEventArgsNS_12FIFOStrategyIS1_NS_16AbstractDelegateIS1_EEEES4_NS_9FastMutexEE16executeAsyncImplERKNS7_17NotifyAsyncParamsE
000eb4ac S __ZN4Poco13AbstractEventI17ofResizeEventArgsNS_12FIFOStrategyIS1_NS_16AbstractDelegateIS1_EEEES4_NS_9FastMutexEE16executeAsyncImplERKNS7_17NotifyAsyncParamsE.eh
000e0490 S __ZN4Poco13AbstractEventI17ofResizeEventArgsNS_12FIFOStrategyIS1_NS_16AbstractDelegateIS1_EEEES4_NS_9FastMutexEE6notifyEPKvRS1_
000e9f40 S __ZN4Poco13AbstractEventI17ofResizeEventArgsNS_12FIFOStrategyIS1_NS_16AbstractDelegateIS1_EEEES4_NS_9FastMutexEE6notifyEPKvRS1_.eh
000e75d0 S __ZN4Poco13AbstractEventI17ofResizeEventArgsNS_12FIFOStrategyIS1_NS_16AbstractDelegateIS1_EEEES4_NS_9FastMutexEEC2Ev
000eb488 S __ZN4Poco13AbstractEventI17ofResizeEventArgsNS_12FIFOStrategyIS1_NS_16AbstractDelegateIS1_EEEES4_NS_9FastMutexEEC2Ev.eh
000e4570 S __ZN4Poco13AbstractEventI17ofResizeEventArgsNS_12FIFOStrategyIS1_NS_16AbstractDelegateIS1_EEEES4_NS_9FastMutexEED0Ev
000eaad4 S __ZN4Poco13AbstractEventI17ofResizeEventArgsNS_12FIFOStrategyIS1_NS_16AbstractDelegateIS1_EEEES4_NS_9FastMutexEED0Ev.eh
000e4560 S __ZN4Poco13AbstractEventI17ofResizeEventArgsNS_12FIFOStrategyIS1_NS_16AbstractDelegateIS1_EEEES4_NS_9FastMutexEED1Ev
000eaab8 S __ZN4Poco13AbstractEventI17ofResizeEventArgsNS_12FIFOStrategyIS1_NS_16AbstractDelegateIS1_EEEES4_NS_9FastMutexEED1Ev.eh
000e4480 S __ZN4Poco13AbstractEventI17ofResizeEventArgsNS_12FIFOStrategyIS1_NS_16AbstractDelegateIS1_EEEES4_NS_9FastMutexEED2Ev
000eaa94 S __ZN4Poco13AbstractEventI17ofResizeEventArgsNS_12FIFOStrategyIS1_NS_16AbstractDelegateIS1_EEEES4_NS_9FastMutexEED2Ev.eh
000e6680 S __ZN4Poco13AbstractEventI9ofMessageNS_12FIFOStrategyIS1_NS_16AbstractDelegateIS1_EEEES4_NS_9FastMutexEE16executeAsyncImplERKNS7_17NotifyAsyncParamsE
000eb194 S __ZN4Poco13AbstractEventI9ofMessageNS_12FIFOStrategyIS1_NS_16AbstractDelegateIS1_EEEES4_NS_9FastMutexEE16executeAsyncImplERKNS7_17NotifyAsyncParamsE.eh
000de9b0 S __ZN4Poco13AbstractEventI9ofMessageNS_12FIFOStrategyIS1_NS_16AbstractDelegateIS1_EEEES4_NS_9FastMutexEE6notifyEPKvRS1_
000e9ad0 S __ZN4Poco13AbstractEventI9ofMessageNS_12FIFOStrategyIS1_NS_16AbstractDelegateIS1_EEEES4_NS_9FastMutexEE6notifyEPKvRS1_.eh
000e6590 S __ZN4Poco13AbstractEventI9ofMessageNS_12FIFOStrategyIS1_NS_16AbstractDelegateIS1_EEEES4_NS_9FastMutexEEC2Ev
000eb170 S __ZN4Poco13AbstractEventI9ofMessageNS_12FIFOStrategyIS1_NS_16AbstractDelegateIS1_EEEES4_NS_9FastMutexEEC2Ev.eh
000e5f90 S __ZN4Poco13AbstractEventI9ofMessageNS_12FIFOStrategyIS1_NS_16AbstractDelegateIS1_EEEES4_NS_9FastMutexEED0Ev
000eb018 S __ZN4Poco13AbstractEventI9ofMessageNS_12FIFOStrategyIS1_NS_16AbstractDelegateIS1_EEEES4_NS_9FastMutexEED0Ev.eh
000e5f80 S __ZN4Poco13AbstractEventI9ofMessageNS_12FIFOStrategyIS1_NS_16AbstractDelegateIS1_EEEES4_NS_9FastMutexEED1Ev
000eaffc S __ZN4Poco13AbstractEventI9ofMessageNS_12FIFOStrategyIS1_NS_16AbstractDelegateIS1_EEEES4_NS_9FastMutexEED1Ev.eh
000e5ea0 S __ZN4Poco13AbstractEventI9ofMessageNS_12FIFOStrategyIS1_NS_16AbstractDelegateIS1_EEEES4_NS_9FastMutexEED2Ev
000eafd8 S __ZN4Poco13AbstractEventI9ofMessageNS_12FIFOStrategyIS1_NS_16AbstractDelegateIS1_EEEES4_NS_9FastMutexEED2Ev.eh
         U __ZN4Poco13AtomicCounterC1Ei
         U __ZN4Poco13AtomicCounterD1Ev
000dfa70 S __ZN4Poco15DefaultStrategyI10ofDragInfoNS_16AbstractDelegateIS1_EEE3addERKS3_
000e9dbc S __ZN4Poco15DefaultStrategyI10ofDragInfoNS_16AbstractDelegateIS1_EEE3addERKS3_.eh
000dfd00 S __ZN4Poco15DefaultStrategyI10ofDragInfoNS_16AbstractDelegateIS1_EEE5clearEv
000e9e04 S __ZN4Poco15DefaultStrategyI10ofDragInfoNS_16AbstractDelegateIS1_EEE5clearEv.eh
000df9d0 S __ZN4Poco15DefaultStrategyI10ofDragInfoNS_16AbstractDelegateIS1_EEE6notifyEPKvRS1_
000e9d98 S __ZN4Poco15DefaultStrategyI10ofDragInfoNS_16AbstractDelegateIS1_EEE6notifyEPKvRS1_.eh
000dfbd0 S __ZN4Poco15DefaultStrategyI10ofDragInfoNS_16AbstractDelegateIS1_EEE6removeERKS3_
000e9de0 S __ZN4Poco15DefaultStrategyI10ofDragInfoNS_16AbstractDelegateIS1_EEE6removeERKS3_.eh
000df950 S __ZN4Poco15DefaultStrategyI10ofDragInfoNS_16AbstractDelegateIS1_EEED0Ev
000e9d74 S __ZN4Poco15DefaultStrategyI10ofDragInfoNS_16AbstractDelegateIS1_EEED0Ev.eh
000df8e0 S __ZN4Poco15DefaultStrategyI10ofDragInfoNS_16AbstractDelegateIS1_EEED1Ev
000e9d50 S __ZN4Poco15DefaultStrategyI10ofDragInfoNS_16AbstractDelegateIS1_EEED1Ev.eh
000e3290 S __ZN4Poco15DefaultStrategyI11ofEventArgsNS_16AbstractDelegateIS1_EEE3addERKS3_
000ea6fc S __ZN4Poco15DefaultStrategyI11ofEventArgsNS_16AbstractDelegateIS1_EEE3addERKS3_.eh
000e3520 S __ZN4Poco15DefaultStrategyI11ofEventArgsNS_16AbstractDelegateIS1_EEE5clearEv
000ea744 S __ZN4Poco15DefaultStrategyI11ofEventArgsNS_16AbstractDelegateIS1_EEE5clearEv.eh
000e31f0 S __ZN4Poco15DefaultStrategyI11ofEventArgsNS_16AbstractDelegateIS1_EEE6notifyEPKvRS1_
000ea6d8 S __ZN4Poco15DefaultStrategyI11ofEventArgsNS_16AbstractDelegateIS1_EEE6notifyEPKvRS1_.eh
000e33f0 S __ZN4Poco15DefaultStrategyI11ofEventArgsNS_16AbstractDelegateIS1_EEE6removeERKS3_
000ea720 S __ZN4Poco15DefaultStrategyI11ofEventArgsNS_16AbstractDelegateIS1_EEE6removeERKS3_.eh
000e3170 S __ZN4Poco15DefaultStrategyI11ofEventArgsNS_16AbstractDelegateIS1_EEED0Ev
000ea6b4 S __ZN4Poco15DefaultStrategyI11ofEventArgsNS_16AbstractDelegateIS1_EEED0Ev.eh
000e3100 S __ZN4Poco15DefaultStrategyI11ofEventArgsNS_16AbstractDelegateIS1_EEED1Ev
000ea690 S __ZN4Poco15DefaultStrategyI11ofEventArgsNS_16AbstractDelegateIS1_EEED1Ev.eh
000e2420 S __ZN4Poco15DefaultStrategyI14ofKeyEventArgsNS_16AbstractDelegateIS1_EEE3addERKS3_
000ea4a4 S __ZN4Poco15DefaultStrategyI14ofKeyEventArgsNS_16AbstractDelegateIS1_EEE3addERKS3_.eh
000e26b0 S __ZN4Poco15DefaultStrategyI14ofKeyEventArgsNS_16AbstractDelegateIS1_EEE5clearEv
000ea4ec S __ZN4Poco15DefaultStrategyI14ofKeyEventArgsNS_16AbstractDelegateIS1_EEE5clearEv.eh
000e2380 S __ZN4Poco15DefaultStrategyI14ofKeyEventArgsNS_16AbstractDelegateIS1_EEE6notifyEPKvRS1_
000ea480 S __ZN4Poco15DefaultStrategyI14ofKeyEventArgsNS_16AbstractDelegateIS1_EEE6notifyEPKvRS1_.eh
000e2580 S __ZN4Poco15DefaultStrategyI14ofKeyEventArgsNS_16AbstractDelegateIS1_EEE6removeERKS3_
000ea4c8 S __ZN4Poco15DefaultStrategyI14ofKeyEventArgsNS_16AbstractDelegateIS1_EEE6removeERKS3_.eh
000e2300 S __ZN4Poco15DefaultStrategyI14ofKeyEventArgsNS_16AbstractDelegateIS1_EEED0Ev
000ea45c S __ZN4Poco15DefaultStrategyI14ofKeyEventArgsNS_16AbstractDelegateIS1_EEED0Ev.eh
000e2290 S __ZN4Poco15DefaultStrategyI14ofKeyEventArgsNS_16AbstractDelegateIS1_EEED1Ev
000ea438 S __ZN4Poco15DefaultStrategyI14ofKeyEventArgsNS_16AbstractDelegateIS1_EEED1Ev.eh
000e4b00 S __ZN4Poco15DefaultStrategyI16ofAudioEventArgsNS_16AbstractDelegateIS1_EEE3addERKS3_
000eacb4 S __ZN4Poco15DefaultStrategyI16ofAudioEventArgsNS_16AbstractDelegateIS1_EEE3addERKS3_.eh
000e4d90 S __ZN4Poco15DefaultStrategyI16ofAudioEventArgsNS_16AbstractDelegateIS1_EEE5clearEv
000eacfc S __ZN4Poco15DefaultStrategyI16ofAudioEventArgsNS_16AbstractDelegateIS1_EEE5clearEv.eh
000e4a60 S __ZN4Poco15DefaultStrategyI16ofAudioEventArgsNS_16AbstractDelegateIS1_EEE6notifyEPKvRS1_
000eac90 S __ZN4Poco15DefaultStrategyI16ofAudioEventArgsNS_16AbstractDelegateIS1_EEE6notifyEPKvRS1_.eh
000e4c60 S __ZN4Poco15DefaultStrategyI16ofAudioEventArgsNS_16AbstractDelegateIS1_EEE6removeERKS3_
000eacd8 S __ZN4Poco15DefaultStrategyI16ofAudioEventArgsNS_16AbstractDelegateIS1_EEE6removeERKS3_.eh
000e49e0 S __ZN4Poco15DefaultStrategyI16ofAudioEventArgsNS_16AbstractDelegateIS1_EEED0Ev
000eac6c S __ZN4Poco15DefaultStrategyI16ofAudioEventArgsNS_16AbstractDelegateIS1_EEED0Ev.eh
000e4970 S __ZN4Poco15DefaultStrategyI16ofAudioEventArgsNS_16AbstractDelegateIS1_EEED1Ev
000eac48 S __ZN4Poco15DefaultStrategyI16ofAudioEventArgsNS_16AbstractDelegateIS1_EEED1Ev.eh
000dddd0 S __ZN4Poco15DefaultStrategyI16ofEntryEventArgsNS_16AbstractDelegateIS1_EEE3addERKS3_
000e9904 S __ZN4Poco15DefaultStrategyI16ofEntryEventArgsNS_16AbstractDelegateIS1_EEE3addERKS3_.eh
000de060 S __ZN4Poco15DefaultStrategyI16ofEntryEventArgsNS_16AbstractDelegateIS1_EEE5clearEv
000e994c S __ZN4Poco15DefaultStrategyI16ofEntryEventArgsNS_16AbstractDelegateIS1_EEE5clearEv.eh
000ddd30 S __ZN4Poco15DefaultStrategyI16ofEntryEventArgsNS_16AbstractDelegateIS1_EEE6notifyEPKvRS1_
000e98e0 S __ZN4Poco15DefaultStrategyI16ofEntryEventArgsNS_16AbstractDelegateIS1_EEE6notifyEPKvRS1_.eh
000ddf30 S __ZN4Poco15DefaultStrategyI16ofEntryEventArgsNS_16AbstractDelegateIS1_EEE6removeERKS3_
000e9928 S __ZN4Poco15DefaultStrategyI16ofEntryEventArgsNS_16AbstractDelegateIS1_EEE6removeERKS3_.eh
000ddcb0 S __ZN4Poco15DefaultStrategyI16ofEntryEventArgsNS_16AbstractDelegateIS1_EEED0Ev
000e98bc S __ZN4Poco15DefaultStrategyI16ofEntryEventArgsNS_16AbstractDelegateIS1_EEED0Ev.eh
000ddc40 S __ZN4Poco15DefaultStrategyI16ofEntryEventArgsNS_16AbstractDelegateIS1_EEED1Ev
000e9898 S __ZN4Poco15DefaultStrategyI16ofEntryEventArgsNS_16AbstractDelegateIS1_EEED1Ev.eh
000e1550 S __ZN4Poco15DefaultStrategyI16ofMouseEventArgsNS_16AbstractDelegateIS1_EEE3addERKS3_
000ea22c S __ZN4Poco15DefaultStrategyI16ofMouseEventArgsNS_16AbstractDelegateIS1_EEE3addERKS3_.eh
000e17e0 S __ZN4Poco15DefaultStrategyI16ofMouseEventArgsNS_16AbstractDelegateIS1_EEE5clearEv
000ea274 S __ZN4Poco15DefaultStrategyI16ofMouseEventArgsNS_16AbstractDelegateIS1_EEE5clearEv.eh
000e14b0 S __ZN4Poco15DefaultStrategyI16ofMouseEventArgsNS_16AbstractDelegateIS1_EEE6notifyEPKvRS1_
000ea208 S __ZN4Poco15DefaultStrategyI16ofMouseEventArgsNS_16AbstractDelegateIS1_EEE6notifyEPKvRS1_.eh
000e16b0 S __ZN4Poco15DefaultStrategyI16ofMouseEventArgsNS_16AbstractDelegateIS1_EEE6removeERKS3_
000ea250 S __ZN4Poco15DefaultStrategyI16ofMouseEventArgsNS_16AbstractDelegateIS1_EEE6removeERKS3_.eh
000e1430 S __ZN4Poco15DefaultStrategyI16ofMouseEventArgsNS_16AbstractDelegateIS1_EEED0Ev
000ea1e4 S __ZN4Poco15DefaultStrategyI16ofMouseEventArgsNS_16AbstractDelegateIS1_EEED0Ev.eh
000e13c0 S __ZN4Poco15DefaultStrategyI16ofMouseEventArgsNS_16AbstractDelegateIS1_EEED1Ev
000ea1c0 S __ZN4Poco15DefaultStrategyI16ofMouseEventArgsNS_16AbstractDelegateIS1_EEED1Ev.eh
000e5660 S __ZN4Poco15DefaultStrategyI16ofTouchEventArgsNS_16AbstractDelegateIS1_EEE3addERKS3_
000eaec0 S __ZN4Poco15DefaultStrategyI16ofTouchEventArgsNS_16AbstractDelegateIS1_EEE3addERKS3_.eh
000e58f0 S __ZN4Poco15DefaultStrategyI16ofTouchEventArgsNS_16AbstractDelegateIS1_EEE5clearEv
000eaf08 S __ZN4Poco15DefaultStrategyI16ofTouchEventArgsNS_16AbstractDelegateIS1_EEE5clearEv.eh
000e55c0 S __ZN4Poco15DefaultStrategyI16ofTouchEventArgsNS_16AbstractDelegateIS1_EEE6notifyEPKvRS1_
000eae9c S __ZN4Poco15DefaultStrategyI16ofTouchEventArgsNS_16AbstractDelegateIS1_EEE6notifyEPKvRS1_.eh
000e57c0 S __ZN4Poco15DefaultStrategyI16ofTouchEventArgsNS_16AbstractDelegateIS1_EEE6removeERKS3_
000eaee4 S __ZN4Poco15DefaultStrategyI16ofTouchEventArgsNS_16AbstractDelegateIS1_EEE6removeERKS3_.eh
000e5540 S __ZN4Poco15DefaultStrategyI16ofTouchEventArgsNS_16AbstractDelegateIS1_EEED0Ev
000eae78 S __ZN4Poco15DefaultStrategyI16ofTouchEventArgsNS_16AbstractDelegateIS1_EEED0Ev.eh
000e54d0 S __ZN4Poco15DefaultStrategyI16ofTouchEventArgsNS_16AbstractDelegateIS1_EEED1Ev
000eae54 S __ZN4Poco15DefaultStrategyI16ofTouchEventArgsNS_16AbstractDelegateIS1_EEED1Ev.eh
000e07e0 S __ZN4Poco15DefaultStrategyI17ofResizeEventArgsNS_16AbstractDelegateIS1_EEE3addERKS3_
000e9ff4 S __ZN4Poco15DefaultStrategyI17ofResizeEventArgsNS_16AbstractDelegateIS1_EEE3addERKS3_.eh
000e0a70 S __ZN4Poco15DefaultStrategyI17ofResizeEventArgsNS_16AbstractDelegateIS1_EEE5clearEv
000ea03c S __ZN4Poco15DefaultStrategyI17ofResizeEventArgsNS_16AbstractDelegateIS1_EEE5clearEv.eh
000e0740 S __ZN4Poco15DefaultStrategyI17ofResizeEventArgsNS_16AbstractDelegateIS1_EEE6notifyEPKvRS1_
000e9fd0 S __ZN4Poco15DefaultStrategyI17ofResizeEventArgsNS_16AbstractDelegateIS1_EEE6notifyEPKvRS1_.eh
000e0940 S __ZN4Poco15DefaultStrategyI17ofResizeEventArgsNS_16AbstractDelegateIS1_EEE6removeERKS3_
000ea018 S __ZN4Poco15DefaultStrategyI17ofResizeEventArgsNS_16AbstractDelegateIS1_EEE6removeERKS3_.eh
000e06c0 S __ZN4Poco15DefaultStrategyI17ofResizeEventArgsNS_16AbstractDelegateIS1_EEED0Ev
000e9fac S __ZN4Poco15DefaultStrategyI17ofResizeEventArgsNS_16AbstractDelegateIS1_EEED0Ev.eh
000e0650 S __ZN4Poco15DefaultStrategyI17ofResizeEventArgsNS_16AbstractDelegateIS1_EEED1Ev
000e9f88 S __ZN4Poco15DefaultStrategyI17ofResizeEventArgsNS_16AbstractDelegateIS1_EEED1Ev.eh
000ded00 S __ZN4Poco15DefaultStrategyI9ofMessageNS_16AbstractDelegateIS1_EEE3addERKS3_
000e9b84 S __ZN4Poco15DefaultStrategyI9ofMessageNS_16AbstractDelegateIS1_EEE3addERKS3_.eh
000def90 S __ZN4Poco15DefaultStrategyI9ofMessageNS_16AbstractDelegateIS1_EEE5clearEv
000e9bcc S __ZN4Poco15DefaultStrategyI9ofMessageNS_16AbstractDelegateIS1_EEE5clearEv.eh
000dec60 S __ZN4Poco15DefaultStrategyI9ofMessageNS_16AbstractDelegateIS1_EEE6notifyEPKvRS1_
000e9b60 S __ZN4Poco15DefaultStrategyI9ofMessageNS_16AbstractDelegateIS1_EEE6notifyEPKvRS1_.eh
000dee60 S __ZN4Poco15DefaultStrategyI9ofMessageNS_16AbstractDelegateIS1_EEE6removeERKS3_
000e9ba8 S __ZN4Poco15DefaultStrategyI9ofMessageNS_16AbstractDelegateIS1_EEE6removeERKS3_.eh
000debe0 S __ZN4Poco15DefaultStrategyI9ofMessageNS_16AbstractDelegateIS1_EEED0Ev
000e9b3c S __ZN4Poco15DefaultStrategyI9ofMessageNS_16AbstractDelegateIS1_EEED0Ev.eh
000deb70 S __ZN4Poco15DefaultStrategyI9ofMessageNS_16AbstractDelegateIS1_EEED1Ev
000e9b18 S __ZN4Poco15DefaultStrategyI9ofMessageNS_16AbstractDelegateIS1_EEED1Ev.eh
         U __ZN4Poco15SystemExceptionC1ERKSsi
         U __ZN4Poco15SystemExceptionD1Ev
         U __ZN4Poco20NullPointerExceptionC1Ei
         U __ZN4Poco20NullPointerExceptionD1Ev
         U __ZN4Poco8Bugcheck11nullPointerEPKcS2_i
         U __ZN4Poco9FastMutexC1Ev
         U __ZN4Poco9FastMutexD1Ev
000de610 S __ZN4Poco9MutexImpl10unlockImplEv
000e9a1c S __ZN4Poco9MutexImpl10unlockImplEv.eh
000de8d0 S __ZN4Poco9MutexImpl8lockImplEv
000e9aac S __ZN4Poco9MutexImpl8lockImplEv.eh
000e64f0 S __ZN4Poco9SharedPtrINS_12FIFOStrategyI10ofDragInfoNS_16AbstractDelegateIS2_EEEENS_16ReferenceCounterENS_13ReleasePolicyIS5_EEE7releaseEv
000eb128 S __ZN4Poco9SharedPtrINS_12FIFOStrategyI10ofDragInfoNS_16AbstractDelegateIS2_EEEENS_16ReferenceCounterENS_13ReleasePolicyIS5_EEE7releaseEv.eh
000e7cb0 S __ZN4Poco9SharedPtrINS_12FIFOStrategyI11ofEventArgsNS_16AbstractDelegateIS2_EEEENS_16ReferenceCounterENS_13ReleasePolicyIS5_EEE7releaseEv
000eb5f0 S __ZN4Poco9SharedPtrINS_12FIFOStrategyI11ofEventArgsNS_16AbstractDelegateIS2_EEEENS_16ReferenceCounterENS_13ReleasePolicyIS5_EEE7releaseEv.eh
000e7530 S __ZN4Poco9SharedPtrINS_12FIFOStrategyI14ofKeyEventArgsNS_16AbstractDelegateIS2_EEEENS_16ReferenceCounterENS_13ReleasePolicyIS5_EEE7releaseEv
000eb440 S __ZN4Poco9SharedPtrINS_12FIFOStrategyI14ofKeyEventArgsNS_16AbstractDelegateIS2_EEEENS_16ReferenceCounterENS_13ReleasePolicyIS5_EEE7releaseEv.eh
000e7000 S __ZN4Poco9SharedPtrINS_12FIFOStrategyI16ofAudioEventArgsNS_16AbstractDelegateIS2_EEEENS_16ReferenceCounterENS_13ReleasePolicyIS5_EEE7releaseEv
000eb320 S __ZN4Poco9SharedPtrINS_12FIFOStrategyI16ofAudioEventArgsNS_16AbstractDelegateIS2_EEEENS_16ReferenceCounterENS_13ReleasePolicyIS5_EEE7releaseEv.eh
000e7a40 S __ZN4Poco9SharedPtrINS_12FIFOStrategyI16ofEntryEventArgsNS_16AbstractDelegateIS2_EEEENS_16ReferenceCounterENS_13ReleasePolicyIS5_EEE7releaseEv
000eb560 S __ZN4Poco9SharedPtrINS_12FIFOStrategyI16ofEntryEventArgsNS_16AbstractDelegateIS2_EEEENS_16ReferenceCounterENS_13ReleasePolicyIS5_EEE7releaseEv.eh
000e72b0 S __ZN4Poco9SharedPtrINS_12FIFOStrategyI16ofMouseEventArgsNS_16AbstractDelegateIS2_EEEENS_16ReferenceCounterENS_13ReleasePolicyIS5_EEE7releaseEv
000eb3b0 S __ZN4Poco9SharedPtrINS_12FIFOStrategyI16ofMouseEventArgsNS_16AbstractDelegateIS2_EEEENS_16ReferenceCounterENS_13ReleasePolicyIS5_EEE7releaseEv.eh
000e6cd0 S __ZN4Poco9SharedPtrINS_12FIFOStrategyI16ofTouchEventArgsNS_16AbstractDelegateIS2_EEEENS_16ReferenceCounterENS_13ReleasePolicyIS5_EEE7releaseEv
000eb26c S __ZN4Poco9SharedPtrINS_12FIFOStrategyI16ofTouchEventArgsNS_16AbstractDelegateIS2_EEEENS_16ReferenceCounterENS_13ReleasePolicyIS5_EEE7releaseEv.eh
000e77c0 S __ZN4Poco9SharedPtrINS_12FIFOStrategyI17ofResizeEventArgsNS_16AbstractDelegateIS2_EEEENS_16ReferenceCounterENS_13ReleasePolicyIS5_EEE7releaseEv
000eb4d0 S __ZN4Poco9SharedPtrINS_12FIFOStrategyI17ofResizeEventArgsNS_16AbstractDelegateIS2_EEEENS_16ReferenceCounterENS_13ReleasePolicyIS5_EEE7releaseEv.eh
000e6870 S __ZN4Poco9SharedPtrINS_12FIFOStrategyI9ofMessageNS_16AbstractDelegateIS2_EEEENS_16ReferenceCounterENS_13ReleasePolicyIS5_EEE7releaseEv
000eb1b8 S __ZN4Poco9SharedPtrINS_12FIFOStrategyI9ofMessageNS_16AbstractDelegateIS2_EEEENS_16ReferenceCounterENS_13ReleasePolicyIS5_EEE7releaseEv.eh
000dfe60 S __ZN4Poco9SharedPtrINS_16AbstractDelegateI10ofDragInfoEENS_16ReferenceCounterENS_13ReleasePolicyIS3_EEE6assignERKS7_
000e9e68 S __ZN4Poco9SharedPtrINS_16AbstractDelegateI10ofDragInfoEENS_16ReferenceCounterENS_13ReleasePolicyIS3_EEE6assignERKS7_.eh
000dfdf0 S __ZN4Poco9SharedPtrINS_16AbstractDelegateI10ofDragInfoEENS_16ReferenceCounterENS_13ReleasePolicyIS3_EEE7releaseEv
000e9e44 S __ZN4Poco9SharedPtrINS_16AbstractDelegateI10ofDragInfoEENS_16ReferenceCounterENS_13ReleasePolicyIS3_EEE7releaseEv.eh
000e3680 S __ZN4Poco9SharedPtrINS_16AbstractDelegateI11ofEventArgsEENS_16ReferenceCounterENS_13ReleasePolicyIS3_EEE6assignERKS7_
000ea7a8 S __ZN4Poco9SharedPtrINS_16AbstractDelegateI11ofEventArgsEENS_16ReferenceCounterENS_13ReleasePolicyIS3_EEE6assignERKS7_.eh
000e3610 S __ZN4Poco9SharedPtrINS_16AbstractDelegateI11ofEventArgsEENS_16ReferenceCounterENS_13ReleasePolicyIS3_EEE7releaseEv
000ea784 S __ZN4Poco9SharedPtrINS_16AbstractDelegateI11ofEventArgsEENS_16ReferenceCounterENS_13ReleasePolicyIS3_EEE7releaseEv.eh
000e2810 S __ZN4Poco9SharedPtrINS_16AbstractDelegateI14ofKeyEventArgsEENS_16ReferenceCounterENS_13ReleasePolicyIS3_EEE6assignERKS7_
000ea550 S __ZN4Poco9SharedPtrINS_16AbstractDelegateI14ofKeyEventArgsEENS_16ReferenceCounterENS_13ReleasePolicyIS3_EEE6assignERKS7_.eh
000e27a0 S __ZN4Poco9SharedPtrINS_16AbstractDelegateI14ofKeyEventArgsEENS_16ReferenceCounterENS_13ReleasePolicyIS3_EEE7releaseEv
000ea52c S __ZN4Poco9SharedPtrINS_16AbstractDelegateI14ofKeyEventArgsEENS_16ReferenceCounterENS_13ReleasePolicyIS3_EEE7releaseEv.eh
000e4ef0 S __ZN4Poco9SharedPtrINS_16AbstractDelegateI16ofAudioEventArgsEENS_16ReferenceCounterENS_13ReleasePolicyIS3_EEE6assignERKS7_
000ead60 S __ZN4Poco9SharedPtrINS_16AbstractDelegateI16ofAudioEventArgsEENS_16ReferenceCounterENS_13ReleasePolicyIS3_EEE6assignERKS7_.eh
000e4e80 S __ZN4Poco9SharedPtrINS_16AbstractDelegateI16ofAudioEventArgsEENS_16ReferenceCounterENS_13ReleasePolicyIS3_EEE7releaseEv
000ead3c S __ZN4Poco9SharedPtrINS_16AbstractDelegateI16ofAudioEventArgsEENS_16ReferenceCounterENS_13ReleasePolicyIS3_EEE7releaseEv.eh
000de1c0 S __ZN4Poco9SharedPtrINS_16AbstractDelegateI16ofEntryEventArgsEENS_16ReferenceCounterENS_13ReleasePolicyIS3_EEE6assignERKS7_
000e99b0 S __ZN4Poco9SharedPtrINS_16AbstractDelegateI16ofEntryEventArgsEENS_16ReferenceCounterENS_13ReleasePolicyIS3_EEE6assignERKS7_.eh
000de150 S __ZN4Poco9SharedPtrINS_16AbstractDelegateI16ofEntryEventArgsEENS_16ReferenceCounterENS_13ReleasePolicyIS3_EEE7releaseEv
000e998c S __ZN4Poco9SharedPtrINS_16AbstractDelegateI16ofEntryEventArgsEENS_16ReferenceCounterENS_13ReleasePolicyIS3_EEE7releaseEv.eh
000e1940 S __ZN4Poco9SharedPtrINS_16AbstractDelegateI16ofMouseEventArgsEENS_16ReferenceCounterENS_13ReleasePolicyIS3_EEE6assignERKS7_
000ea2d8 S __ZN4Poco9SharedPtrINS_16AbstractDelegateI16ofMouseEventArgsEENS_16ReferenceCounterENS_13ReleasePolicyIS3_EEE6assignERKS7_.eh
000e18d0 S __ZN4Poco9SharedPtrINS_16AbstractDelegateI16ofMouseEventArgsEENS_16ReferenceCounterENS_13ReleasePolicyIS3_EEE7releaseEv
000ea2b4 S __ZN4Poco9SharedPtrINS_16AbstractDelegateI16ofMouseEventArgsEENS_16ReferenceCounterENS_13ReleasePolicyIS3_EEE7releaseEv.eh
000e5a50 S __ZN4Poco9SharedPtrINS_16AbstractDelegateI16ofTouchEventArgsEENS_16ReferenceCounterENS_13ReleasePolicyIS3_EEE6assignERKS7_
000eaf6c S __ZN4Poco9SharedPtrINS_16AbstractDelegateI16ofTouchEventArgsEENS_16ReferenceCounterENS_13ReleasePolicyIS3_EEE6assignERKS7_.eh
000e59e0 S __ZN4Poco9SharedPtrINS_16AbstractDelegateI16ofTouchEventArgsEENS_16ReferenceCounterENS_13ReleasePolicyIS3_EEE7releaseEv
000eaf48 S __ZN4Poco9SharedPtrINS_16AbstractDelegateI16ofTouchEventArgsEENS_16ReferenceCounterENS_13ReleasePolicyIS3_EEE7releaseEv.eh
000e0bd0 S __ZN4Poco9SharedPtrINS_16AbstractDelegateI17ofResizeEventArgsEENS_16ReferenceCounterENS_13ReleasePolicyIS3_EEE6assignERKS7_
000ea0a0 S __ZN4Poco9SharedPtrINS_16AbstractDelegateI17ofResizeEventArgsEENS_16ReferenceCounterENS_13ReleasePolicyIS3_EEE6assignERKS7_.eh
000e0b60 S __ZN4Poco9SharedPtrINS_16AbstractDelegateI17ofResizeEventArgsEENS_16ReferenceCounterENS_13ReleasePolicyIS3_EEE7releaseEv
000ea07c S __ZN4Poco9SharedPtrINS_16AbstractDelegateI17ofResizeEventArgsEENS_16ReferenceCounterENS_13ReleasePolicyIS3_EEE7releaseEv.eh
000df0f0 S __ZN4Poco9SharedPtrINS_16AbstractDelegateI9ofMessageEENS_16ReferenceCounterENS_13ReleasePolicyIS3_EEE6assignERKS7_
000e9c30 S __ZN4Poco9SharedPtrINS_16AbstractDelegateI9ofMessageEENS_16ReferenceCounterENS_13ReleasePolicyIS3_EEE6assignERKS7_.eh
000df080 S __ZN4Poco9SharedPtrINS_16AbstractDelegateI9ofMessageEENS_16ReferenceCounterENS_13ReleasePolicyIS3_EEE7releaseEv
000e9c0c S __ZN4Poco9SharedPtrINS_16AbstractDelegateI9ofMessageEENS_16ReferenceCounterENS_13ReleasePolicyIS3_EEE7releaseEv.eh
         U __ZN5ofLogC1E10ofLogLevelPKcz
         U __ZN5ofLogD1Ev
000e5fd0 S __ZN7ofEventI10ofDragInfoED0Ev
000eb058 S __ZN7ofEventI10ofDragInfoED0Ev.eh
000e5fc0 S __ZN7ofEventI10ofDragInfoED1Ev
000eb03c S __ZN7ofEventI10ofDragInfoED1Ev.eh
000e7ab0 S __ZN7ofEventI11ofEventArgsED0Ev
000eb584 S __ZN7ofEventI11ofEventArgsED0Ev.eh
000e4230 S __ZN7ofEventI11ofEventArgsED1Ev
000ea9b0 S __ZN7ofEventI11ofEventArgsED1Ev.eh
000e7320 S __ZN7ofEventI14ofKeyEventArgsED0Ev
000eb3d4 S __ZN7ofEventI14ofKeyEventArgsED0Ev.eh
000e4200 S __ZN7ofEventI14ofKeyEventArgsED1Ev
000ea95c S __ZN7ofEventI14ofKeyEventArgsED1Ev.eh
000e6d40 S __ZN7ofEventI16ofAudioEventArgsED0Ev
000eb290 S __ZN7ofEventI16ofAudioEventArgsED0Ev.eh
000e41e0 S __ZN7ofEventI16ofAudioEventArgsED1Ev
000ea924 S __ZN7ofEventI16ofAudioEventArgsED1Ev.eh
000e7830 S __ZN7ofEventI16ofEntryEventArgsED0Ev
000eb4f4 S __ZN7ofEventI16ofEntryEventArgsED0Ev.eh
000e4220 S __ZN7ofEventI16ofEntryEventArgsED1Ev
000ea994 S __ZN7ofEventI16ofEntryEventArgsED1Ev.eh
000e7070 S __ZN7ofEventI16ofMouseEventArgsED0Ev
000eb344 S __ZN7ofEventI16ofMouseEventArgsED0Ev.eh
000e41f0 S __ZN7ofEventI16ofMouseEventArgsED1Ev
000ea940 S __ZN7ofEventI16ofMouseEventArgsED1Ev.eh
000e68e0 S __ZN7ofEventI16ofTouchEventArgsED0Ev
000eb1dc S __ZN7ofEventI16ofTouchEventArgsED0Ev.eh
000e41d0 S __ZN7ofEventI16ofTouchEventArgsED1Ev
000ea908 S __ZN7ofEventI16ofTouchEventArgsED1Ev.eh
000e75a0 S __ZN7ofEventI17ofResizeEventArgsED0Ev
000eb464 S __ZN7ofEventI17ofResizeEventArgsED0Ev.eh
000e4210 S __ZN7ofEventI17ofResizeEventArgsED1Ev
000ea978 S __ZN7ofEventI17ofResizeEventArgsED1Ev.eh
000e6560 S __ZN7ofEventI9ofMessageED0Ev
000eb14c S __ZN7ofEventI9ofMessageED0Ev.eh
000e41c0 S __ZN7ofEventI9ofMessageED1Ev
000ea8ec S __ZN7ofEventI9ofMessageED1Ev.eh
000dfdd0 S __ZNK4Poco15DefaultStrategyI10ofDragInfoNS_16AbstractDelegateIS1_EEE5emptyEv
000e9e28 S __ZNK4Poco15DefaultStrategyI10ofDragInfoNS_16AbstractDelegateIS1_EEE5emptyEv.eh
000e35f0 S __ZNK4Poco15DefaultStrategyI11ofEventArgsNS_16AbstractDelegateIS1_EEE5emptyEv
000ea768 S __ZNK4Poco15DefaultStrategyI11ofEventArgsNS_16AbstractDelegateIS1_EEE5emptyEv.eh
000e2780 S __ZNK4Poco15DefaultStrategyI14ofKeyEventArgsNS_16AbstractDelegateIS1_EEE5emptyEv
000ea510 S __ZNK4Poco15DefaultStrategyI14ofKeyEventArgsNS_16AbstractDelegateIS1_EEE5emptyEv.eh
000e4e60 S __ZNK4Poco15DefaultStrategyI16ofAudioEventArgsNS_16AbstractDelegateIS1_EEE5emptyEv
000ead20 S __ZNK4Poco15DefaultStrategyI16ofAudioEventArgsNS_16AbstractDelegateIS1_EEE5emptyEv.eh
000de130 S __ZNK4Poco15DefaultStrategyI16ofEntryEventArgsNS_16AbstractDelegateIS1_EEE5emptyEv
000e9970 S __ZNK4Poco15DefaultStrategyI16ofEntryEventArgsNS_16AbstractDelegateIS1_EEE5emptyEv.eh
000e18b0 S __ZNK4Poco15DefaultStrategyI16ofMouseEventArgsNS_16AbstractDelegateIS1_EEE5emptyEv
000ea298 S __ZNK4Poco15DefaultStrategyI16ofMouseEventArgsNS_16AbstractDelegateIS1_EEE5emptyEv.eh
000e59c0 S __ZNK4Poco15DefaultStrategyI16ofTouchEventArgsNS_16AbstractDelegateIS1_EEE5emptyEv
000eaf2c S __ZNK4Poco15DefaultStrategyI16ofTouchEventArgsNS_16AbstractDelegateIS1_EEE5emptyEv.eh
000e0b40 S __ZNK4Poco15DefaultStrategyI17ofResizeEventArgsNS_16AbstractDelegateIS1_EEE5emptyEv
000ea060 S __ZNK4Poco15DefaultStrategyI17ofResizeEventArgsNS_16AbstractDelegateIS1_EEE5emptyEv.eh
000df060 S __ZNK4Poco15DefaultStrategyI9ofMessageNS_16AbstractDelegateIS1_EEE5emptyEv
000e9bf0 S __ZNK4Poco15DefaultStrategyI9ofMessageNS_16AbstractDelegateIS1_EEE5emptyEv.eh
         U __ZNSs4_Rep10_M_destroyERKSaIcE
         U __ZNSs4_Rep20_S_empty_rep_storageE
         U __ZNSs6assignERKSs
         U __ZNSsC1EPKcRKSaIcE
         U __ZNSsC1ERKSs
000dda60 S __ZNSt3setIiSt4lessIiESaIiEED1Ev
000e9570 S __ZNSt3setIiSt4lessIiESaIiEED1Ev.eh
000dfef0 S __ZNSt6vectorIN4Poco9SharedPtrINS0_16AbstractDelegateI10ofDragInfoEENS0_16ReferenceCounterENS0_13ReleasePolicyIS4_EEEESaIS8_EE13_M_insert_auxEN9__gnu_cxx17__normal_iteratorIPS8_SA_EERKS8_
000e9e8c S __ZNSt6vectorIN4Poco9SharedPtrINS0_16AbstractDelegateI10ofDragInfoEENS0_16ReferenceCounterENS0_13ReleasePolicyIS4_EEEESaIS8_EE13_M_insert_auxEN9__gnu_cxx17__normal_iteratorIPS8_SA_EERKS8_.eh
000e0330 S __ZNSt6vectorIN4Poco9SharedPtrINS0_16AbstractDelegateI10ofDragInfoEENS0_16ReferenceCounterENS0_13ReleasePolicyIS4_EEEESaIS8_EEC2ERKSA_
000e9ef8 S __ZNSt6vectorIN4Poco9SharedPtrINS0_16AbstractDelegateI10ofDragInfoEENS0_16ReferenceCounterENS0_13ReleasePolicyIS4_EEEESaIS8_EEC2ERKSA_.eh
000e3710 S __ZNSt6vectorIN4Poco9SharedPtrINS0_16AbstractDelegateI11ofEventArgsEENS0_16ReferenceCounterENS0_13ReleasePolicyIS4_EEEESaIS8_EE13_M_insert_auxEN9__gnu_cxx17__normal_iteratorIPS8_SA_EERKS8_
000ea7cc S __ZNSt6vectorIN4Poco9SharedPtrINS0_16AbstractDelegateI11ofEventArgsEENS0_16ReferenceCounterENS0_13ReleasePolicyIS4_EEEESaIS8_EE13_M_insert_auxEN9__gnu_cxx17__normal_iteratorIPS8_SA_EERKS8_.eh
000e3b50 S __ZNSt6vectorIN4Poco9SharedPtrINS0_16AbstractDelegateI11ofEventArgsEENS0_16ReferenceCounterENS0_13ReleasePolicyIS4_EEEESaIS8_EEC2ERKSA_
000ea838 S __ZNSt6vectorIN4Poco9SharedPtrINS0_16AbstractDelegateI11ofEventArgsEENS0_16ReferenceCounterENS0_13ReleasePolicyIS4_EEEESaIS8_EEC2ERKSA_.eh
000e28a0 S __ZNSt6vectorIN4Poco9SharedPtrINS0_16AbstractDelegateI14ofKeyEventArgsEENS0_16ReferenceCounterENS0_13ReleasePolicyIS4_EEEESaIS8_EE13_M_insert_auxEN9__gnu_cxx17__normal_iteratorIPS8_SA_EERKS8_
000ea574 S __ZNSt6vectorIN4Poco9SharedPtrINS0_16AbstractDelegateI14ofKeyEventArgsEENS0_16ReferenceCounterENS0_13ReleasePolicyIS4_EEEESaIS8_EE13_M_insert_auxEN9__gnu_cxx17__normal_iteratorIPS8_SA_EERKS8_.eh
000e2ce0 S __ZNSt6vectorIN4Poco9SharedPtrINS0_16AbstractDelegateI14ofKeyEventArgsEENS0_16ReferenceCounterENS0_13ReleasePolicyIS4_EEEESaIS8_EEC2ERKSA_
000ea5e0 S __ZNSt6vectorIN4Poco9SharedPtrINS0_16AbstractDelegateI14ofKeyEventArgsEENS0_16ReferenceCounterENS0_13ReleasePolicyIS4_EEEESaIS8_EEC2ERKSA_.eh
000e4f80 S __ZNSt6vectorIN4Poco9SharedPtrINS0_16AbstractDelegateI16ofAudioEventArgsEENS0_16ReferenceCounterENS0_13ReleasePolicyIS4_EEEESaIS8_EE13_M_insert_auxEN9__gnu_cxx17__normal_iteratorIPS8_SA_EERKS8_
000ead84 S __ZNSt6vectorIN4Poco9SharedPtrINS0_16AbstractDelegateI16ofAudioEventArgsEENS0_16ReferenceCounterENS0_13ReleasePolicyIS4_EEEESaIS8_EE13_M_insert_auxEN9__gnu_cxx17__normal_iteratorIPS8_SA_EERKS8_.eh
000de250 S __ZNSt6vectorIN4Poco9SharedPtrINS0_16AbstractDelegateI16ofEntryEventArgsEENS0_16ReferenceCounterENS0_13ReleasePolicyIS4_EEEESaIS8_EE13_M_insert_auxEN9__gnu_cxx17__normal_iteratorIPS8_SA_EERKS8_
000e99d4 S __ZNSt6vectorIN4Poco9SharedPtrINS0_16AbstractDelegateI16ofEntryEventArgsEENS0_16ReferenceCounterENS0_13ReleasePolicyIS4_EEEESaIS8_EE13_M_insert_auxEN9__gnu_cxx17__normal_iteratorIPS8_SA_EERKS8_.eh
000de770 S __ZNSt6vectorIN4Poco9SharedPtrINS0_16AbstractDelegateI16ofEntryEventArgsEENS0_16ReferenceCounterENS0_13ReleasePolicyIS4_EEEESaIS8_EEC2ERKSA_
000e9a64 S __ZNSt6vectorIN4Poco9SharedPtrINS0_16AbstractDelegateI16ofEntryEventArgsEENS0_16ReferenceCounterENS0_13ReleasePolicyIS4_EEEESaIS8_EEC2ERKSA_.eh
000e19d0 S __ZNSt6vectorIN4Poco9SharedPtrINS0_16AbstractDelegateI16ofMouseEventArgsEENS0_16ReferenceCounterENS0_13ReleasePolicyIS4_EEEESaIS8_EE13_M_insert_auxEN9__gnu_cxx17__normal_iteratorIPS8_SA_EERKS8_
000ea2fc S __ZNSt6vectorIN4Poco9SharedPtrINS0_16AbstractDelegateI16ofMouseEventArgsEENS0_16ReferenceCounterENS0_13ReleasePolicyIS4_EEEESaIS8_EE13_M_insert_auxEN9__gnu_cxx17__normal_iteratorIPS8_SA_EERKS8_.eh
000e1e10 S __ZNSt6vectorIN4Poco9SharedPtrINS0_16AbstractDelegateI16ofMouseEventArgsEENS0_16ReferenceCounterENS0_13ReleasePolicyIS4_EEEESaIS8_EEC2ERKSA_
000ea368 S __ZNSt6vectorIN4Poco9SharedPtrINS0_16AbstractDelegateI16ofMouseEventArgsEENS0_16ReferenceCounterENS0_13ReleasePolicyIS4_EEEESaIS8_EEC2ERKSA_.eh
000e5ae0 S __ZNSt6vectorIN4Poco9SharedPtrINS0_16AbstractDelegateI16ofTouchEventArgsEENS0_16ReferenceCounterENS0_13ReleasePolicyIS4_EEEESaIS8_EE13_M_insert_auxEN9__gnu_cxx17__normal_iteratorIPS8_SA_EERKS8_
000eaf90 S __ZNSt6vectorIN4Poco9SharedPtrINS0_16AbstractDelegateI16ofTouchEventArgsEENS0_16ReferenceCounterENS0_13ReleasePolicyIS4_EEEESaIS8_EE13_M_insert_auxEN9__gnu_cxx17__normal_iteratorIPS8_SA_EERKS8_.eh
000e0c60 S __ZNSt6vectorIN4Poco9SharedPtrINS0_16AbstractDelegateI17ofResizeEventArgsEENS0_16ReferenceCounterENS0_13ReleasePolicyIS4_EEEESaIS8_EE13_M_insert_auxEN9__gnu_cxx17__normal_iteratorIPS8_SA_EERKS8_
000ea0c4 S __ZNSt6vectorIN4Poco9SharedPtrINS0_16AbstractDelegateI17ofResizeEventArgsEENS0_16ReferenceCounterENS0_13ReleasePolicyIS4_EEEESaIS8_EE13_M_insert_auxEN9__gnu_cxx17__normal_iteratorIPS8_SA_EERKS8_.eh
000e10a0 S __ZNSt6vectorIN4Poco9SharedPtrINS0_16AbstractDelegateI17ofResizeEventArgsEENS0_16ReferenceCounterENS0_13ReleasePolicyIS4_EEEESaIS8_EEC2ERKSA_
000ea130 S __ZNSt6vectorIN4Poco9SharedPtrINS0_16AbstractDelegateI17ofResizeEventArgsEENS0_16ReferenceCounterENS0_13ReleasePolicyIS4_EEEESaIS8_EEC2ERKSA_.eh
000df180 S __ZNSt6vectorIN4Poco9SharedPtrINS0_16AbstractDelegateI9ofMessageEENS0_16ReferenceCounterENS0_13ReleasePolicyIS4_EEEESaIS8_EE13_M_insert_auxEN9__gnu_cxx17__normal_iteratorIPS8_SA_EERKS8_
000e9c54 S __ZNSt6vectorIN4Poco9SharedPtrINS0_16AbstractDelegateI9ofMessageEENS0_16ReferenceCounterENS0_13ReleasePolicyIS4_EEEESaIS8_EE13_M_insert_auxEN9__gnu_cxx17__normal_iteratorIPS8_SA_EERKS8_.eh
000df5c0 S __ZNSt6vectorIN4Poco9SharedPtrINS0_16AbstractDelegateI9ofMessageEENS0_16ReferenceCounterENS0_13ReleasePolicyIS4_EEEESaIS8_EEC2ERKSA_
000e9cc0 S __ZNSt6vectorIN4Poco9SharedPtrINS0_16AbstractDelegateI9ofMessageEENS0_16ReferenceCounterENS0_13ReleasePolicyIS4_EEEESaIS8_EEC2ERKSA_.eh
000e3cb0 S __ZNSt6vectorISsSaISsEEC2ERKS1_
000ea880 S __ZNSt6vectorISsSaISsEEC2ERKS1_.eh
000e2e40 S __ZNSt8_Rb_treeIiiSt9_IdentityIiESt4lessIiESaIiEE16_M_insert_uniqueERKi
000ea628 S __ZNSt8_Rb_treeIiiSt9_IdentityIiESt4lessIiESaIiEE16_M_insert_uniqueERKi.eh
000e1f70 S __ZNSt8_Rb_treeIiiSt9_IdentityIiESt4lessIiESaIiEE5eraseERKi
000ea3b0 S __ZNSt8_Rb_treeIiiSt9_IdentityIiESt4lessIiESaIiEE5eraseERKi.eh
000e2080 S __ZNSt8_Rb_treeIiiSt9_IdentityIiESt4lessIiESaIiEE8_M_eraseEPSt13_Rb_tree_nodeIiE
000ea3d0 S __ZNSt8_Rb_treeIiiSt9_IdentityIiESt4lessIiESaIiEE8_M_eraseEPSt13_Rb_tree_nodeIiE.eh
         U __ZNSt8ios_base4InitC1Ev
         U __ZNSt8ios_base4InitD1Ev
         U __ZSt17__throw_bad_allocv
         U __ZSt18_Rb_tree_decrementPSt18_Rb_tree_node_base
         U __ZSt18_Rb_tree_incrementPSt18_Rb_tree_node_base
         U __ZSt20__throw_length_errorPKc
000e03e0 S __ZSt24__uninitialized_copy_auxIN9__gnu_cxx17__normal_iteratorIPKN4Poco9SharedPtrINS2_16AbstractDelegateI10ofDragInfoEENS2_16ReferenceCounterENS2_13ReleasePolicyIS6_EEEESt6vectorISA_SaISA_EEEEPSA_ET0_T_SJ_SI_St12__false_type
000e9f1c S __ZSt24__uninitialized_copy_auxIN9__gnu_cxx17__normal_iteratorIPKN4Poco9SharedPtrINS2_16AbstractDelegateI10ofDragInfoEENS2_16ReferenceCounterENS2_13ReleasePolicyIS6_EEEESt6vectorISA_SaISA_EEEEPSA_ET0_T_SJ_SI_St12__false_type.eh
000e3c00 S __ZSt24__uninitialized_copy_auxIN9__gnu_cxx17__normal_iteratorIPKN4Poco9SharedPtrINS2_16AbstractDelegateI11ofEventArgsEENS2_16ReferenceCounterENS2_13ReleasePolicyIS6_EEEESt6vectorISA_SaISA_EEEEPSA_ET0_T_SJ_SI_St12__false_type
000ea85c S __ZSt24__uninitialized_copy_auxIN9__gnu_cxx17__normal_iteratorIPKN4Poco9SharedPtrINS2_16AbstractDelegateI11ofEventArgsEENS2_16ReferenceCounterENS2_13ReleasePolicyIS6_EEEESt6vectorISA_SaISA_EEEEPSA_ET0_T_SJ_SI_St12__false_type.eh
000e2d90 S __ZSt24__uninitialized_copy_auxIN9__gnu_cxx17__normal_iteratorIPKN4Poco9SharedPtrINS2_16AbstractDelegateI14ofKeyEventArgsEENS2_16ReferenceCounterENS2_13ReleasePolicyIS6_EEEESt6vectorISA_SaISA_EEEEPSA_ET0_T_SJ_SI_St12__false_type
000ea604 S __ZSt24__uninitialized_copy_auxIN9__gnu_cxx17__normal_iteratorIPKN4Poco9SharedPtrINS2_16AbstractDelegateI14ofKeyEventArgsEENS2_16ReferenceCounterENS2_13ReleasePolicyIS6_EEEESt6vectorISA_SaISA_EEEEPSA_ET0_T_SJ_SI_St12__false_type.eh
000de820 S __ZSt24__uninitialized_copy_auxIN9__gnu_cxx17__normal_iteratorIPKN4Poco9SharedPtrINS2_16AbstractDelegateI16ofEntryEventArgsEENS2_16ReferenceCounterENS2_13ReleasePolicyIS6_EEEESt6vectorISA_SaISA_EEEEPSA_ET0_T_SJ_SI_St12__false_type
000e9a88 S __ZSt24__uninitialized_copy_auxIN9__gnu_cxx17__normal_iteratorIPKN4Poco9SharedPtrINS2_16AbstractDelegateI16ofEntryEventArgsEENS2_16ReferenceCounterENS2_13ReleasePolicyIS6_EEEESt6vectorISA_SaISA_EEEEPSA_ET0_T_SJ_SI_St12__false_type.eh
000e1ec0 S __ZSt24__uninitialized_copy_auxIN9__gnu_cxx17__normal_iteratorIPKN4Poco9SharedPtrINS2_16AbstractDelegateI16ofMouseEventArgsEENS2_16ReferenceCounterENS2_13ReleasePolicyIS6_EEEESt6vectorISA_SaISA_EEEEPSA_ET0_T_SJ_SI_St12__false_type
000ea38c S __ZSt24__uninitialized_copy_auxIN9__gnu_cxx17__normal_iteratorIPKN4Poco9SharedPtrINS2_16AbstractDelegateI16ofMouseEventArgsEENS2_16ReferenceCounterENS2_13ReleasePolicyIS6_EEEESt6vectorISA_SaISA_EEEEPSA_ET0_T_SJ_SI_St12__false_type.eh
000e1150 S __ZSt24__uninitialized_copy_auxIN9__gnu_cxx17__normal_iteratorIPKN4Poco9SharedPtrINS2_16AbstractDelegateI17ofResizeEventArgsEENS2_16ReferenceCounterENS2_13ReleasePolicyIS6_EEEESt6vectorISA_SaISA_EEEEPSA_ET0_T_SJ_SI_St12__false_type
000ea154 S __ZSt24__uninitialized_copy_auxIN9__gnu_cxx17__normal_iteratorIPKN4Poco9SharedPtrINS2_16AbstractDelegateI17ofResizeEventArgsEENS2_16ReferenceCounterENS2_13ReleasePolicyIS6_EEEESt6vectorISA_SaISA_EEEEPSA_ET0_T_SJ_SI_St12__false_type.eh
000df670 S __ZSt24__uninitialized_copy_auxIN9__gnu_cxx17__normal_iteratorIPKN4Poco9SharedPtrINS2_16AbstractDelegateI9ofMessageEENS2_16ReferenceCounterENS2_13ReleasePolicyIS6_EEEESt6vectorISA_SaISA_EEEEPSA_ET0_T_SJ_SI_St12__false_type
000e9ce4 S __ZSt24__uninitialized_copy_auxIN9__gnu_cxx17__normal_iteratorIPKN4Poco9SharedPtrINS2_16AbstractDelegateI9ofMessageEENS2_16ReferenceCounterENS2_13ReleasePolicyIS6_EEEESt6vectorISA_SaISA_EEEEPSA_ET0_T_SJ_SI_St12__false_type.eh
000e3d60 S __ZSt24__uninitialized_copy_auxIN9__gnu_cxx17__normal_iteratorIPKSsSt6vectorISsSaISsEEEEPSsET0_T_SA_S9_St12__false_type
000ea8a4 S __ZSt24__uninitialized_copy_auxIN9__gnu_cxx17__normal_iteratorIPKSsSt6vectorISsSaISsEEEEPSsET0_T_SA_S9_St12__false_type.eh
000e0200 S __ZSt24__uninitialized_copy_auxIPN4Poco9SharedPtrINS0_16AbstractDelegateI10ofDragInfoEENS0_16ReferenceCounterENS0_13ReleasePolicyIS4_EEEES9_ET0_T_SB_SA_St12__false_type
000e9eb0 S __ZSt24__uninitialized_copy_auxIPN4Poco9SharedPtrINS0_16AbstractDelegateI10ofDragInfoEENS0_16ReferenceCounterENS0_13ReleasePolicyIS4_EEEES9_ET0_T_SB_SA_St12__false_type.eh
000e3a20 S __ZSt24__uninitialized_copy_auxIPN4Poco9SharedPtrINS0_16AbstractDelegateI11ofEventArgsEENS0_16ReferenceCounterENS0_13ReleasePolicyIS4_EEEES9_ET0_T_SB_SA_St12__false_type
000ea7f0 S __ZSt24__uninitialized_copy_auxIPN4Poco9SharedPtrINS0_16AbstractDelegateI11ofEventArgsEENS0_16ReferenceCounterENS0_13ReleasePolicyIS4_EEEES9_ET0_T_SB_SA_St12__false_type.eh
000e2bb0 S __ZSt24__uninitialized_copy_auxIPN4Poco9SharedPtrINS0_16AbstractDelegateI14ofKeyEventArgsEENS0_16ReferenceCounterENS0_13ReleasePolicyIS4_EEEES9_ET0_T_SB_SA_St12__false_type
000ea598 S __ZSt24__uninitialized_copy_auxIPN4Poco9SharedPtrINS0_16AbstractDelegateI14ofKeyEventArgsEENS0_16ReferenceCounterENS0_13ReleasePolicyIS4_EEEES9_ET0_T_SB_SA_St12__false_type.eh
000e5290 S __ZSt24__uninitialized_copy_auxIPN4Poco9SharedPtrINS0_16AbstractDelegateI16ofAudioEventArgsEENS0_16ReferenceCounterENS0_13ReleasePolicyIS4_EEEES9_ET0_T_SB_SA_St12__false_type
000eada8 S __ZSt24__uninitialized_copy_auxIPN4Poco9SharedPtrINS0_16AbstractDelegateI16ofAudioEventArgsEENS0_16ReferenceCounterENS0_13ReleasePolicyIS4_EEEES9_ET0_T_SB_SA_St12__false_type.eh
000de560 S __ZSt24__uninitialized_copy_auxIPN4Poco9SharedPtrINS0_16AbstractDelegateI16ofEntryEventArgsEENS0_16ReferenceCounterENS0_13ReleasePolicyIS4_EEEES9_ET0_T_SB_SA_St12__false_type
000e99f8 S __ZSt24__uninitialized_copy_auxIPN4Poco9SharedPtrINS0_16AbstractDelegateI16ofEntryEventArgsEENS0_16ReferenceCounterENS0_13ReleasePolicyIS4_EEEES9_ET0_T_SB_SA_St12__false_type.eh
000e1ce0 S __ZSt24__uninitialized_copy_auxIPN4Poco9SharedPtrINS0_16AbstractDelegateI16ofMouseEventArgsEENS0_16ReferenceCounterENS0_13ReleasePolicyIS4_EEEES9_ET0_T_SB_SA_St12__false_type
000ea320 S __ZSt24__uninitialized_copy_auxIPN4Poco9SharedPtrINS0_16AbstractDelegateI16ofMouseEventArgsEENS0_16ReferenceCounterENS0_13ReleasePolicyIS4_EEEES9_ET0_T_SB_SA_St12__false_type.eh
000e5df0 S __ZSt24__uninitialized_copy_auxIPN4Poco9SharedPtrINS0_16AbstractDelegateI16ofTouchEventArgsEENS0_16ReferenceCounterENS0_13ReleasePolicyIS4_EEEES9_ET0_T_SB_SA_St12__false_type
000eafb4 S __ZSt24__uninitialized_copy_auxIPN4Poco9SharedPtrINS0_16AbstractDelegateI16ofTouchEventArgsEENS0_16ReferenceCounterENS0_13ReleasePolicyIS4_EEEES9_ET0_T_SB_SA_St12__false_type.eh
000e0f70 S __ZSt24__uninitialized_copy_auxIPN4Poco9SharedPtrINS0_16AbstractDelegateI17ofResizeEventArgsEENS0_16ReferenceCounterENS0_13ReleasePolicyIS4_EEEES9_ET0_T_SB_SA_St12__false_type
000ea0e8 S __ZSt24__uninitialized_copy_auxIPN4Poco9SharedPtrINS0_16AbstractDelegateI17ofResizeEventArgsEENS0_16ReferenceCounterENS0_13ReleasePolicyIS4_EEEES9_ET0_T_SB_SA_St12__false_type.eh
000df490 S __ZSt24__uninitialized_copy_auxIPN4Poco9SharedPtrINS0_16AbstractDelegateI9ofMessageEENS0_16ReferenceCounterENS0_13ReleasePolicyIS4_EEEES9_ET0_T_SB_SA_St12__false_type
000e9c78 S __ZSt24__uninitialized_copy_auxIPN4Poco9SharedPtrINS0_16AbstractDelegateI9ofMessageEENS0_16ReferenceCounterENS0_13ReleasePolicyIS4_EEEES9_ET0_T_SB_SA_St12__false_type.eh
         U __ZSt28_Rb_tree_rebalance_for_erasePSt18_Rb_tree_node_baseRS_
         U __ZSt29_Rb_tree_insert_and_rebalancebPSt18_Rb_tree_node_baseS0_RS_
         U __ZSt9terminatev
000ee1d8 b __ZStL8__ioinit
000e83a0 S __ZTI7ofEventI10ofDragInfoE
000e85a8 S __ZTI7ofEventI11ofEventArgsE
000e8518 S __ZTI7ofEventI14ofKeyEventArgsE
000e8478 S __ZTI7ofEventI16ofAudioEventArgsE
000e8578 S __ZTI7ofEventI16ofEntryEventArgsE
000e84e8 S __ZTI7ofEventI16ofMouseEventArgsE
000e8410 S __ZTI7ofEventI16ofTouchEventArgsE
000e8548 S __ZTI7ofEventI17ofResizeEventArgsE
000e83e0 S __ZTI7ofEventI9ofMessageE
000e8018 S __ZTIN4Poco12FIFOStrategyI10ofDragInfoNS_16AbstractDelegateIS1_EEEE
000e8218 S __ZTIN4Poco12FIFOStrategyI11ofEventArgsNS_16AbstractDelegateIS1_EEEE
000e8198 S __ZTIN4Poco12FIFOStrategyI14ofKeyEventArgsNS_16AbstractDelegateIS1_EEEE
000e84b8 S __ZTIN4Poco12FIFOStrategyI16ofAudioEventArgsNS_16AbstractDelegateIS1_EEEE
000e7f18 S __ZTIN4Poco12FIFOStrategyI16ofEntryEventArgsNS_16AbstractDelegateIS1_EEEE
000e8118 S __ZTIN4Poco12FIFOStrategyI16ofMouseEventArgsNS_16AbstractDelegateIS1_EEEE
000e8448 S __ZTIN4Poco12FIFOStrategyI16ofTouchEventArgsNS_16AbstractDelegateIS1_EEEE
000e8098 S __ZTIN4Poco12FIFOStrategyI17ofResizeEventArgsNS_16AbstractDelegateIS1_EEEE
000e7f98 S __ZTIN4Poco12FIFOStrategyI9ofMessageNS_16AbstractDelegateIS1_EEEE
000e8388 S __ZTIN4Poco13AbstractEventI10ofDragInfoNS_12FIFOStrategyIS1_NS_16AbstractDelegateIS1_EEEES4_NS_9FastMutexEEE
000e8238 S __ZTIN4Poco13AbstractEventI11ofEventArgsNS_12FIFOStrategyIS1_NS_16AbstractDelegateIS1_EEEES4_NS_9FastMutexEEE
000e8280 S __ZTIN4Poco13AbstractEventI14ofKeyEventArgsNS_12FIFOStrategyIS1_NS_16AbstractDelegateIS1_EEEES4_NS_9FastMutexEEE
000e82b0 S __ZTIN4Poco13AbstractEventI16ofAudioEventArgsNS_12FIFOStrategyIS1_NS_16AbstractDelegateIS1_EEEES4_NS_9FastMutexEEE
000e8250 S __ZTIN4Poco13AbstractEventI16ofEntryEventArgsNS_12FIFOStrategyIS1_NS_16AbstractDelegateIS1_EEEES4_NS_9FastMutexEEE
000e8298 S __ZTIN4Poco13AbstractEventI16ofMouseEventArgsNS_12FIFOStrategyIS1_NS_16AbstractDelegateIS1_EEEES4_NS_9FastMutexEEE
000e8310 S __ZTIN4Poco13AbstractEventI16ofTouchEventArgsNS_12FIFOStrategyIS1_NS_16AbstractDelegateIS1_EEEES4_NS_9FastMutexEEE
000e8268 S __ZTIN4Poco13AbstractEventI17ofResizeEventArgsNS_12FIFOStrategyIS1_NS_16AbstractDelegateIS1_EEEES4_NS_9FastMutexEEE
000e8370 S __ZTIN4Poco13AbstractEventI9ofMessageNS_12FIFOStrategyIS1_NS_16AbstractDelegateIS1_EEEES4_NS_9FastMutexEEE
000e7fe0 S __ZTIN4Poco15DefaultStrategyI10ofDragInfoNS_16AbstractDelegateIS1_EEEE
000e81e0 S __ZTIN4Poco15DefaultStrategyI11ofEventArgsNS_16AbstractDelegateIS1_EEEE
000e8160 S __ZTIN4Poco15DefaultStrategyI14ofKeyEventArgsNS_16AbstractDelegateIS1_EEEE
000e82f0 S __ZTIN4Poco15DefaultStrategyI16ofAudioEventArgsNS_16AbstractDelegateIS1_EEEE
000e7ee0 S __ZTIN4Poco15DefaultStrategyI16ofEntryEventArgsNS_16AbstractDelegateIS1_EEEE
000e80e0 S __ZTIN4Poco15DefaultStrategyI16ofMouseEventArgsNS_16AbstractDelegateIS1_EEEE
000e8350 S __ZTIN4Poco15DefaultStrategyI16ofTouchEventArgsNS_16AbstractDelegateIS1_EEEE
000e8060 S __ZTIN4Poco15DefaultStrategyI17ofResizeEventArgsNS_16AbstractDelegateIS1_EEEE
000e7f60 S __ZTIN4Poco15DefaultStrategyI9ofMessageNS_16AbstractDelegateIS1_EEEE
         U __ZTIN4Poco15SystemExceptionE
000e7fd8 S __ZTIN4Poco20NotificationStrategyI10ofDragInfoNS_16AbstractDelegateIS1_EEEE
000e81d8 S __ZTIN4Poco20NotificationStrategyI11ofEventArgsNS_16AbstractDelegateIS1_EEEE
000e8158 S __ZTIN4Poco20NotificationStrategyI14ofKeyEventArgsNS_16AbstractDelegateIS1_EEEE
000e82e8 S __ZTIN4Poco20NotificationStrategyI16ofAudioEventArgsNS_16AbstractDelegateIS1_EEEE
000e7ed8 S __ZTIN4Poco20NotificationStrategyI16ofEntryEventArgsNS_16AbstractDelegateIS1_EEEE
000e80d8 S __ZTIN4Poco20NotificationStrategyI16ofMouseEventArgsNS_16AbstractDelegateIS1_EEEE
000e8348 S __ZTIN4Poco20NotificationStrategyI16ofTouchEventArgsNS_16AbstractDelegateIS1_EEEE
000e8058 S __ZTIN4Poco20NotificationStrategyI17ofResizeEventArgsNS_16AbstractDelegateIS1_EEEE
000e7f58 S __ZTIN4Poco20NotificationStrategyI9ofMessageNS_16AbstractDelegateIS1_EEEE
         U __ZTIN4Poco20NullPointerExceptionE
000e8390 S __ZTIN4Poco9FIFOEventI10ofDragInfoNS_9FastMutexEEE
000e8598 S __ZTIN4Poco9FIFOEventI11ofEventArgsNS_9FastMutexEEE
000e8508 S __ZTIN4Poco9FIFOEventI14ofKeyEventArgsNS_9FastMutexEEE
000e8468 S __ZTIN4Poco9FIFOEventI16ofAudioEventArgsNS_9FastMutexEEE
000e8568 S __ZTIN4Poco9FIFOEventI16ofEntryEventArgsNS_9FastMutexEEE
000e84d8 S __ZTIN4Poco9FIFOEventI16ofMouseEventArgsNS_9FastMutexEEE
000e8400 S __ZTIN4Poco9FIFOEventI16ofTouchEventArgsNS_9FastMutexEEE
000e8538 S __ZTIN4Poco9FIFOEventI17ofResizeEventArgsNS_9FastMutexEEE
000e83d0 S __ZTIN4Poco9FIFOEventI9ofMessageNS_9FastMutexEEE
000e90d0 S __ZTS7ofEventI10ofDragInfoE
000e94c0 S __ZTS7ofEventI11ofEventArgsE
000e93a0 S __ZTS7ofEventI14ofKeyEventArgsE
000e9290 S __ZTS7ofEventI16ofAudioEventArgsE
000e9460 S __ZTS7ofEventI16ofEntryEventArgsE
000e9340 S __ZTS7ofEventI16ofMouseEventArgsE
000e91e0 S __ZTS7ofEventI16ofTouchEventArgsE
000e9400 S __ZTS7ofEventI17ofResizeEventArgsE
000e9190 S __ZTS7ofEventI9ofMessageE
000e8820 S __ZTSN4Poco12FIFOStrategyI10ofDragInfoNS_16AbstractDelegateIS1_EEEE
000e8bd0 S __ZTSN4Poco12FIFOStrategyI11ofEventArgsNS_16AbstractDelegateIS1_EEEE
000e8ae0 S __ZTSN4Poco12FIFOStrategyI14ofKeyEventArgsNS_16AbstractDelegateIS1_EEEE
000e92f0 S __ZTSN4Poco12FIFOStrategyI16ofAudioEventArgsNS_16AbstractDelegateIS1_EEEE
000e8660 S __ZTSN4Poco12FIFOStrategyI16ofEntryEventArgsNS_16AbstractDelegateIS1_EEEE
000e89f0 S __ZTSN4Poco12FIFOStrategyI16ofMouseEventArgsNS_16AbstractDelegateIS1_EEEE
000e9240 S __ZTSN4Poco12FIFOStrategyI16ofTouchEventArgsNS_16AbstractDelegateIS1_EEEE
000e8900 S __ZTSN4Poco12FIFOStrategyI17ofResizeEventArgsNS_16AbstractDelegateIS1_EEEE
000e8740 S __ZTSN4Poco12FIFOStrategyI9ofMessageNS_16AbstractDelegateIS1_EEEE
000e9120 S __ZTSN4Poco13AbstractEventI10ofDragInfoNS_12FIFOStrategyIS1_NS_16AbstractDelegateIS1_EEEES4_NS_9FastMutexEEE
000e8c10 S __ZTSN4Poco13AbstractEventI11ofEventArgsNS_12FIFOStrategyIS1_NS_16AbstractDelegateIS1_EEEES4_NS_9FastMutexEEE
000e8d60 S __ZTSN4Poco13AbstractEventI14ofKeyEventArgsNS_12FIFOStrategyIS1_NS_16AbstractDelegateIS1_EEEES4_NS_9FastMutexEEE
000e8e40 S __ZTSN4Poco13AbstractEventI16ofAudioEventArgsNS_12FIFOStrategyIS1_NS_16AbstractDelegateIS1_EEEES4_NS_9FastMutexEEE
000e8c80 S __ZTSN4Poco13AbstractEventI16ofEntryEventArgsNS_12FIFOStrategyIS1_NS_16AbstractDelegateIS1_EEEES4_NS_9FastMutexEEE
000e8dd0 S __ZTSN4Poco13AbstractEventI16ofMouseEventArgsNS_12FIFOStrategyIS1_NS_16AbstractDelegateIS1_EEEES4_NS_9FastMutexEEE
000e8f50 S __ZTSN4Poco13AbstractEventI16ofTouchEventArgsNS_12FIFOStrategyIS1_NS_16AbstractDelegateIS1_EEEES4_NS_9FastMutexEEE
000e8cf0 S __ZTSN4Poco13AbstractEventI17ofResizeEventArgsNS_12FIFOStrategyIS1_NS_16AbstractDelegateIS1_EEEES4_NS_9FastMutexEEE
000e9060 S __ZTSN4Poco13AbstractEventI9ofMessageNS_12FIFOStrategyIS1_NS_16AbstractDelegateIS1_EEEES4_NS_9FastMutexEEE
000e8780 S __ZTSN4Poco15DefaultStrategyI10ofDragInfoNS_16AbstractDelegateIS1_EEEE
000e8b30 S __ZTSN4Poco15DefaultStrategyI11ofEventArgsNS_16AbstractDelegateIS1_EEEE
000e8a40 S __ZTSN4Poco15DefaultStrategyI14ofKeyEventArgsNS_16AbstractDelegateIS1_EEEE
000e8eb0 S __ZTSN4Poco15DefaultStrategyI16ofAudioEventArgsNS_16AbstractDelegateIS1_EEEE
000e85c0 S __ZTSN4Poco15DefaultStrategyI16ofEntryEventArgsNS_16AbstractDelegateIS1_EEEE
000e8950 S __ZTSN4Poco15DefaultStrategyI16ofMouseEventArgsNS_16AbstractDelegateIS1_EEEE
000e8fc0 S __ZTSN4Poco15DefaultStrategyI16ofTouchEventArgsNS_16AbstractDelegateIS1_EEEE
000e8860 S __ZTSN4Poco15DefaultStrategyI17ofResizeEventArgsNS_16AbstractDelegateIS1_EEEE
000e86b0 S __ZTSN4Poco15DefaultStrategyI9ofMessageNS_16AbstractDelegateIS1_EEEE
000e87d0 S __ZTSN4Poco20NotificationStrategyI10ofDragInfoNS_16AbstractDelegateIS1_EEEE
000e8b80 S __ZTSN4Poco20NotificationStrategyI11ofEventArgsNS_16AbstractDelegateIS1_EEEE
000e8a90 S __ZTSN4Poco20NotificationStrategyI14ofKeyEventArgsNS_16AbstractDelegateIS1_EEEE
000e8f00 S __ZTSN4Poco20NotificationStrategyI16ofAudioEventArgsNS_16AbstractDelegateIS1_EEEE
000e8610 S __ZTSN4Poco20NotificationStrategyI16ofEntryEventArgsNS_16AbstractDelegateIS1_EEEE
000e89a0 S __ZTSN4Poco20NotificationStrategyI16ofMouseEventArgsNS_16AbstractDelegateIS1_EEEE
000e9010 S __ZTSN4Poco20NotificationStrategyI16ofTouchEventArgsNS_16AbstractDelegateIS1_EEEE
000e88b0 S __ZTSN4Poco20NotificationStrategyI17ofResizeEventArgsNS_16AbstractDelegateIS1_EEEE
000e86f0 S __ZTSN4Poco20NotificationStrategyI9ofMessageNS_16AbstractDelegateIS1_EEEE
000e90f0 S __ZTSN4Poco9FIFOEventI10ofDragInfoNS_9FastMutexEEE
000e94e0 S __ZTSN4Poco9FIFOEventI11ofEventArgsNS_9FastMutexEEE
000e93c0 S __ZTSN4Poco9FIFOEventI14ofKeyEventArgsNS_9FastMutexEEE
000e92b0 S __ZTSN4Poco9FIFOEventI16ofAudioEventArgsNS_9FastMutexEEE
000e9480 S __ZTSN4Poco9FIFOEventI16ofEntryEventArgsNS_9FastMutexEEE
000e9360 S __ZTSN4Poco9FIFOEventI16ofMouseEventArgsNS_9FastMutexEEE
000e9200 S __ZTSN4Poco9FIFOEventI16ofTouchEventArgsNS_9FastMutexEEE
000e9420 S __ZTSN4Poco9FIFOEventI17ofResizeEventArgsNS_9FastMutexEEE
000e91b0 S __ZTSN4Poco9FIFOEventI9ofMessageNS_9FastMutexEEE
000e8378 S __ZTV7ofEventI10ofDragInfoE
000e8584 S __ZTV7ofEventI11ofEventArgsE
000e84f4 S __ZTV7ofEventI14ofKeyEventArgsE
000e8454 S __ZTV7ofEventI16ofAudioEventArgsE
000e8554 S __ZTV7ofEventI16ofEntryEventArgsE
000e84c4 S __ZTV7ofEventI16ofMouseEventArgsE
000e83ec S __ZTV7ofEventI16ofTouchEventArgsE
000e8524 S __ZTV7ofEventI17ofResizeEventArgsE
000e83bc S __ZTV7ofEventI9ofMessageE
         U __ZTVN10__cxxabiv117__class_type_infoE
         U __ZTVN10__cxxabiv120__si_class_type_infoE
000e7ff0 S __ZTVN4Poco12FIFOStrategyI10ofDragInfoNS_16AbstractDelegateIS1_EEEE
000e81f0 S __ZTVN4Poco12FIFOStrategyI11ofEventArgsNS_16AbstractDelegateIS1_EEEE
000e8170 S __ZTVN4Poco12FIFOStrategyI14ofKeyEventArgsNS_16AbstractDelegateIS1_EEEE
000e8490 S __ZTVN4Poco12FIFOStrategyI16ofAudioEventArgsNS_16AbstractDelegateIS1_EEEE
000e7ef0 S __ZTVN4Poco12FIFOStrategyI16ofEntryEventArgsNS_16AbstractDelegateIS1_EEEE
000e80f0 S __ZTVN4Poco12FIFOStrategyI16ofMouseEventArgsNS_16AbstractDelegateIS1_EEEE
000e8420 S __ZTVN4Poco12FIFOStrategyI16ofTouchEventArgsNS_16AbstractDelegateIS1_EEEE
000e8070 S __ZTVN4Poco12FIFOStrategyI17ofResizeEventArgsNS_16AbstractDelegateIS1_EEEE
000e7f70 S __ZTVN4Poco12FIFOStrategyI9ofMessageNS_16AbstractDelegateIS1_EEEE
000e83ac S __ZTVN4Poco13AbstractEventI10ofDragInfoNS_12FIFOStrategyIS1_NS_16AbstractDelegateIS1_EEEES4_NS_9FastMutexEEE
000e8224 S __ZTVN4Poco13AbstractEventI11ofEventArgsNS_12FIFOStrategyIS1_NS_16AbstractDelegateIS1_EEEES4_NS_9FastMutexEEE
000e8270 S __ZTVN4Poco13AbstractEventI14ofKeyEventArgsNS_12FIFOStrategyIS1_NS_16AbstractDelegateIS1_EEEES4_NS_9FastMutexEEE
000e82a0 S __ZTVN4Poco13AbstractEventI16ofAudioEventArgsNS_12FIFOStrategyIS1_NS_16AbstractDelegateIS1_EEEES4_NS_9FastMutexEEE
000e8240 S __ZTVN4Poco13AbstractEventI16ofEntryEventArgsNS_12FIFOStrategyIS1_NS_16AbstractDelegateIS1_EEEES4_NS_9FastMutexEEE
000e8288 S __ZTVN4Poco13AbstractEventI16ofMouseEventArgsNS_12FIFOStrategyIS1_NS_16AbstractDelegateIS1_EEEES4_NS_9FastMutexEEE
000e82fc S __ZTVN4Poco13AbstractEventI16ofTouchEventArgsNS_12FIFOStrategyIS1_NS_16AbstractDelegateIS1_EEEES4_NS_9FastMutexEEE
000e8258 S __ZTVN4Poco13AbstractEventI17ofResizeEventArgsNS_12FIFOStrategyIS1_NS_16AbstractDelegateIS1_EEEES4_NS_9FastMutexEEE
000e835c S __ZTVN4Poco13AbstractEventI9ofMessageNS_12FIFOStrategyIS1_NS_16AbstractDelegateIS1_EEEES4_NS_9FastMutexEEE
000e7fb0 S __ZTVN4Poco15DefaultStrategyI10ofDragInfoNS_16AbstractDelegateIS1_EEEE
000e81b0 S __ZTVN4Poco15DefaultStrategyI11ofEventArgsNS_16AbstractDelegateIS1_EEEE
000e8130 S __ZTVN4Poco15DefaultStrategyI14ofKeyEventArgsNS_16AbstractDelegateIS1_EEEE
000e82c0 S __ZTVN4Poco15DefaultStrategyI16ofAudioEventArgsNS_16AbstractDelegateIS1_EEEE
000e7eb0 S __ZTVN4Poco15DefaultStrategyI16ofEntryEventArgsNS_16AbstractDelegateIS1_EEEE
000e80b0 S __ZTVN4Poco15DefaultStrategyI16ofMouseEventArgsNS_16AbstractDelegateIS1_EEEE
000e8320 S __ZTVN4Poco15DefaultStrategyI16ofTouchEventArgsNS_16AbstractDelegateIS1_EEEE
000e8030 S __ZTVN4Poco15DefaultStrategyI17ofResizeEventArgsNS_16AbstractDelegateIS1_EEEE
000e7f30 S __ZTVN4Poco15DefaultStrategyI9ofMessageNS_16AbstractDelegateIS1_EEEE
000ee228 b __ZZ18ofNotifyKeyPressediE12keyEventArgs
000ee254 b __ZZ18ofNotifyMouseMovediiE14mouseEventArgs
000ee22c b __ZZ19ofNotifyKeyReleasediE12keyEventArgs
000ee268 b __ZZ19ofNotifyWindowEntryiE9entryArgs
000ee248 b __ZZ20ofNotifyMouseDraggediiiE14mouseEventArgs
000ee230 b __ZZ20ofNotifyMousePressediiiE14mouseEventArgs
000ee23c b __ZZ21ofNotifyMouseReleasediiiE14mouseEventArgs
000ee260 b __ZZ21ofNotifyWindowResizediiE15resizeEventArgs
000ee1dc b __ZZ8ofEventsvE6events
         U __ZdlPv
         U __Znwm
         U ___cxa_allocate_exception
         U ___cxa_atexit
         U ___cxa_begin_catch
         U ___cxa_end_catch
         U ___cxa_free_exception
         U ___cxa_guard_abort
         U ___cxa_guard_acquire
         U ___cxa_guard_release
         U ___cxa_rethrow
         U ___cxa_throw
         U ___dso_handle
         U ___gxx_personality_v0
         U _exit
         U _pthread_mutex_lock
         U _pthread_mutex_unlock
000ee26c S _voidEventArgs

../../../libs/openFrameworksCompiled/lib/osx/openFrameworks.a(ofQtUtils-7805BED1DF6F668C.o):
000081e8 s EH_frame0
         U _BeginUpdate
         U _CFDataCreate
         U _CFDataGetBytePtr
         U _CFDataGetLength
         U _CFPreferencesAppSynchronize
         U _CFPreferencesCopyAppValue
         U _CFPreferencesSetAppValue
         U _CFRelease
         U _DisposeHandle
         U _EndUpdate
         U _EnterMovies
         U _ExitMovies
         U _Fix2X
         U _GetHandleSize
         U _GetMediaDuration
         U _GetMediaHandler
         U _GetMediaSampleCount
         U _GetMediaTimeScale
         U _GetMovieIndTrackType
         U _GetMoviesError
         U _GetTrackMedia
         U _HLock
         U _MediaGetPublicInfo
         U _MediaHasCharacteristic
         U _MemError
         U _NewHandle
         U _NewUserDataFromHandle
         U _PtrToHand
         U _PutUserDataIntoHandle
000080a0 s __GLOBAL__I_a
00008350 s __GLOBAL__I_a.eh
000000d0 T __Z13convertPixelsPhS_ii
0000823c S __Z13convertPixelsPhS_ii.eh
000000a0 T __Z14closeQuicktimev
00008220 S __Z14closeQuicktimev.eh
00000370 T __Z18IsMPEGMediaHandlerP23ComponentInstanceRecordPh
000082b8 S __Z18IsMPEGMediaHandlerP23ComponentInstanceRecordPh.eh
00000000 T __Z19initializeQuicktimev
00008200 S __Z19initializeQuicktimev.eh
00000480 T __Z21GetSettingsPreferencePK10__CFStringPPP14UserDataRecord
00008310 S __Z21GetSettingsPreferencePK10__CFStringPPP14UserDataRecord.eh
00000530 T __Z22SaveSettingsPreferencePK10__CFStringPP14UserDataRecord
00008330 S __Z22SaveSettingsPreferencePK10__CFStringPP14UserDataRecord.eh
000003f0 T __Z23MediaGetStaticFrameRatePP9MediaTypePd
000082f0 S __Z23MediaGetStaticFrameRatePP9MediaTypePd.eh
00000180 T __Z23MovieGetStaticFrameRatePP9MovieTypePd
00008278 S __Z23MovieGetStaticFrameRatePP9MovieTypePd.eh
00000140 T __Z24SeqGrabberModalFilterUPPP15OpaqueDialogPtrPK11EventRecordPsl
0000825c S __Z24SeqGrabberModalFilterUPPP15OpaqueDialogPtrPK11EventRecordPsl.eh
000003a0 T __Z27MPEGMediaGetStaticFrameRateP23ComponentInstanceRecordPl
000082d4 S __Z27MPEGMediaGetStaticFrameRateP23ComponentInstanceRecordPl.eh
00000310 T __Z33MovieGetVideoMediaAndMediaHandlerPP9MovieTypePPP9MediaTypePP23ComponentInstanceRecord
00008298 S __Z33MovieGetVideoMediaAndMediaHandlerPP9MovieTypePPP9MediaTypePP23ComponentInstanceRecord.eh
00008371 b __ZL21bQuicktimeInitialized.b
         U __ZN5ofLogC1E10ofLogLevelPKcz
         U __ZN5ofLogD1Ev
         U __ZNSt8ios_base4InitC1Ev
         U __ZNSt8ios_base4InitD1Ev
00008370 b __ZStL8__ioinit
         U ___cxa_atexit
         U ___dso_handle
         U _exit
         U _kCFAllocatorDefault
         U _kCFPreferencesCurrentApplication

../../../libs/openFrameworksCompiled/lib/osx/openFrameworks.a(ofQuickTimeGrabber.o):
00017c54 s EH_frame0
00017dac s EH_frame1
00017004 s GCC_except_table0
00017044 s GCC_except_table1
00017190 s GCC_except_table16
000171cc s GCC_except_table18
00017084 s GCC_except_table2
000170a4 s GCC_except_table3
00017284 s GCC_except_table33
000172b0 s GCC_except_table34
000170c4 s GCC_except_table4
000170e4 s GCC_except_table5
00017104 s GCC_except_table6
00017150 s GCC_except_table7
00017170 s GCC_except_table8
         U _CFStringCreateWithCString
         U _CFStringCreateWithPascalString
         U _CFStringGetCStringPtr
         U _CloseComponent
         U _DisposeUserData
         U _FindNextComponent
         U _GetGWorldPixMap
         U _GetMoviesError
         U _LockPixels
         U _OpenComponent
         U _QTNewGWorldFromPtr
         U _SGGetChannelBounds
         U _SGGetChannelDeviceList
         U _SGGetChannelSettings
         U _SGGetVideoBottlenecks
         U _SGGetVideoRect
         U _SGGrabFrameComplete
         U _SGIdle
         U _SGInitialize
         U _SGNewChannel
         U _SGPause
         U _SGPrepare
         U _SGSetChannelBounds
         U _SGSetChannelDevice
         U _SGSetChannelDeviceInput
         U _SGSetChannelRefCon
         U _SGSetChannelSettings
         U _SGSetChannelUsage
         U _SGSetDataRef
         U _SGSetFrameRate
         U _SGSetGWorld
         U _SGSetVideoBottlenecks
         U _SGSettingsDialog
         U _SGStartPreview
         U _SGStop
         U _SetGWorld
         U _SetRect
000173d0 s __GLOBAL__I_a
00018144 s __GLOBAL__I_a.eh
         U __Unwind_Resume
         U __Z19initializeQuicktimev
         U __Z21GetSettingsPreferencePK10__CFStringPPP14UserDataRecord
         U __Z22SaveSettingsPreferencePK10__CFStringPP14UserDataRecord
         U __Z24SeqGrabberModalFilterUPPP15OpaqueDialogPtrPK11EventRecordPsl
00018410 b __ZGVZN18ofQuickTimeGrabber13videoSettingsEvE25gSeqGrabberModalFilterUPP
00001150 t __ZL18frameIsGrabbedProcP23ComponentInstanceRecordsPhl
00017e78 s __ZL18frameIsGrabbedProcP23ComponentInstanceRecordsPhl.eh
00017390 S __ZN11ofBaseVideoD0Ev
000180f0 S __ZN11ofBaseVideoD0Ev.eh
00017380 S __ZN11ofBaseVideoD1Ev
000180d4 S __ZN11ofBaseVideoD1Ev.eh
         U __ZN11ofLogNoticeC1ERKSs
         U __ZN18ofBaseVideoGrabber10setVerboseEb
         U __ZN18ofBaseVideoGrabber11setDeviceIDEi
         U __ZN18ofBaseVideoGrabber13videoSettingsEv
         U __ZN18ofBaseVideoGrabber14getPixelFormatEv
         U __ZN18ofBaseVideoGrabber14setPixelFormatE13ofPixelFormat
         U __ZN18ofBaseVideoGrabber19setDesiredFrameRateEi
         U __ZN18ofBaseVideoGrabberD0Ev
         U __ZN18ofBaseVideoGrabberD1Ev
         U __ZN18ofBaseVideoGrabberD2Ev
00001da0 T __ZN18ofQuickTimeGrabber10isFrameNewEv
00017fa4 S __ZN18ofQuickTimeGrabber10isFrameNewEv.eh
000004a0 T __ZN18ofQuickTimeGrabber10setVerboseEb
00017dc4 S __ZN18ofQuickTimeGrabber10setVerboseEb.eh
00001e30 T __ZN18ofQuickTimeGrabber11clearMemoryEv
00018014 S __ZN18ofQuickTimeGrabber11clearMemoryEv.eh
000004e0 T __ZN18ofQuickTimeGrabber11initGrabberEii
00017e18 S __ZN18ofQuickTimeGrabber11initGrabberEii.eh
00001430 T __ZN18ofQuickTimeGrabber11listDevicesEv
00017ed4 S __ZN18ofQuickTimeGrabber11listDevicesEv.eh
000004b0 T __ZN18ofQuickTimeGrabber11setDeviceIDEi
00017de0 S __ZN18ofQuickTimeGrabber11setDeviceIDEi.eh
00001d70 T __ZN18ofQuickTimeGrabber12getPixelsRefEv
00017f6c S __ZN18ofQuickTimeGrabber12getPixelsRefEv.eh
00001180 T __ZN18ofQuickTimeGrabber12loadSettingsEv
00017e94 S __ZN18ofQuickTimeGrabber12loadSettingsEv.eh
00002050 T __ZN18ofQuickTimeGrabber12saveSettingsEv
0001808c S __ZN18ofQuickTimeGrabber12saveSettingsEv.eh
00001ee0 T __ZN18ofQuickTimeGrabber13videoSettingsEv
0001806c S __ZN18ofQuickTimeGrabber13videoSettingsEv.eh
00000a70 T __ZN18ofQuickTimeGrabber14qtSelectDeviceEib
00017e58 S __ZN18ofQuickTimeGrabber14qtSelectDeviceEib.eh
000008e0 T __ZN18ofQuickTimeGrabber16qtInitSeqGrabberEv
00017e38 S __ZN18ofQuickTimeGrabber16qtInitSeqGrabberEv.eh
000013f0 T __ZN18ofQuickTimeGrabber17qtCloseSeqGrabberEv
00017eb8 S __ZN18ofQuickTimeGrabber17qtCloseSeqGrabberEv.eh
000004d0 T __ZN18ofQuickTimeGrabber19setDesiredFrameRateEi
00017dfc S __ZN18ofQuickTimeGrabber19setDesiredFrameRateEi.eh
00001e50 T __ZN18ofQuickTimeGrabber5closeEv
00018030 S __ZN18ofQuickTimeGrabber5closeEv.eh
00001ca0 T __ZN18ofQuickTimeGrabber6updateEv
00017ef8 S __ZN18ofQuickTimeGrabber6updateEv.eh
00001dd0 T __ZN18ofQuickTimeGrabber8getWidthEv
00017fdc S __ZN18ofQuickTimeGrabber8getWidthEv.eh
00001e00 T __ZN18ofQuickTimeGrabber9getHeightEv
00017ff8 S __ZN18ofQuickTimeGrabber9getHeightEv.eh
00001d30 T __ZN18ofQuickTimeGrabber9getPixelsEv
00017f34 S __ZN18ofQuickTimeGrabber9getPixelsEv.eh
00000000 T __ZN18ofQuickTimeGrabberC1Ev
00017c74 S __ZN18ofQuickTimeGrabberC1Ev.eh
00000100 T __ZN18ofQuickTimeGrabberC2Ev
00017c98 S __ZN18ofQuickTimeGrabberC2Ev.eh
00000210 T __ZN18ofQuickTimeGrabberD0Ev
00017cbc S __ZN18ofQuickTimeGrabberD0Ev.eh
00000250 T __ZN18ofQuickTimeGrabberD1Ev
00017ce0 S __ZN18ofQuickTimeGrabberD1Ev.eh
00000320 T __ZN18ofQuickTimeGrabberD2Ev
00017d48 S __ZN18ofQuickTimeGrabberD2Ev.eh
         U __ZN5ofLog7paddingE
         U __ZN5ofLogC1E10ofLogLevelPKcz
         U __ZN5ofLogD1Ev
         U __ZN5ofLogD2Ev
         U __ZN9ofPixels_IhE5clearEv
         U __ZN9ofPixels_IhE8allocateEii11ofImageType
         U __ZN9ofPixels_IhE9getPixelsEv
         U __ZN9ofPixels_IhEC1Ev
         U __ZN9ofPixels_IhED1Ev
         U __ZNK9ofPixels_IhE8getWidthEv
         U __ZNK9ofPixels_IhE9getHeightEv
         U __ZNSolsEi
         U __ZNSs4_Rep10_M_destroyERKSaIcE
         U __ZNSs4_Rep20_S_empty_rep_storageE
         U __ZNSs6appendEPKcm
         U __ZNSs6appendERKSs
         U __ZNSs6assignEPKcm
         U __ZNSs7reserveEm
         U __ZNSsC1EPKcRKSaIcE
         U __ZNSt8ios_base4InitC1Ev
         U __ZNSt8ios_base4InitD1Ev
         U __ZNSt9basic_iosIcSt11char_traitsIcEE5clearESt12_Ios_Iostate
         U __ZSt16__ostream_insertIcSt11char_traitsIcEERSt13basic_ostreamIT_T0_ES6_PKS3_i
         U __ZSt9terminatev
00018408 b __ZStL8__ioinit
000172d0 S __ZStplIcSt11char_traitsIcESaIcEESbIT_T0_T1_EPKS3_RKS6_
000180b0 S __ZStplIcSt11char_traitsIcESaIcEESbIT_T0_T1_EPKS3_RKS6_.eh
00017560 S __ZTC18ofQuickTimeGrabber0_11ofBaseVideo
000174d0 S __ZTC18ofQuickTimeGrabber0_18ofBaseVideoGrabber
00017c30 S __ZTI11ofBaseVideo
00017c28 S __ZTI13ofBaseUpdates
00017c18 S __ZTI16ofBaseHasPixels_IhE
         U __ZTI18ofBaseVideoGrabber
000174b8 S __ZTI18ofQuickTimeGrabber
00017c10 S __ZTI19ofAbstractHasPixels
00017bb0 S __ZTS11ofBaseVideo
00017bf6 S __ZTS13ofBaseUpdates
00017bc0 S __ZTS16ofBaseHasPixels_IhE
00017b90 S __ZTS18ofQuickTimeGrabber
00017be0 S __ZTS19ofAbstractHasPixels
00017410 S __ZTT18ofQuickTimeGrabber
00017430 S __ZTV18ofQuickTimeGrabber
         U __ZTVN10__cxxabiv117__class_type_infoE
         U __ZTVN10__cxxabiv120__si_class_type_infoE
         U __ZTVN10__cxxabiv121__vmi_class_type_infoE
000173b0 S __ZTv0_n12_N11ofBaseVideoD0Ev
00018128 S __ZTv0_n12_N11ofBaseVideoD0Ev.eh
000173a0 S __ZTv0_n12_N11ofBaseVideoD1Ev
0001810c S __ZTv0_n12_N11ofBaseVideoD1Ev.eh
         U __ZTv0_n12_N18ofBaseVideoGrabberD0Ev
         U __ZTv0_n12_N18ofBaseVideoGrabberD1Ev
000002d0 T __ZTv0_n12_N18ofQuickTimeGrabberD0Ev
00017d24 S __ZTv0_n12_N18ofQuickTimeGrabberD0Ev.eh
00000460 T __ZTv0_n12_N18ofQuickTimeGrabberD1Ev
00017d8c S __ZTv0_n12_N18ofQuickTimeGrabberD1Ev.eh
00001d50 T __ZTv0_n16_N18ofQuickTimeGrabber9getPixelsEv
00017f50 S __ZTv0_n16_N18ofQuickTimeGrabber9getPixelsEv.eh
00000280 T __ZTv0_n16_N18ofQuickTimeGrabberD0Ev
00017d00 S __ZTv0_n16_N18ofQuickTimeGrabberD0Ev.eh
00000420 T __ZTv0_n16_N18ofQuickTimeGrabberD1Ev
00017d6c S __ZTv0_n16_N18ofQuickTimeGrabberD1Ev.eh
00001d80 T __ZTv0_n20_N18ofQuickTimeGrabber12getPixelsRefEv
00017f88 S __ZTv0_n20_N18ofQuickTimeGrabber12getPixelsRefEv.eh
00001ce0 T __ZTv0_n20_N18ofQuickTimeGrabber6updateEv
00017f14 S __ZTv0_n20_N18ofQuickTimeGrabber6updateEv.eh
00001db0 T __ZTv0_n24_N18ofQuickTimeGrabber10isFrameNewEv
00017fc0 S __ZTv0_n24_N18ofQuickTimeGrabber10isFrameNewEv.eh
00001e90 T __ZTv0_n28_N18ofQuickTimeGrabber5closeEv
0001804c S __ZTv0_n28_N18ofQuickTimeGrabber5closeEv.eh
0001840c b __ZZN18ofQuickTimeGrabber13videoSettingsEvE25gSeqGrabberModalFilterUPP
         U __ZdaPv
         U __ZdlPv
         U ___cxa_atexit
         U ___cxa_guard_acquire
         U ___cxa_guard_release
         U ___cxa_pure_virtual
         U ___dso_handle
         U ___gxx_personality_v0
         U ___stack_chk_fail
         U ___stack_chk_guard
         U _kCFAllocatorDefault
         U _malloc
         U _strlen

../../../libs/openFrameworksCompiled/lib/osx/openFrameworks.a(ofQuickTimePlayer.o):
0000fa94 s EH_frame0
0000fb08 s EH_frame1
0000f4fc s GCC_except_table10
0000f51c s GCC_except_table11
0000f53c s GCC_except_table25
0000f3b8 s GCC_except_table3
0000f3ec s GCC_except_table4
0000f420 s GCC_except_table5
0000f440 s GCC_except_table6
0000f460 s GCC_except_table7
0000f480 s GCC_except_table8
0000f4a0 s GCC_except_table9
         U _CFRunLoopGetCurrent
         U _CFRunLoopGetMain
         U _CloseMovieFile
         U _DisposeGWorld
         U _DisposeHandle
         U _DisposeMovie
         U _FSGetCatalogInfo
         U _FSPathMakeRef
         U _GetGWorldPixMap
         U _GetMovieBox
         U _GetMovieDuration
         U _GetMovieNextInterestingTime
         U _GetMoviePreferredRate
         U _GetMovieTime
         U _GetMovieTimeBase
         U _GetMovieTimeScale
         U _GetTimeBaseFlags
         U _GoToBeginningOfMovie
         U _IsMovieDone
         U _LockPixels
         U _MemError
         U _MoviesTask
         U _NewHandle
         U _NewMovieFromDataRef
         U _NewMovieFromFile
         U _OpenMovieFile
         U _PrerollMovie
         U _QTNewGWorldFromPtr
         U _SetGWorld
         U _SetMovieActive
         U _SetMovieActiveSegment
         U _SetMovieDrawingCompleteProc
         U _SetMovieGWorld
         U _SetMoviePlayHints
         U _SetMovieRate
         U _SetMovieTimeValue
         U _SetMovieVolume
         U _SetTimeBaseFlags
         U _StopMovie
         U _X2Fix
0000f630 s __GLOBAL__I_a
00010148 s __GLOBAL__I_a.eh
         U __Unwind_Resume
         U __Z12ofToDataPathSsb
000002b0 T __Z16DrawCompleteProcPP9MovieTypel
0000faec S __Z16DrawCompleteProcPP9MovieTypel.eh
000001d0 T __Z18createMovieFromURLSsRPP9MovieType
0000facc S __Z18createMovieFromURLSsRPP9MovieType.eh
00000000 T __Z19createMovieFromPathPcRPP9MovieType
0000faac S __Z19createMovieFromPathPcRPP9MovieType.eh
         U __Z19initializeQuicktimev
         U __Z23MovieGetStaticFrameRatePP9MovieTypePd
0000f5f0 S __ZN11ofBaseVideoD0Ev
000100f4 S __ZN11ofBaseVideoD0Ev.eh
0000f5e0 S __ZN11ofBaseVideoD1Ev
000100d8 S __ZN11ofBaseVideoD1Ev.eh
         U __ZN17ofBaseVideoPlayer10firstFrameEv
0000f5d0 S __ZN17ofBaseVideoPlayer10getTextureEv
000100bc S __ZN17ofBaseVideoPlayer10getTextureEv.eh
         U __ZN17ofBaseVideoPlayer11getDurationEv
         U __ZN17ofBaseVideoPlayer11getPositionEv
         U __ZN17ofBaseVideoPlayer11setPositionEf
         U __ZN17ofBaseVideoPlayer12getLoopStateEv
         U __ZN17ofBaseVideoPlayer12setLoopStateE10ofLoopType
         U __ZN17ofBaseVideoPlayer13previousFrameEv
         U __ZN17ofBaseVideoPlayer14getIsMovieDoneEv
         U __ZN17ofBaseVideoPlayer14setPixelFormatE13ofPixelFormat
         U __ZN17ofBaseVideoPlayer15getCurrentFrameEv
         U __ZN17ofBaseVideoPlayer17getTotalNumFramesEv
         U __ZN17ofBaseVideoPlayer8getSpeedEv
         U __ZN17ofBaseVideoPlayer8setFrameEi
         U __ZN17ofBaseVideoPlayer8setSpeedEf
         U __ZN17ofBaseVideoPlayer9nextFrameEv
         U __ZN17ofBaseVideoPlayer9setPausedEb
         U __ZN17ofBaseVideoPlayer9setVolumeEi
         U __ZN17ofBaseVideoPlayerD0Ev
         U __ZN17ofBaseVideoPlayerD1Ev
         U __ZN17ofBaseVideoPlayerD2Ev
000006a0 T __ZN17ofQuickTimePlayer10closeMovieEv
0000fc60 S __ZN17ofQuickTimePlayer10closeMovieEv.eh
00001690 T __ZN17ofQuickTimePlayer10firstFrameEv
0000ff60 S __ZN17ofQuickTimePlayer10firstFrameEv.eh
00000820 T __ZN17ofQuickTimePlayer10isFrameNewEv
0000fd48 S __ZN17ofQuickTimePlayer10isFrameNewEv.eh
000006d0 T __ZN17ofQuickTimePlayer11clearMemoryEv
0000fc7c S __ZN17ofQuickTimePlayer11clearMemoryEv.eh
00001440 T __ZN17ofQuickTimePlayer11getDurationEv
0000fee0 S __ZN17ofQuickTimePlayer11getDurationEv.eh
000014e0 T __ZN17ofQuickTimePlayer11getPositionEv
0000ff00 S __ZN17ofQuickTimePlayer11getPositionEv.eh
00001260 T __ZN17ofQuickTimePlayer11setPositionEf
0000fea0 S __ZN17ofQuickTimePlayer11setPositionEf.eh
00000730 T __ZN17ofQuickTimePlayer12getPixelsRefEv
0000fcd0 S __ZN17ofQuickTimePlayer12getPixelsRefEv.eh
00001170 T __ZN17ofQuickTimePlayer12setLoopStateE10ofLoopType
0000fe80 S __ZN17ofQuickTimePlayer12setLoopStateE10ofLoopType.eh
00001770 T __ZN17ofQuickTimePlayer13previousFrameEv
0000ffa0 S __ZN17ofQuickTimePlayer13previousFrameEv.eh
00001620 T __ZN17ofQuickTimePlayer14getIsMovieDoneEv
0000ff40 S __ZN17ofQuickTimePlayer14getIsMovieDoneEv.eh
00001580 T __ZN17ofQuickTimePlayer15getCurrentFrameEv
0000ff20 S __ZN17ofQuickTimePlayer15getCurrentFrameEv.eh
00001890 T __ZN17ofQuickTimePlayer17getTotalNumFramesEv
00010014 S __ZN17ofQuickTimePlayer17getTotalNumFramesEv.eh
000008c0 T __ZN17ofQuickTimePlayer21createImgMemAndGWorldEv
0000fdbc S __ZN17ofQuickTimePlayer21createImgMemAndGWorldEv.eh
00000f80 T __ZN17ofQuickTimePlayer4playEv
0000fe20 S __ZN17ofQuickTimePlayer4playEv.eh
00001080 T __ZN17ofQuickTimePlayer4stopEv
0000fe40 S __ZN17ofQuickTimePlayer4stopEv.eh
00000850 T __ZN17ofQuickTimePlayer5closeEv
0000fd80 S __ZN17ofQuickTimePlayer5closeEv.eh
00000ea0 T __ZN17ofQuickTimePlayer5startEv
0000fe00 S __ZN17ofQuickTimePlayer5startEv.eh
00000760 T __ZN17ofQuickTimePlayer6updateEv
0000fd08 S __ZN17ofQuickTimePlayer6updateEv.eh
00001880 T __ZN17ofQuickTimePlayer8getSpeedEv
0000fff8 S __ZN17ofQuickTimePlayer8getSpeedEv.eh
000018a0 T __ZN17ofQuickTimePlayer8getWidthEv
00010030 S __ZN17ofQuickTimePlayer8getWidthEv.eh
000018f0 T __ZN17ofQuickTimePlayer8isLoadedEv
00010084 S __ZN17ofQuickTimePlayer8isLoadedEv.eh
000018e0 T __ZN17ofQuickTimePlayer8isPausedEv
00010068 S __ZN17ofQuickTimePlayer8isPausedEv.eh
00001300 T __ZN17ofQuickTimePlayer8setFrameEi
0000fec0 S __ZN17ofQuickTimePlayer8setFrameEi.eh
000017e0 T __ZN17ofQuickTimePlayer8setSpeedEf
0000ffc0 S __ZN17ofQuickTimePlayer8setSpeedEf.eh
000018c0 T __ZN17ofQuickTimePlayer9getHeightEv
0001004c S __ZN17ofQuickTimePlayer9getHeightEv.eh
000006f0 T __ZN17ofQuickTimePlayer9getPixelsEv
0000fc98 S __ZN17ofQuickTimePlayer9getPixelsEv.eh
00001900 T __ZN17ofQuickTimePlayer9isPlayingEv
000100a0 S __ZN17ofQuickTimePlayer9isPlayingEv.eh
000009b0 T __ZN17ofQuickTimePlayer9loadMovieESs
0000fddc S __ZN17ofQuickTimePlayer9loadMovieESs.eh
00001700 T __ZN17ofQuickTimePlayer9nextFrameEv
0000ff80 S __ZN17ofQuickTimePlayer9nextFrameEv.eh
00001820 T __ZN17ofQuickTimePlayer9setPausedEb
0000ffdc S __ZN17ofQuickTimePlayer9setPausedEb.eh
00001100 T __ZN17ofQuickTimePlayer9setVolumeEi
0000fe60 S __ZN17ofQuickTimePlayer9setVolumeEi.eh
000002c0 T __ZN17ofQuickTimePlayerC1Ev
0000fb28 S __ZN17ofQuickTimePlayerC1Ev.eh
00000380 T __ZN17ofQuickTimePlayerC2Ev
0000fb4c S __ZN17ofQuickTimePlayerC2Ev.eh
00000440 T __ZN17ofQuickTimePlayerD0Ev
0000fb70 S __ZN17ofQuickTimePlayerD0Ev.eh
00000480 T __ZN17ofQuickTimePlayerD1Ev
0000fb94 S __ZN17ofQuickTimePlayerD1Ev.eh
00000550 T __ZN17ofQuickTimePlayerD2Ev
0000fbfc S __ZN17ofQuickTimePlayerD2Ev.eh
         U __ZN5ofLogC1E10ofLogLevelPKcz
         U __ZN5ofLogD1Ev
         U __ZN9ofPixels_IhE5clearEv
         U __ZN9ofPixels_IhE8allocateEii11ofImageType
         U __ZN9ofPixels_IhE9getPixelsEv
         U __ZN9ofPixels_IhEC1Ev
         U __ZN9ofPixels_IhED1Ev
         U __ZNKSs7compareEPKc
         U __ZNSs4_Rep10_M_destroyERKSaIcE
         U __ZNSs4_Rep20_S_empty_rep_storageE
         U __ZNSs6assignERKSs
         U __ZNSsC1ERKSs
         U __ZNSsC1ERKSsmm
         U __ZNSt8ios_base4InitC1Ev
         U __ZNSt8ios_base4InitD1Ev
         U __ZSt9terminatev
0001020f b __ZStL8__ioinit
0000f970 S __ZTC17ofQuickTimePlayer0_11ofBaseVideo
0000f8a0 S __ZTC17ofQuickTimePlayer0_17ofBaseVideoPlayer
0000fa70 S __ZTI11ofBaseVideo
0000fa68 S __ZTI13ofBaseUpdates
0000fa58 S __ZTI16ofBaseHasPixels_IhE
         U __ZTI17ofBaseVideoPlayer
0000f888 S __ZTI17ofQuickTimePlayer
0000fa50 S __ZTI19ofAbstractHasPixels
0000f9f0 S __ZTS11ofBaseVideo
0000fa36 S __ZTS13ofBaseUpdates
0000fa00 S __ZTS16ofBaseHasPixels_IhE
0000f9d0 S __ZTS17ofQuickTimePlayer
0000fa20 S __ZTS19ofAbstractHasPixels
0000f7a0 S __ZTT17ofQuickTimePlayer
0000f7c0 S __ZTV17ofQuickTimePlayer
         U __ZTVN10__cxxabiv117__class_type_infoE
         U __ZTVN10__cxxabiv120__si_class_type_infoE
         U __ZTVN10__cxxabiv121__vmi_class_type_infoE
0000f610 S __ZTv0_n12_N11ofBaseVideoD0Ev
0001012c S __ZTv0_n12_N11ofBaseVideoD0Ev.eh
0000f600 S __ZTv0_n12_N11ofBaseVideoD1Ev
00010110 S __ZTv0_n12_N11ofBaseVideoD1Ev.eh
         U __ZTv0_n12_N17ofBaseVideoPlayerD0Ev
         U __ZTv0_n12_N17ofBaseVideoPlayerD1Ev
00000500 T __ZTv0_n12_N17ofQuickTimePlayerD0Ev
0000fbd8 S __ZTv0_n12_N17ofQuickTimePlayerD0Ev.eh
00000660 T __ZTv0_n12_N17ofQuickTimePlayerD1Ev
0000fc40 S __ZTv0_n12_N17ofQuickTimePlayerD1Ev.eh
00000710 T __ZTv0_n16_N17ofQuickTimePlayer9getPixelsEv
0000fcb4 S __ZTv0_n16_N17ofQuickTimePlayer9getPixelsEv.eh
000004b0 T __ZTv0_n16_N17ofQuickTimePlayerD0Ev
0000fbb4 S __ZTv0_n16_N17ofQuickTimePlayerD0Ev.eh
00000620 T __ZTv0_n16_N17ofQuickTimePlayerD1Ev
0000fc20 S __ZTv0_n16_N17ofQuickTimePlayerD1Ev.eh
00000740 T __ZTv0_n20_N17ofQuickTimePlayer12getPixelsRefEv
0000fcec S __ZTv0_n20_N17ofQuickTimePlayer12getPixelsRefEv.eh
000007c0 T __ZTv0_n20_N17ofQuickTimePlayer6updateEv
0000fd28 S __ZTv0_n20_N17ofQuickTimePlayer6updateEv.eh
00000830 T __ZTv0_n24_N17ofQuickTimePlayer10isFrameNewEv
0000fd64 S __ZTv0_n24_N17ofQuickTimePlayer10isFrameNewEv.eh
00000880 T __ZTv0_n28_N17ofQuickTimePlayer5closeEv
0000fd9c S __ZTv0_n28_N17ofQuickTimePlayer5closeEv.eh
         U __ZdaPv
         U __ZdlPv
         U __Znam
         U ___cxa_atexit
         U ___cxa_pure_virtual
         U ___dso_handle
         U ___gxx_personality_v0
         U _memmove
         U _strlen

../../../libs/openFrameworksCompiled/lib/osx/openFrameworks.a(of3dUtils.o):
0001f5e4 s EH_frame0
0001f618 s EH_frame1
0001f0c8 s GCC_except_table1
0001f174 s GCC_except_table2
0001f1bc s GCC_except_table3
0001f208 s GCC_except_table4
0001f234 s GCC_except_table5
0001f570 s __GLOBAL__I_a
0001f6ec s __GLOBAL__I_a.eh
         U __Unwind_Resume
00000000 T __Z10ofDrawAxisf
0001f5fc S __Z10ofDrawAxisf.eh
00000100 T __Z10ofDrawGridffbbbb
0001f638 S __Z10ofDrawGridffbbbb.eh
         U __Z10ofPopStylev
         U __Z10ofSetColorRK8ofColor_IhE
         U __Z10ofSetColoriii
0001f3c0 S __Z10ofToStringIfESsRKT_i
0001f680 S __Z10ofToStringIfESsRKT_i.eh
00000960 T __Z11ofDrawArrowRK7ofVec3fS1_f
0001f6a4 S __Z11ofDrawArrowRK7ofVec3fS1_f.eh
         U __Z11ofPopMatrixv
         U __Z11ofPushStylev
         U __Z11ofTranslateRK7ofVec3f
         U __Z11ofTranslatefff
         U __Z12ofPushMatrixv
         U __Z14ofSetLineWidthf
00000520 T __Z15ofDrawGridPlaneffb
0001f65c S __Z15ofDrawGridPlaneffb.eh
         U __Z18ofDrawBitmapStringSsfff
00000a70 T __Z18ofDrawRotationAxesffi
0001f6c8 S __Z18ofDrawRotationAxesffi.eh
         U __Z19ofSetDrawBitmapMode16ofDrawBitmapMode
         U __Z6ofConeff
         U __Z6ofLineRK7ofVec3fS1_
         U __Z6ofLineffffff
         U __Z8ofRotateffff
         U __ZN11ofMatrix4x418makeIdentityMatrixEv
         U __ZN11ofMatrix4x418makeRotationMatrixERK7ofVec3fS2_
         U __ZN6ofMesh4drawEv
         U __ZN6ofMesh7setModeE15ofPrimitiveMode
         U __ZN6ofMesh8addColorERK8ofColor_IfE
         U __ZN6ofMesh9addVertexERK7ofVec3f
         U __ZN6ofMeshC1Ev
         U __ZN6ofMeshD1Ev
         U __ZN8ofColor_IfE3redE
         U __ZN8ofColor_IfE4blueE
         U __ZN8ofColor_IfE5greenE
         U __ZN8ofColor_IfEC1ERKS0_
         U __ZN8ofColor_IfED1Ev
         U __ZN8ofColor_IhE3redE
         U __ZN8ofColor_IhE4blueE
         U __ZN8ofColor_IhE5greenE
         U __ZN8ofColor_IhE5limitEv
         U __ZN8ofColor_IhE6setHsbEffff
         U __ZN8ofColor_IhEC1Effff
         U __ZN8ofColor_IhED1Ev
         U __ZNKSt15basic_stringbufIcSt11char_traitsIcESaIcEE3strEv
         U __ZNSo9_M_insertIdEERSoT_
         U __ZNSs4_Rep10_M_destroyERKSaIcE
         U __ZNSs4_Rep20_S_empty_rep_storageE
         U __ZNSsC1EPKcRKSaIcE
         U __ZNSt19basic_ostringstreamIcSt11char_traitsIcESaIcEEC1ESt13_Ios_Openmode
         U __ZNSt6localeD1Ev
         U __ZNSt8ios_base4InitC1Ev
         U __ZNSt8ios_base4InitD1Ev
         U __ZNSt8ios_baseD2Ev
         U __ZSt9terminatev
0001f7e0 b __ZStL8__ioinit
         U __ZTTSt19basic_ostringstreamIcSt11char_traitsIcESaIcEE
         U __ZTVSt15basic_streambufIcSt11char_traitsIcEE
         U __ZTVSt15basic_stringbufIcSt11char_traitsIcESaIcEE
         U ___cxa_atexit
         U ___dso_handle
         U ___gxx_personality_v0
         U _ceilf
         U _cos
         U _floorf
         U _glDisable
         U _glEnable
         U _glMultMatrixf
         U _logf
         U _sin

../../../libs/openFrameworksCompiled/lib/osx/openFrameworks.a(ofCamera.o):
00016a34 s EH_frame0
00016b8c s EH_frame1
00016580 s GCC_except_table11
00016638 s GCC_except_table12
00016684 s GCC_except_table14
000166b0 s GCC_except_table15
000166ec s GCC_except_table16
00016798 s GCC_except_table17
000167e4 s GCC_except_table18
00016858 s GCC_except_table19
000168a4 s GCC_except_table20
000169a0 s __GLOBAL__I_a
00016db0 s __GLOBAL__I_a.eh
         U __Unwind_Resume
         U __Z10ofDrawAxisf
         U __Z10ofPushViewv
         U __Z10ofViewport11ofRectangle
         U __Z18ofGetViewportWidthv
         U __Z19ofGetViewportHeightv
         U __Z20ofGetCurrentViewportv
         U __Z20ofSetCoordHandedness16ofHandednessType
         U __Z5ofBoxf
         U __Z9ofPopViewv
         U __ZN11ofMatrix4x412makeInvertOfERKS_
         U __ZN11ofMatrix4x418makeIdentityMatrixEv
         U __ZN11ofMatrix4x421makePerspectiveMatrixEdddd
         U __ZN11ofMatrix4x424makeFromMultiplicationOfERKS_S1_
         U __ZN11ofRectangleC1ERKS_
         U __ZN11ofRectangleD1Ev
00016940 S __ZN6ofNode10customDrawEv
00016d40 S __ZN6ofNode10customDrawEv.eh
         U __ZN6ofNode11setPositionEfff
00016990 S __ZN6ofNode14onScaleChangedEv
00016d94 S __ZN6ofNode14onScaleChangedEv.eh
00016970 S __ZN6ofNode17onPositionChangedEv
00016d5c S __ZN6ofNode17onPositionChangedEv.eh
00016980 S __ZN6ofNode20onOrientationChangedEv
00016d78 S __ZN6ofNode20onOrientationChangedEv.eh
         U __ZN6ofNode6lookAtERK7ofVec3fS0_
         U __ZN6ofNode8setScaleEfff
         U __ZN6ofNodeC2Ev
00000110 T __ZN8ofCamera10setFarClipEf
00016ae0 S __ZN8ofCamera10setFarClipEf.eh
00000290 T __ZN8ofCamera11enableOrthoEv
00016b1c S __ZN8ofCamera11enableOrthoEv.eh
000000f0 T __ZN8ofCamera11setNearClipEf
00016ac4 S __ZN8ofCamera11setNearClipEf.eh
000002a0 T __ZN8ofCamera12disableOrthoEv
00016b38 S __ZN8ofCamera12disableOrthoEv.eh
00000f70 T __ZN8ofCamera13cameraToWorldE7ofVec3f11ofRectangle
00016ce4 S __ZN8ofCamera13cameraToWorldE7ofVec3f11ofRectangle.eh
00000c40 T __ZN8ofCamera13screenToWorldE7ofVec3f11ofRectangle
00016c9c S __ZN8ofCamera13screenToWorldE7ofVec3f11ofRectangle.eh
00000e40 T __ZN8ofCamera13worldToCameraE7ofVec3f11ofRectangle
00016cc0 S __ZN8ofCamera13worldToCameraE7ofVec3f11ofRectangle.eh
00000a00 T __ZN8ofCamera13worldToScreenE7ofVec3f11ofRectangle
00016c78 S __ZN8ofCamera13worldToScreenE7ofVec3f11ofRectangle.eh
00000530 T __ZN8ofCamera14calcClipPlanesE11ofRectangle
00016bd0 S __ZN8ofCamera14calcClipPlanesE11ofRectangle.eh
00000130 T __ZN8ofCamera16setupPerspectiveEbfff
00016afc S __ZN8ofCamera16setupPerspectiveEbfff.eh
00000760 T __ZN8ofCamera18getModelViewMatrixEv
00016c30 S __ZN8ofCamera18getModelViewMatrixEv.eh
00000670 T __ZN8ofCamera19getProjectionMatrixE11ofRectangle
00016c10 S __ZN8ofCamera19getProjectionMatrixE11ofRectangle.eh
00000820 T __ZN8ofCamera28getModelViewProjectionMatrixE11ofRectangle
00016c54 S __ZN8ofCamera28getModelViewProjectionMatrixE11ofRectangle.eh
00000640 T __ZN8ofCamera3endEv
00016bf4 S __ZN8ofCamera3endEv.eh
00000340 T __ZN8ofCamera5beginE11ofRectangle
00016bac S __ZN8ofCamera5beginE11ofRectangle.eh
000000e0 T __ZN8ofCamera6getFovEv
00016aa8 S __ZN8ofCamera6getFovEv.eh
000000c0 T __ZN8ofCamera6setFovEf
00016a8c S __ZN8ofCamera6setFovEf.eh
00000000 T __ZN8ofCameraC1Ev
00016a4c S __ZN8ofCameraC1Ev.eh
00000060 T __ZN8ofCameraC2Ev
00016a6c S __ZN8ofCameraC2Ev.eh
00016930 S __ZN8ofCameraD0Ev
00016d24 S __ZN8ofCameraD0Ev.eh
00016920 S __ZN8ofCameraD1Ev
00016d08 S __ZN8ofCameraD1Ev.eh
         U __ZNK6ofNode24getGlobalTransformMatrixEv
000002d0 T __ZNK8ofCamera21getImagePlaneDistanceE11ofRectangle
00016b70 S __ZNK8ofCamera21getImagePlaneDistanceE11ofRectangle.eh
000002b0 T __ZNK8ofCamera8getOrthoEv
00016b54 S __ZNK8ofCamera8getOrthoEv.eh
         U __ZNSt8ios_base4InitC1Ev
         U __ZNSt8ios_base4InitD1Ev
         U __ZSt9terminatev
00016f26 b __ZStL8__ioinit
00016a28 S __ZTI6ofNode
00016a08 S __ZTI8ofCamera
00016a1e S __ZTS6ofNode
00016a14 S __ZTS8ofCamera
000169e0 S __ZTV8ofCamera
         U __ZTVN10__cxxabiv117__class_type_infoE
         U __ZTVN10__cxxabiv120__si_class_type_infoE
         U __ZdlPv
         U ___cxa_atexit
         U ___dso_handle
         U ___gxx_personality_v0
         U _glLoadIdentity
         U _glLoadMatrixf
         U _glMatrixMode
         U _glOrtho
         U _gluPerspective
         U _tanf

../../../libs/openFrameworksCompiled/lib/osx/openFrameworks.a(ofEasyCam.o):
00023c78 s EH_frame0
00023cac s EH_frame1
0002322c s GCC_except_table1
000234e0 s GCC_except_table11
0002350c s GCC_except_table13
00023294 s GCC_except_table3
00023558 s GCC_except_table31
00023578 s GCC_except_table32
00023598 s GCC_except_table33
000235e4 s GCC_except_table35
00023610 s GCC_except_table38
0002364c s GCC_except_table39
0002332c s GCC_except_table4
0002337c s GCC_except_table5
000233bc s GCC_except_table6
000233fc s GCC_except_table7
00023494 s GCC_except_table8
00023b10 s __GLOBAL__I_a
00024198 s __GLOBAL__I_a.eh
         U __Unwind_Resume
         U __Z10ofDrawAxisf
         U __Z11ofGetMouseXv
         U __Z11ofGetMouseYv
         U __Z15ofGetKeyPressedi
         U __Z17ofGetMousePressedi
         U __Z22ofGetElapsedTimeMillisv
         U __Z5ofBoxf
         U __Z8ofEventsv
         U __ZN11ofMatrix4x418makeRotationMatrixERK12ofQuaternion
         U __ZN11ofRectangle6insideEff
         U __ZN11ofRectangleC1ERKS_
         U __ZN11ofRectangleC1Ev
         U __ZN11ofRectangleD1Ev
         U __ZN11ofRectangleaSERKS_
         U __ZN12ofQuaternion10makeRotateEfRK7ofVec3ffS2_fS2_
         U __ZN4Poco15SystemExceptionC1ERKSsi
         U __ZN4Poco15SystemExceptionD1Ev
         U __ZN4Poco5MutexC1Ev
         U __ZN4Poco5MutexD1Ev
000237e0 S __ZN4Poco8DelegateI9ofEasyCam11ofEventArgsLb0EE6notifyEPKvRS2_
000240b0 S __ZN4Poco8DelegateI9ofEasyCam11ofEventArgsLb0EE6notifyEPKvRS2_.eh
00023910 S __ZN4Poco8DelegateI9ofEasyCam11ofEventArgsLb0EE7disableEv
00024114 S __ZN4Poco8DelegateI9ofEasyCam11ofEventArgsLb0EE7disableEv.eh
00023790 S __ZN4Poco8DelegateI9ofEasyCam11ofEventArgsLb0EED0Ev
0002408c S __ZN4Poco8DelegateI9ofEasyCam11ofEventArgsLb0EED0Ev.eh
00023750 S __ZN4Poco8DelegateI9ofEasyCam11ofEventArgsLb0EED1Ev
0002406c S __ZN4Poco8DelegateI9ofEasyCam11ofEventArgsLb0EED1Ev.eh
00023950 S __ZN4Poco9MutexImpl10unlockImplEv
00024150 S __ZN4Poco9MutexImpl10unlockImplEv.eh
00023a30 S __ZN4Poco9MutexImpl8lockImplEv
00024174 S __ZN4Poco9MutexImpl8lockImplEv.eh
000236f0 S __ZN6ofNode10customDrawEv
00023ffc S __ZN6ofNode10customDrawEv.eh
         U __ZN6ofNode11setPositionERK7ofVec3f
         U __ZN6ofNode11setPositionEfff
00023740 S __ZN6ofNode14onScaleChangedEv
00024050 S __ZN6ofNode14onScaleChangedEv.eh
         U __ZN6ofNode14resetTransformEv
00023720 S __ZN6ofNode17onPositionChangedEv
00024018 S __ZN6ofNode17onPositionChangedEv.eh
00023730 S __ZN6ofNode20onOrientationChangedEv
00024034 S __ZN6ofNode20onOrientationChangedEv.eh
         U __ZN6ofNode4moveERK7ofVec3f
         U __ZN6ofNode6lookAtERS_RK7ofVec3f
         U __ZN6ofNode6rotateERK12ofQuaternion
         U __ZN6ofNodeC1Ev
         U __ZN8ofCamera3endEv
         U __ZN8ofCamera5beginE11ofRectangle
         U __ZN8ofCameraC2Ev
000017a0 T __ZN9ofEasyCam11setDistanceEf
00023ee4 S __ZN9ofEasyCam11setDistanceEf.eh
00000780 T __ZN9ofEasyCam11setDistanceEfb
00023de8 S __ZN9ofEasyCam11setDistanceEfb.eh
00000830 T __ZN9ofEasyCam11updateMouseEv
00023e04 S __ZN9ofEasyCam11updateMouseEv.eh
00000e60 T __ZN9ofEasyCam14updateRotationEv
00023e24 S __ZN9ofEasyCam14updateRotationEv.eh
00000310 T __ZN9ofEasyCam16enableMouseInputEv
00023d10 S __ZN9ofEasyCam16enableMouseInputEv.eh
00000520 T __ZN9ofEasyCam17disableMouseInputEv
00023da0 S __ZN9ofEasyCam17disableMouseInputEv.eh
00001920 T __ZN9ofEasyCam17getTranslationKeyEv
00023f70 S __ZN9ofEasyCam17getTranslationKeyEv.eh
00001900 T __ZN9ofEasyCam17setTranslationKeyEc
00023f54 S __ZN9ofEasyCam17setTranslationKeyEc.eh
00001330 T __ZN9ofEasyCam17updateTranslationEv
00023e48 S __ZN9ofEasyCam17updateTranslationEv.eh
00001930 T __ZN9ofEasyCam20getMouseInputEnabledEv
00023f8c S __ZN9ofEasyCam20getMouseInputEnabledEv.eh
00001950 T __ZN9ofEasyCam23enableMouseMiddleButtonEv
00023fa8 S __ZN9ofEasyCam23enableMouseMiddleButtonEv.eh
00001960 T __ZN9ofEasyCam24disableMouseMiddleButtonEv
00023fc4 S __ZN9ofEasyCam24disableMouseMiddleButtonEv.eh
00001970 T __ZN9ofEasyCam27getMouseMiddleButtonEnabledEv
00023fe0 S __ZN9ofEasyCam27getMouseMiddleButtonEnabledEv.eh
00001510 T __ZN9ofEasyCam5beginE11ofRectangle
00023e68 S __ZN9ofEasyCam5beginE11ofRectangle.eh
00000230 T __ZN9ofEasyCam5resetEv
00023cf0 S __ZN9ofEasyCam5resetEv.eh
00000600 T __ZN9ofEasyCam6updateER11ofEventArgs
00023dc4 S __ZN9ofEasyCam6updateER11ofEventArgs.eh
000018d0 T __ZN9ofEasyCam7setDragEf
00023f1c S __ZN9ofEasyCam7setDragEf.eh
00001790 T __ZN9ofEasyCam9getTargetEv
00023ec8 S __ZN9ofEasyCam9getTargetEv.eh
000015d0 T __ZN9ofEasyCam9setTargetER6ofNode
00023eac S __ZN9ofEasyCam9setTargetER6ofNode.eh
00001580 T __ZN9ofEasyCam9setTargetERK7ofVec3f
00023e8c S __ZN9ofEasyCam9setTargetERK7ofVec3f.eh
00000000 T __ZN9ofEasyCamC1Ev
00023c90 S __ZN9ofEasyCamC1Ev.eh
00000010 T __ZN9ofEasyCamC2Ev
00023ccc S __ZN9ofEasyCamC2Ev.eh
000003f0 T __ZN9ofEasyCamD0Ev
00023d34 S __ZN9ofEasyCamD0Ev.eh
00000460 T __ZN9ofEasyCamD1Ev
00023d58 S __ZN9ofEasyCamD1Ev.eh
000004c0 T __ZN9ofEasyCamD2Ev
00023d7c S __ZN9ofEasyCamD2Ev.eh
00023940 S __ZNK4Poco16AbstractDelegateI11ofEventArgsE6unwrapEv
00024134 S __ZNK4Poco16AbstractDelegateI11ofEventArgsE6unwrapEv.eh
000238a0 S __ZNK4Poco8DelegateI9ofEasyCam11ofEventArgsLb0EE5cloneEv
000240f0 S __ZNK4Poco8DelegateI9ofEasyCam11ofEventArgsLb0EE5cloneEv.eh
00023850 S __ZNK4Poco8DelegateI9ofEasyCam11ofEventArgsLb0EE6equalsERKNS_16AbstractDelegateIS2_EE
000240d4 S __ZNK4Poco8DelegateI9ofEasyCam11ofEventArgsLb0EE6equalsERKNS_16AbstractDelegateIS2_EE.eh
         U __ZNK6ofNode11getPositionEv
         U __ZNK6ofNode17getGlobalPositionEv
         U __ZNK6ofNode8getXAxisEv
         U __ZNK6ofNode8getYAxisEv
         U __ZNK6ofNode8getZAxisEv
         U __ZNK8ofCamera21getImagePlaneDistanceE11ofRectangle
00001850 T __ZNK9ofEasyCam11getDistanceEv
00023f00 S __ZNK9ofEasyCam11getDistanceEv.eh
000018f0 T __ZNK9ofEasyCam7getDragEv
00023f38 S __ZNK9ofEasyCam7getDragEv.eh
         U __ZNSs4_Rep10_M_destroyERKSaIcE
         U __ZNSs4_Rep20_S_empty_rep_storageE
         U __ZNSsC1EPKcRKSaIcE
         U __ZNSt8ios_base4InitC1Ev
         U __ZNSt8ios_base4InitD1Ev
         U __ZSt9terminatev
000243fa b __ZStL8__ioinit
00023c00 S __ZTI6ofNode
         U __ZTI8ofCamera
00023b78 S __ZTI9ofEasyCam
         U __ZTIN4Poco15SystemExceptionE
00023c38 S __ZTIN4Poco16AbstractDelegateI11ofEventArgsEE
00023c40 S __ZTIN4Poco8DelegateI9ofEasyCam11ofEventArgsLb0EEE
00023b90 S __ZTS6ofNode
000236d0 S __ZTS9ofEasyCam
00023bd0 S __ZTSN4Poco16AbstractDelegateI11ofEventArgsEE
00023ba0 S __ZTSN4Poco8DelegateI9ofEasyCam11ofEventArgsLb0EEE
00023b50 S __ZTV9ofEasyCam
         U __ZTVN10__cxxabiv117__class_type_infoE
         U __ZTVN10__cxxabiv120__si_class_type_infoE
00023c10 S __ZTVN4Poco8DelegateI9ofEasyCam11ofEventArgsLb0EEE
         U __ZdlPv
         U __Znwm
         U ___cxa_allocate_exception
         U ___cxa_atexit
         U ___cxa_free_exception
         U ___cxa_throw
         U ___dso_handle
         U ___gxx_personality_v0
         U _atan2f
00023228 D _doubleclickTime
00023224 D _minDifference
         U _pthread_mutex_lock
         U _pthread_mutex_unlock

../../../libs/openFrameworksCompiled/lib/osx/openFrameworks.a(ofNode.o):
0001b5d4 s EH_frame0
0001b608 s EH_frame1
0001b02c s GCC_except_table1
0001b058 s GCC_except_table11
0001b0a0 s GCC_except_table12
0001b0dc s GCC_except_table18
0001b108 s GCC_except_table19
0001b178 s GCC_except_table39
0001b1a4 s GCC_except_table42
0001b1f8 s GCC_except_table51
0001b224 s GCC_except_table52
0001b250 s GCC_except_table56
0001b27c s GCC_except_table57
0001b560 s __GLOBAL__I_a
0001bd7c s __GLOBAL__I_a.eh
         U __Unwind_Resume
         U __Z10ofDrawAxisf
         U __Z5ofBoxf
         U __Z7ofClampfff
         U __ZN11ofMatrix4x412makeInvertOfERKS_
         U __ZN11ofMatrix4x414setTranslationERK7ofVec3f
         U __ZN11ofMatrix4x415makeScaleMatrixERK7ofVec3f
         U __ZN11ofMatrix4x418makeIdentityMatrixEv
         U __ZN11ofMatrix4x418makeRotationMatrixERK12ofQuaternion
         U __ZN11ofMatrix4x424makeFromMultiplicationOfERKS_S1_
         U __ZN11ofMatrix4x48postMultERKS_
         U __ZN11ofMatrix4x49setRotateERK12ofQuaternion
         U __ZN12ofQuaternion10makeRotateEfRK7ofVec3f
         U __ZN12ofQuaternion10makeRotateEfRK7ofVec3ffS2_fS2_
0001b500 S __ZN6ofNode10customDrawEv
0001bd0c S __ZN6ofNode10customDrawEv.eh
000003d0 T __ZN6ofNode11clearParentEv
0001b6bc S __ZN6ofNode11clearParentEv.eh
00000270 T __ZN6ofNode11setPositionERK7ofVec3f
0001b64c S __ZN6ofNode11setPositionERK7ofVec3f.eh
00000510 T __ZN6ofNode11setPositionEfff
0001b710 S __ZN6ofNode11setPositionEfff.eh
000009e0 T __ZN6ofNode12createMatrixEv
0001b81c S __ZN6ofNode12createMatrixEv.eh
00001820 T __ZN6ofNode12rotateAroundERK12ofQuaternionRK7ofVec3f
0001ba78 S __ZN6ofNode12rotateAroundERK12ofQuaternionRK7ofVec3f.eh
00001a40 T __ZN6ofNode12rotateAroundEfRK7ofVec3fS2_
0001bab8 S __ZN6ofNode12rotateAroundEfRK7ofVec3fS2_.eh
0001b550 S __ZN6ofNode14onScaleChangedEv
0001bd60 S __ZN6ofNode14onScaleChangedEv.eh
00002280 T __ZN6ofNode14resetTransformEv
0001bc58 S __ZN6ofNode14resetTransformEv.eh
000009a0 T __ZN6ofNode14setOrientationERK12ofQuaternion
0001b800 S __ZN6ofNode14setOrientationERK12ofQuaternion.eh
000002b0 T __ZN6ofNode14setOrientationERK7ofVec3f
0001b668 S __ZN6ofNode14setOrientationERK7ofVec3f.eh
0001b530 S __ZN6ofNode17onPositionChangedEv
0001bd28 S __ZN6ofNode17onPositionChangedEv.eh
000005a0 T __ZN6ofNode17setGlobalPositionERK7ofVec3f
0001b748 S __ZN6ofNode17setGlobalPositionERK7ofVec3f.eh
00000560 T __ZN6ofNode17setGlobalPositionEfff
0001b72c S __ZN6ofNode17setGlobalPositionEfff.eh
000003f0 T __ZN6ofNode18setTransformMatrixERK11ofMatrix4x4
0001b6f4 S __ZN6ofNode18setTransformMatrixERK11ofMatrix4x4.eh
0001b540 S __ZN6ofNode20onOrientationChangedEv
0001bd44 S __ZN6ofNode20onOrientationChangedEv.eh
00000b70 T __ZN6ofNode20setGlobalOrientationERK12ofQuaternion
0001b840 S __ZN6ofNode20setGlobalOrientationERK12ofQuaternion.eh
000012e0 T __ZN6ofNode3panEf
0001ba08 S __ZN6ofNode3panEf.eh
00000f10 T __ZN6ofNode4boomEf
0001b960 S __ZN6ofNode4boomEf.eh
00002380 T __ZN6ofNode4drawEv
0001bc74 S __ZN6ofNode4drawEv.eh
00000e20 T __ZN6ofNode4moveERK7ofVec3f
0001b90c S __ZN6ofNode4moveERK7ofVec3f.eh
00000dc0 T __ZN6ofNode4moveEfff
0001b8f0 S __ZN6ofNode4moveEfff.eh
00001440 T __ZN6ofNode4rollEf
0001ba24 S __ZN6ofNode4rollEf.eh
00001030 T __ZN6ofNode4tiltEf
0001b9d0 S __ZN6ofNode4tiltEf.eh
00000fa0 T __ZN6ofNode5dollyEf
0001b998 S __ZN6ofNode5dollyEf.eh
00002070 T __ZN6ofNode5orbitEfffRK7ofVec3f
0001bbf8 S __ZN6ofNode5orbitEfffRK7ofVec3f.eh
00002200 T __ZN6ofNode5orbitEfffRS_
0001bc3c S __ZN6ofNode5orbitEfffRS_.eh
00000e80 T __ZN6ofNode5truckEf
0001b928 S __ZN6ofNode5truckEf.eh
00001aa0 T __ZN6ofNode6lookAtERK7ofVec3fS0_
0001bad4 S __ZN6ofNode6lookAtERK7ofVec3fS0_.eh
00001e90 T __ZN6ofNode6lookAtERS_RK7ofVec3f
0001baf8 S __ZN6ofNode6lookAtERS_RK7ofVec3f.eh
000015a0 T __ZN6ofNode6rotateERK12ofQuaternion
0001ba40 S __ZN6ofNode6rotateERK12ofQuaternion.eh
00001190 T __ZN6ofNode6rotateEfRK7ofVec3f
0001b9ec S __ZN6ofNode6rotateEfRK7ofVec3f.eh
000016b0 T __ZN6ofNode6rotateEffff
0001ba5c S __ZN6ofNode6rotateEffff.eh
00000d70 T __ZN6ofNode8setScaleERK7ofVec3f
0001b8b8 S __ZN6ofNode8setScaleERK7ofVec3f.eh
00000390 T __ZN6ofNode8setScaleEf
0001b684 S __ZN6ofNode8setScaleEf.eh
00000d30 T __ZN6ofNode8setScaleEfff
0001b89c S __ZN6ofNode8setScaleEfff.eh
000003c0 T __ZN6ofNode9setParentERS_
0001b6a0 S __ZN6ofNode9setParentERS_.eh
00000000 T __ZN6ofNodeC1Ev
0001b5ec S __ZN6ofNodeC1Ev.eh
00000010 T __ZN6ofNodeC2Ev
0001b628 S __ZN6ofNodeC2Ev.eh
0001b4f0 S __ZN6ofNodeD0Ev
0001bcf0 S __ZN6ofNodeD0Ev.eh
0001b4e0 S __ZN6ofNodeD1Ev
0001bcd4 S __ZN6ofNodeD1Ev.eh
0001b2e0 S __ZN7ofVec3f6rotateEfRKS_
0001bc1c S __ZN7ofVec3f6rotateEfRKS_.eh
         U __ZNK11ofMatrix4x49decomposeER7ofVec3fR12ofQuaternionS1_S3_
         U __ZNK11ofMatrix4x49getRotateEv
         U __ZNK12ofQuaternion8getEulerEv
00001fc0 T __ZNK6ofNode10getHeadingEv
0001bb84 S __ZNK6ofNode10getHeadingEv.eh
00001f00 T __ZNK6ofNode10getSideDirEv
0001bb14 S __ZNK6ofNode10getSideDirEv.eh
00000950 T __ZNK6ofNode11getPositionEv
0001b790 S __ZNK6ofNode11getPositionEv.eh
000023d0 T __ZNK6ofNode11transformGLEv
0001bc98 S __ZNK6ofNode11transformGLEv.eh
00001f20 T __ZNK6ofNode12getLookAtDirEv
0001bb30 S __ZNK6ofNode12getLookAtDirEv.eh
000019f0 T __ZNK6ofNode17getGlobalPositionEv
0001ba9c S __ZNK6ofNode17getGlobalPositionEv.eh
00000ce0 T __ZNK6ofNode18getOrientationQuatEv
0001b864 S __ZNK6ofNode18getOrientationQuatEv.eh
00002410 T __ZNK6ofNode18restoreTransformGLEv
0001bcb8 S __ZNK6ofNode18restoreTransformGLEv.eh
00000d00 T __ZNK6ofNode19getOrientationEulerEv
0001b880 S __ZNK6ofNode19getOrientationEulerEv.eh
00002030 T __ZNK6ofNode20getGlobalOrientationEv
0001bbd8 S __ZNK6ofNode20getGlobalOrientationEv.eh
00002020 T __ZNK6ofNode23getLocalTransformMatrixEv
0001bbbc S __ZNK6ofNode23getLocalTransformMatrixEv.eh
00000750 T __ZNK6ofNode24getGlobalTransformMatrixEv
0001b76c S __ZNK6ofNode24getGlobalTransformMatrixEv.eh
00000970 T __ZNK6ofNode4getXEv
0001b7ac S __ZNK6ofNode4getXEv.eh
00000980 T __ZNK6ofNode4getYEv
0001b7c8 S __ZNK6ofNode4getYEv.eh
00000990 T __ZNK6ofNode4getZEv
0001b7e4 S __ZNK6ofNode4getZEv.eh
00001ff0 T __ZNK6ofNode7getRollEv
0001bba0 S __ZNK6ofNode7getRollEv.eh
00001f90 T __ZNK6ofNode8getPitchEv
0001bb68 S __ZNK6ofNode8getPitchEv.eh
00000da0 T __ZNK6ofNode8getScaleEv
0001b8d4 S __ZNK6ofNode8getScaleEv.eh
00001f70 T __ZNK6ofNode8getUpDirEv
0001bb4c S __ZNK6ofNode8getUpDirEv.eh
00000ef0 T __ZNK6ofNode8getXAxisEv
0001b944 S __ZNK6ofNode8getXAxisEv.eh
00000f80 T __ZNK6ofNode8getYAxisEv
0001b97c S __ZNK6ofNode8getYAxisEv.eh
00001010 T __ZNK6ofNode8getZAxisEv
0001b9b4 S __ZNK6ofNode8getZAxisEv.eh
000003e0 T __ZNK6ofNode9getParentEv
0001b6d8 S __ZNK6ofNode9getParentEv.eh
         U __ZNSt8ios_base4InitC1Ev
         U __ZNSt8ios_base4InitD1Ev
0001c36d b __ZStL8__ioinit
0001b5c0 S __ZTI6ofNode
0001b5c8 S __ZTS6ofNode
0001b5a0 S __ZTV6ofNode
         U __ZTVN10__cxxabiv117__class_type_infoE
         U __ZdlPv
         U ___cxa_atexit
         U ___dso_handle
         U ___gxx_personality_v0
         U _cosf
         U _glMultMatrixf
         U _glPopMatrix
         U _glPushMatrix
         U _sinf

../../../libs/openFrameworksCompiled/lib/osx/openFrameworks.a(ofBaseSoundPlayer.o):
000058c4 s EH_frame0
00005870 s __GLOBAL__I_a
000058dc s __GLOBAL__I_a.eh
         U __ZNSt8ios_base4InitC1Ev
         U __ZNSt8ios_base4InitD1Ev
000058fc b __ZStL8__ioinit
         U ___cxa_atexit
         U ___dso_handle

../../../libs/openFrameworksCompiled/lib/osx/openFrameworks.a(ofFmodSoundPlayer.o):
0000a5c4 s EH_frame0
0000a6a4 s EH_frame1
0000a370 s GCC_except_table11
0000a310 s GCC_except_table7
0000a330 s GCC_except_table8
0000a350 s GCC_except_table9
         U _FMOD_ChannelGroup_SetVolume
         U _FMOD_ChannelGroup_Stop
         U _FMOD_Channel_GetFrequency
         U _FMOD_Channel_GetPosition
         U _FMOD_Channel_IsPlaying
         U _FMOD_Channel_SetFrequency
         U _FMOD_Channel_SetMode
         U _FMOD_Channel_SetPan
         U _FMOD_Channel_SetPaused
         U _FMOD_Channel_SetPosition
         U _FMOD_Channel_SetVolume
         U _FMOD_Channel_Stop
         U _FMOD_Sound_GetLength
         U _FMOD_Sound_Release
         U _FMOD_System_Close
         U _FMOD_System_Create
         U _FMOD_System_CreateSound
         U _FMOD_System_GetMasterChannelGroup
         U _FMOD_System_GetSpectrum
         U _FMOD_System_Init
         U _FMOD_System_PlaySound
         U _FMOD_System_Update
0000a3c0 s __GLOBAL__I_a
0000a974 s __GLOBAL__I_a.eh
         U __Unwind_Resume
         U __Z10ofNextPow2i
         U __Z12ofToDataPathSsb
00000180 T __Z17ofFmodSoundUpdatev
0000a630 S __Z17ofFmodSoundUpdatev.eh
00000000 T __Z18ofFmodSoundStopAllv
0000a5dc S __Z18ofFmodSoundStopAllv.eh
000000f0 T __Z20ofFmodSoundSetVolumef
0000a614 S __Z20ofFmodSoundSetVolumef.eh
000001b0 T __Z22ofFmodSoundGetSpectrumi
0000a64c S __Z22ofFmodSoundGetSpectrumi.eh
0000aa40 b __ZL12channelgroup
0000aa44 b __ZL3sys
00000b20 T __ZN17ofFmodSoundPlayer11getPositionEv
0000a868 S __ZN17ofFmodSoundPlayer11getPositionEv.eh
00000a70 T __ZN17ofFmodSoundPlayer11setPositionEf
0000a82c S __ZN17ofFmodSoundPlayer11setPositionEf.eh
00000970 T __ZN17ofFmodSoundPlayer11unloadSoundEv
0000a768 S __ZN17ofFmodSoundPlayer11unloadSoundEv.eh
000009b0 T __ZN17ofFmodSoundPlayer12getIsPlayingEv
0000a784 S __ZN17ofFmodSoundPlayer12getIsPlayingEv.eh
00000d00 T __ZN17ofFmodSoundPlayer12setMultiPlayEb
0000a91c S __ZN17ofFmodSoundPlayer12setMultiPlayEb.eh
00000bb0 T __ZN17ofFmodSoundPlayer13getPositionMSEv
0000a888 S __ZN17ofFmodSoundPlayer13getPositionMSEv.eh
00000ae0 T __ZN17ofFmodSoundPlayer13setPositionMSEi
0000a84c S __ZN17ofFmodSoundPlayer13setPositionMSEi.eh
00000080 T __ZN17ofFmodSoundPlayer14initializeFmodEv
0000a5f8 S __ZN17ofFmodSoundPlayer14initializeFmodEv.eh
00000d10 T __ZN17ofFmodSoundPlayer4playEv
0000a938 S __ZN17ofFmodSoundPlayer4playEv.eh
00000e00 T __ZN17ofFmodSoundPlayer4stopEv
0000a958 S __ZN17ofFmodSoundPlayer4stopEv.eh
00000a00 T __ZN17ofFmodSoundPlayer6getPanEv
0000a7bc S __ZN17ofFmodSoundPlayer6getPanEv.eh
00000bf0 T __ZN17ofFmodSoundPlayer6setPanEf
0000a8a4 S __ZN17ofFmodSoundPlayer6setPanEf.eh
00000cc0 T __ZN17ofFmodSoundPlayer7setLoopEb
0000a8fc S __ZN17ofFmodSoundPlayer7setLoopEb.eh
000009f0 T __ZN17ofFmodSoundPlayer8getSpeedEv
0000a7a0 S __ZN17ofFmodSoundPlayer8getSpeedEv.eh
00000a20 T __ZN17ofFmodSoundPlayer8isLoadedEv
0000a7f4 S __ZN17ofFmodSoundPlayer8isLoadedEv.eh
00000c70 T __ZN17ofFmodSoundPlayer8setSpeedEf
0000a8e0 S __ZN17ofFmodSoundPlayer8setSpeedEf.eh
00000720 T __ZN17ofFmodSoundPlayer9closeFmodEv
0000a728 S __ZN17ofFmodSoundPlayer9closeFmodEv.eh
00000a10 T __ZN17ofFmodSoundPlayer9getVolumeEv
0000a7d8 S __ZN17ofFmodSoundPlayer9getVolumeEv.eh
00000750 T __ZN17ofFmodSoundPlayer9loadSoundESsb
0000a744 S __ZN17ofFmodSoundPlayer9loadSoundESsb.eh
00000c30 T __ZN17ofFmodSoundPlayer9setPausedEb
0000a8c0 S __ZN17ofFmodSoundPlayer9setPausedEb.eh
00000a30 T __ZN17ofFmodSoundPlayer9setVolumeEf
0000a810 S __ZN17ofFmodSoundPlayer9setVolumeEf.eh
00000580 T __ZN17ofFmodSoundPlayerC1Ev
0000a66c S __ZN17ofFmodSoundPlayerC1Ev.eh
000005d0 T __ZN17ofFmodSoundPlayerC2Ev
0000a688 S __ZN17ofFmodSoundPlayerC2Ev.eh
00000620 T __ZN17ofFmodSoundPlayerD0Ev
0000a6c4 S __ZN17ofFmodSoundPlayerD0Ev.eh
00000680 T __ZN17ofFmodSoundPlayerD1Ev
0000a6e8 S __ZN17ofFmodSoundPlayerD1Ev.eh
000006d0 T __ZN17ofFmodSoundPlayerD2Ev
0000a708 S __ZN17ofFmodSoundPlayerD2Ev.eh
         U __ZN5ofLogC1E10ofLogLevelPKcz
         U __ZN5ofLogD1Ev
         U __ZNSs4_Rep10_M_destroyERKSaIcE
         U __ZNSs4_Rep20_S_empty_rep_storageE
         U __ZNSs6assignERKSs
         U __ZNSsC1ERKSs
         U __ZNSt8ios_base4InitC1Ev
         U __ZNSt8ios_base4InitD1Ev
0000aa3c b __ZStL8__ioinit
0000a5b8 S __ZTI17ofBaseSoundPlayer
0000a570 S __ZTI17ofFmodSoundPlayer
0000a5a0 S __ZTS17ofBaseSoundPlayer
0000a580 S __ZTS17ofFmodSoundPlayer
0000a510 S __ZTV17ofFmodSoundPlayer
         U __ZTVN10__cxxabiv117__class_type_infoE
         U __ZTVN10__cxxabiv120__si_class_type_infoE
         U __ZdlPv
         U ___bzero
         U ___cxa_atexit
         U ___dso_handle
         U ___gxx_personality_v0
0000aa48 S _bFmodInitialized_
0000aa49 S _bUseSpectrum_
00012a4c S _fftInterpValues_
0001aa4c S _fftSpectrum_
0000aa4c S _fftValues_
         U _log10f
         U _memcpy

../../../libs/openFrameworksCompiled/lib/osx/openFrameworks.a(ofSoundPlayer.o):
0000dfb8 s EH_frame0
0000e078 s EH_frame1
0000dae8 s GCC_except_table28
0000db08 s GCC_except_table29
0000db28 s GCC_except_table30
0000da48 s GCC_except_table6
0000dabc s GCC_except_table9
0000dd60 s __GLOBAL__I_a
0000e408 s __GLOBAL__I_a.eh
         U __Unwind_Resume
00000020 T __Z13ofSoundUpdatev
0000e008 S __Z13ofSoundUpdatev.eh
00000000 T __Z14ofSoundStopAllv
0000dfd0 S __Z14ofSoundStopAllv.eh
00000030 T __Z15ofSoundShutdownv
0000e024 S __Z15ofSoundShutdownv.eh
00000010 T __Z16ofSoundSetVolumef
0000dfec S __Z16ofSoundSetVolumef.eh
         U __Z17ofFmodSoundUpdatev
         U __Z18ofFmodSoundStopAllv
00000040 T __Z18ofSoundGetSpectrumi
0000e040 S __Z18ofSoundGetSpectrumi.eh
         U __Z20ofFmodSoundSetVolumef
         U __Z22ofFmodSoundGetSpectrumi
00000590 T __ZN13ofSoundPlayer11getPositionEv
0000e250 S __ZN13ofSoundPlayer11getPositionEv.eh
00000530 T __ZN13ofSoundPlayer11setPositionEf
0000e218 S __ZN13ofSoundPlayer11setPositionEf.eh
000003b0 T __ZN13ofSoundPlayer11unloadSoundEv
0000e11c S __ZN13ofSoundPlayer11unloadSoundEv.eh
000005f0 T __ZN13ofSoundPlayer12getIsPlayingEv
0000e288 S __ZN13ofSoundPlayer12getIsPlayingEv.eh
00000500 T __ZN13ofSoundPlayer12setMultiPlayEb
0000e1fc S __ZN13ofSoundPlayer12setMultiPlayEb.eh
000005c0 T __ZN13ofSoundPlayer13getPositionMSEv
0000e26c S __ZN13ofSoundPlayer13getPositionMSEv.eh
00000560 T __ZN13ofSoundPlayer13setPositionMSEi
0000e234 S __ZN13ofSoundPlayer13setPositionMSEi.eh
000003d0 T __ZN13ofSoundPlayer4playEv
0000e138 S __ZN13ofSoundPlayer4playEv.eh
000003f0 T __ZN13ofSoundPlayer4stopEv
0000e154 S __ZN13ofSoundPlayer4stopEv.eh
00000680 T __ZN13ofSoundPlayer6getPanEv
0000e2dc S __ZN13ofSoundPlayer6getPanEv.eh
00000440 T __ZN13ofSoundPlayer6setPanEf
0000e18c S __ZN13ofSoundPlayer6setPanEf.eh
000004d0 T __ZN13ofSoundPlayer7setLoopEb
0000e1e0 S __ZN13ofSoundPlayer7setLoopEb.eh
00000650 T __ZN13ofSoundPlayer8getSpeedEv
0000e2c0 S __ZN13ofSoundPlayer8getSpeedEv.eh
00000620 T __ZN13ofSoundPlayer8isLoadedEv
0000e2a4 S __ZN13ofSoundPlayer8isLoadedEv.eh
00000470 T __ZN13ofSoundPlayer8setSpeedEf
0000e1a8 S __ZN13ofSoundPlayer8setSpeedEf.eh
000002d0 T __ZN13ofSoundPlayer9getPlayerEv
0000e0dc S __ZN13ofSoundPlayer9getPlayerEv.eh
000006b0 T __ZN13ofSoundPlayer9getVolumeEv
0000e2f8 S __ZN13ofSoundPlayer9getVolumeEv.eh
000002f0 T __ZN13ofSoundPlayer9loadSoundESsb
0000e0f8 S __ZN13ofSoundPlayer9loadSoundESsb.eh
000004a0 T __ZN13ofSoundPlayer9setPausedEb
0000e1c4 S __ZN13ofSoundPlayer9setPausedEb.eh
00000260 T __ZN13ofSoundPlayer9setPlayerE5ofPtrI17ofBaseSoundPlayerE
0000e0bc S __ZN13ofSoundPlayer9setPlayerE5ofPtrI17ofBaseSoundPlayerE.eh
00000410 T __ZN13ofSoundPlayer9setVolumeEf
0000e170 S __ZN13ofSoundPlayer9setVolumeEf.eh
00000050 T __ZN13ofSoundPlayerC1Ev
0000e05c S __ZN13ofSoundPlayerC1Ev.eh
00000060 T __ZN13ofSoundPlayerC2Ev
0000e098 S __ZN13ofSoundPlayerC2Ev.eh
0000dbe0 S __ZN13ofSoundPlayerD0Ev
0000e334 S __ZN13ofSoundPlayerD0Ev.eh
0000db80 S __ZN13ofSoundPlayerD1Ev
0000e314 S __ZN13ofSoundPlayerD1Ev.eh
         U __ZN17ofFmodSoundPlayer9closeFmodEv
         U __ZN17ofFmodSoundPlayerC1Ev
         U __ZNSs4_Rep10_M_destroyERKSaIcE
         U __ZNSs4_Rep20_S_empty_rep_storageE
         U __ZNSsC1ERKSs
0000dc50 S __ZNSt3tr114__shared_countILN9__gnu_cxx12_Lock_policyE2EEC2IP17ofFmodSoundPlayerNS_11_Sp_deleterIS5_EEEET_T0_
0000e358 S __ZNSt3tr114__shared_countILN9__gnu_cxx12_Lock_policyE2EEC2IP17ofFmodSoundPlayerNS_11_Sp_deleterIS5_EEEET_T0_.eh
0000dd10 S __ZNSt3tr116_Sp_counted_baseILN9__gnu_cxx12_Lock_policyE2EE10_M_destroyEv
0000e3d0 S __ZNSt3tr116_Sp_counted_baseILN9__gnu_cxx12_Lock_policyE2EE10_M_destroyEv.eh
0000dcf0 S __ZNSt3tr121_Sp_counted_base_implIP17ofFmodSoundPlayerNS_11_Sp_deleterIS1_EELN9__gnu_cxx12_Lock_policyE2EE10_M_disposeEv
0000e3b4 S __ZNSt3tr121_Sp_counted_base_implIP17ofFmodSoundPlayerNS_11_Sp_deleterIS1_EELN9__gnu_cxx12_Lock_policyE2EE10_M_disposeEv.eh
0000dd30 S __ZNSt3tr121_Sp_counted_base_implIP17ofFmodSoundPlayerNS_11_Sp_deleterIS1_EELN9__gnu_cxx12_Lock_policyE2EE14_M_get_deleterERKSt9type_info
0000e3ec S __ZNSt3tr121_Sp_counted_base_implIP17ofFmodSoundPlayerNS_11_Sp_deleterIS1_EELN9__gnu_cxx12_Lock_policyE2EE14_M_get_deleterERKSt9type_info.eh
0000dce0 S __ZNSt3tr121_Sp_counted_base_implIP17ofFmodSoundPlayerNS_11_Sp_deleterIS1_EELN9__gnu_cxx12_Lock_policyE2EED0Ev
0000e398 S __ZNSt3tr121_Sp_counted_base_implIP17ofFmodSoundPlayerNS_11_Sp_deleterIS1_EELN9__gnu_cxx12_Lock_policyE2EED0Ev.eh
0000dcd0 S __ZNSt3tr121_Sp_counted_base_implIP17ofFmodSoundPlayerNS_11_Sp_deleterIS1_EELN9__gnu_cxx12_Lock_policyE2EED1Ev
0000e37c S __ZNSt3tr121_Sp_counted_base_implIP17ofFmodSoundPlayerNS_11_Sp_deleterIS1_EELN9__gnu_cxx12_Lock_policyE2EED1Ev.eh
         U __ZNSt8ios_base4InitC1Ev
         U __ZNSt8ios_base4InitD1Ev
         U __ZSt9terminatev
0000e66e b __ZStL8__ioinit
0000de00 S __ZTI13ofSoundPlayer
0000df60 S __ZTI17ofBaseSoundPlayer
0000df90 S __ZTINSt3tr111_Mutex_baseILN9__gnu_cxx12_Lock_policyE2EEE
0000df98 S __ZTINSt3tr116_Sp_counted_baseILN9__gnu_cxx12_Lock_policyE2EEE
0000dfa8 S __ZTINSt3tr121_Sp_counted_base_implIP17ofFmodSoundPlayerNS_11_Sp_deleterIS1_EELN9__gnu_cxx12_Lock_policyE2EEE
0000de0c S __ZTS13ofSoundPlayer
0000de20 S __ZTS17ofBaseSoundPlayer
0000def0 S __ZTSNSt3tr111_Mutex_baseILN9__gnu_cxx12_Lock_policyE2EEE
0000df30 S __ZTSNSt3tr111_Sp_deleterI17ofFmodSoundPlayerEE
0000deb0 S __ZTSNSt3tr116_Sp_counted_baseILN9__gnu_cxx12_Lock_policyE2EEE
0000de40 S __ZTSNSt3tr121_Sp_counted_base_implIP17ofFmodSoundPlayerNS_11_Sp_deleterIS1_EELN9__gnu_cxx12_Lock_policyE2EEE
0000dda0 S __ZTV13ofSoundPlayer
         U __ZTVN10__cxxabiv117__class_type_infoE
         U __ZTVN10__cxxabiv120__si_class_type_infoE
0000df70 S __ZTVNSt3tr121_Sp_counted_base_implIP17ofFmodSoundPlayerNS_11_Sp_deleterIS1_EELN9__gnu_cxx12_Lock_policyE2EEE
         U __ZdlPv
         U __Znwm
         U ___cxa_atexit
         U ___cxa_begin_catch
         U ___cxa_end_catch
         U ___cxa_rethrow
         U ___dso_handle
         U ___gxx_personality_v0

../../../libs/openFrameworksCompiled/lib/osx/openFrameworks.a(ofSoundStream.o):
00012fc4 s EH_frame0
00013178 s EH_frame1
00012cf8 s GCC_except_table14
00012d6c s GCC_except_table22
00012dc0 s __GLOBAL__I_a
00013338 s __GLOBAL__I_a.eh
         U __Unwind_Resume
         U __Z11ofGetAppPtrv
00000190 T __Z17ofSoundStreamStopv
00013098 S __Z17ofSoundStreamStopv.eh
00000250 T __Z18ofSoundStreamClosev
00013108 S __Z18ofSoundStreamClosev.eh
00000010 T __Z18ofSoundStreamSetupiiP9ofBaseApp
00013018 S __Z18ofSoundStreamSetupiiP9ofBaseApp.eh
00000070 T __Z18ofSoundStreamSetupiiP9ofBaseAppiii
00013038 S __Z18ofSoundStreamSetupiiP9ofBaseAppiii.eh
000000d0 T __Z18ofSoundStreamSetupiiiii
00013058 S __Z18ofSoundStreamSetupiiiii.eh
000001f0 T __Z18ofSoundStreamStartv
000130d0 S __Z18ofSoundStreamStartv.eh
000002b0 T __Z24ofSoundStreamListDevicesv
00013140 S __Z24ofSoundStreamListDevicesv.eh
000002e0 T __ZN13ofSoundStream11listDevicesEv
0001315c S __ZN13ofSoundStream11listDevicesEv.eh
00000580 T __ZN13ofSoundStream11setDeviceIDEi
000131f8 S __ZN13ofSoundStream11setDeviceIDEi.eh
00000660 T __ZN13ofSoundStream12getTickCountEv
0001326c S __ZN13ofSoundStream12getTickCountEv.eh
00000560 T __ZN13ofSoundStream14getSoundStreamEv
000131dc S __ZN13ofSoundStream14getSoundStreamEv.eh
000004f0 T __ZN13ofSoundStream14setSoundStreamE5ofPtrI17ofBaseSoundStreamE
000131bc S __ZN13ofSoundStream14setSoundStreamE5ofPtrI17ofBaseSoundStreamE.eh
000001d0 T __ZN13ofSoundStream4stopEv
000130b4 S __ZN13ofSoundStream4stopEv.eh
00000290 T __ZN13ofSoundStream5closeEv
00013124 S __ZN13ofSoundStream5closeEv.eh
00000130 T __ZN13ofSoundStream5setupEP9ofBaseAppiiiii
00013078 S __ZN13ofSoundStream5setupEP9ofBaseAppiiiii.eh
00000610 T __ZN13ofSoundStream5setupEiiiii
0001324c S __ZN13ofSoundStream5setupEiiiii.eh
00000230 T __ZN13ofSoundStream5startEv
000130ec S __ZN13ofSoundStream5startEv.eh
000005b0 T __ZN13ofSoundStream8setInputEP16ofBaseSoundInput
00013214 S __ZN13ofSoundStream8setInputEP16ofBaseSoundInput.eh
000005e0 T __ZN13ofSoundStream9setOutputEP17ofBaseSoundOutput
00013230 S __ZN13ofSoundStream9setOutputEP17ofBaseSoundOutput.eh
00000000 T __ZN13ofSoundStreamC1Ev
00012fdc S __ZN13ofSoundStreamC1Ev.eh
00000300 T __ZN13ofSoundStreamC2Ev
00013198 S __ZN13ofSoundStreamC2Ev.eh
00012ba0 S __ZN13ofSoundStreamD1Ev
00012ff8 S __ZN13ofSoundStreamD1Ev.eh
         U __ZN20ofRtAudioSoundStreamC1Ev
00012bf0 S __ZNSt3tr114__shared_countILN9__gnu_cxx12_Lock_policyE2EEC2IP20ofRtAudioSoundStreamNS_11_Sp_deleterIS5_EEEET_T0_
00013288 S __ZNSt3tr114__shared_countILN9__gnu_cxx12_Lock_policyE2EEC2IP20ofRtAudioSoundStreamNS_11_Sp_deleterIS5_EEEET_T0_.eh
00012cb0 S __ZNSt3tr116_Sp_counted_baseILN9__gnu_cxx12_Lock_policyE2EE10_M_destroyEv
00013300 S __ZNSt3tr116_Sp_counted_baseILN9__gnu_cxx12_Lock_policyE2EE10_M_destroyEv.eh
00012c90 S __ZNSt3tr121_Sp_counted_base_implIP20ofRtAudioSoundStreamNS_11_Sp_deleterIS1_EELN9__gnu_cxx12_Lock_policyE2EE10_M_disposeEv
000132e4 S __ZNSt3tr121_Sp_counted_base_implIP20ofRtAudioSoundStreamNS_11_Sp_deleterIS1_EELN9__gnu_cxx12_Lock_policyE2EE10_M_disposeEv.eh
00012cd0 S __ZNSt3tr121_Sp_counted_base_implIP20ofRtAudioSoundStreamNS_11_Sp_deleterIS1_EELN9__gnu_cxx12_Lock_policyE2EE14_M_get_deleterERKSt9type_info
0001331c S __ZNSt3tr121_Sp_counted_base_implIP20ofRtAudioSoundStreamNS_11_Sp_deleterIS1_EELN9__gnu_cxx12_Lock_policyE2EE14_M_get_deleterERKSt9type_info.eh
00012c80 S __ZNSt3tr121_Sp_counted_base_implIP20ofRtAudioSoundStreamNS_11_Sp_deleterIS1_EELN9__gnu_cxx12_Lock_policyE2EED0Ev
000132c8 S __ZNSt3tr121_Sp_counted_base_implIP20ofRtAudioSoundStreamNS_11_Sp_deleterIS1_EELN9__gnu_cxx12_Lock_policyE2EED0Ev.eh
00012c70 S __ZNSt3tr121_Sp_counted_base_implIP20ofRtAudioSoundStreamNS_11_Sp_deleterIS1_EELN9__gnu_cxx12_Lock_policyE2EED1Ev
000132ac S __ZNSt3tr121_Sp_counted_base_implIP20ofRtAudioSoundStreamNS_11_Sp_deleterIS1_EELN9__gnu_cxx12_Lock_policyE2EED1Ev.eh
         U __ZNSt8ios_base4InitC1Ev
         U __ZNSt8ios_base4InitD1Ev
         U __ZSt9terminatev
0001364d b __ZStL8__ioinit
00012e70 S __ZTINSt3tr111_Mutex_baseILN9__gnu_cxx12_Lock_policyE2EEE
00012e78 S __ZTINSt3tr116_Sp_counted_baseILN9__gnu_cxx12_Lock_policyE2EEE
00012e88 S __ZTINSt3tr121_Sp_counted_base_implIP20ofRtAudioSoundStreamNS_11_Sp_deleterIS1_EELN9__gnu_cxx12_Lock_policyE2EEE
00012f50 S __ZTSNSt3tr111_Mutex_baseILN9__gnu_cxx12_Lock_policyE2EEE
00012f90 S __ZTSNSt3tr111_Sp_deleterI20ofRtAudioSoundStreamEE
00012f10 S __ZTSNSt3tr116_Sp_counted_baseILN9__gnu_cxx12_Lock_policyE2EEE
00012ea0 S __ZTSNSt3tr121_Sp_counted_base_implIP20ofRtAudioSoundStreamNS_11_Sp_deleterIS1_EELN9__gnu_cxx12_Lock_policyE2EEE
         U __ZTVN10__cxxabiv117__class_type_infoE
         U __ZTVN10__cxxabiv120__si_class_type_infoE
00012e50 S __ZTVNSt3tr121_Sp_counted_base_implIP20ofRtAudioSoundStreamNS_11_Sp_deleterIS1_EELN9__gnu_cxx12_Lock_policyE2EEE
         U __ZdlPv
         U __Znwm
         U ___cxa_atexit
         U ___cxa_begin_catch
         U ___cxa_end_catch
         U ___cxa_rethrow
         U ___dso_handle
         U ___gxx_personality_v0
00013650 S _soundStreamInput
00013658 S _soundStreamOutput

../../../libs/openFrameworksCompiled/lib/osx/openFrameworks.a(ofMath.o):
0001719c s EH_frame0
000175b0 s EH_frame1
000170b0 s GCC_except_table36
000170dc s GCC_except_table37
00017110 s __GLOBAL__I_a
000176a4 s __GLOBAL__I_a.eh
         U __Unwind_Resume
000003e0 T __Z10ofDegToRadf
00017358 S __Z10ofDegToRadf.eh
         U __Z10ofGetWidthv
00000000 T __Z10ofNextPow2i
000171b4 S __Z10ofNextPow2i.eh
000003b0 T __Z10ofRadToDegf
0001733c S __Z10ofRadToDegf.eh
00000160 T __Z10ofRandomufv
0001725c S __Z10ofRandomufv.eh
         U __Z11ofGetHeightv
00000190 T __Z11ofNormalizefff
00017278 S __Z11ofNormalizefff.eh
00002080 T __Z12ofCurvePoint7ofVec3fS_S_S_f
00017650 S __Z12ofCurvePoint7ofVec3fS_S_S_f.eh
00001c30 T __Z12ofInsidePolyRK7ofVec3fRKSt6vectorIS_SaIS_EE
000175f4 S __Z12ofInsidePolyRK7ofVec3fRKSt6vectorIS_SaIS_EE.eh
00001b00 T __Z12ofInsidePolyffRKSt6vectorI7ofVec3fSaIS0_EE
000175d0 S __Z12ofInsidePolyffRKSt6vectorI7ofVec3fSaIS0_EE.eh
00000060 T __Z12ofSeedRandomi
000171ec S __Z12ofSeedRandomi.eh
00000020 T __Z12ofSeedRandomv
000171d0 S __Z12ofSeedRandomv.eh
00001f00 T __Z13ofBezierPoint7ofVec3fS_S_S_f
00017634 S __Z13ofBezierPoint7ofVec3fS_S_S_f.eh
00000320 T __Z13ofDistSquaredffff
000172e8 S __Z13ofDistSquaredffff.eh
00000530 T __Z13ofLerpDegreesfff
000173c8 S __Z13ofLerpDegreesfff.eh
00000640 T __Z13ofLerpRadiansfff
00017400 S __Z13ofLerpRadiansfff.eh
00000750 T __Z13ofRandomWidthv
00017438 S __Z13ofRandomWidthv.eh
00001980 T __Z13ofSignedNoisef
00017540 S __Z13ofSignedNoisef.eh
00001a60 T __Z13ofSignedNoiseff
0001755c S __Z13ofSignedNoiseff.eh
00001a90 T __Z13ofSignedNoisefff
00017578 S __Z13ofSignedNoisefff.eh
00001ac0 T __Z13ofSignedNoiseffff
00017594 S __Z13ofSignedNoiseffff.eh
000004c0 T __Z13ofWrapDegreesfff
000173ac S __Z13ofWrapDegreesfff.eh
00000440 T __Z13ofWrapRadiansfff
00017390 S __Z13ofWrapRadiansfff.eh
00002380 T __Z14ofCurveTangent7ofVec3fS_S_S_f
00017688 S __Z14ofCurveTangent7ofVec3fS_S_S_f.eh
000007d0 T __Z14ofRandomHeightv
00017454 S __Z14ofRandomHeightv.eh
000021f0 T __Z15ofBezierTangent7ofVec3fS_S_S_f
0001766c S __Z15ofBezierTangent7ofVec3fS_S_S_f.eh
000005c0 T __Z24ofAngleDifferenceDegreesff
000173e4 S __Z24ofAngleDifferenceDegreesff.eh
000006d0 T __Z24ofAngleDifferenceRadiansff
0001741c S __Z24ofAngleDifferenceRadiansff.eh
00001d70 T __Z25ofLineSegmentIntersection7ofVec3fS_S_S_RS_
00017618 S __Z25ofLineSegmentIntersection7ofVec3fS_S_S_RS_.eh
00000210 T __Z5ofMapfffffb
000172b0 S __Z5ofMapfffffb.eh
000002e0 T __Z6ofDistffff
000172cc S __Z6ofDistffff.eh
00000410 T __Z6ofLerpfff
00017374 S __Z6ofLerpfff.eh
00000360 T __Z6ofSignf
00017304 S __Z6ofSignf.eh
000001e0 T __Z7ofClampfff
00017294 S __Z7ofClampfff.eh
00000850 T __Z7ofNoisef
00017470 S __Z7ofNoisef.eh
00000940 T __Z7ofNoiseff
0001748c S __Z7ofNoiseff.eh
00000c20 T __Z7ofNoisefff
000174c8 S __Z7ofNoisefff.eh
00001170 T __Z7ofNoiseffff
00017504 S __Z7ofNoiseffff.eh
00000070 T __Z8ofRandomf
00017208 S __Z8ofRandomf.eh
000000a0 T __Z8ofRandomff
00017224 S __Z8ofRandomff.eh
00000390 T __Z9ofInRangefff
00017320 S __Z9ofInRangefff.eh
00000120 T __Z9ofRandomfv
00017240 S __Z9ofRandomfv.eh
00000980 t __ZL21_slang_library_noise2ff
000174a8 s __ZL21_slang_library_noise2ff.eh
00000c60 t __ZL21_slang_library_noise3fff
000174e4 s __ZL21_slang_library_noise3fff.eh
000011c0 t __ZL21_slang_library_noise4ffff
00017520 s __ZL21_slang_library_noise4ffff.eh
00016eb0 s __ZL4perm
00016db0 s __ZL7simplex
         U __ZN10ofPolyline6insideEffRKS_
         U __ZN10ofPolylineC1ERKSt6vectorI7ofVec3fSaIS1_EE
         U __ZN5ofLogC1E10ofLogLevelPKcz
         U __ZN5ofLogD1Ev
         U __ZNSt8ios_base4InitC1Ev
         U __ZNSt8ios_base4InitD1Ev
00017887 b __ZStL8__ioinit
         U __ZdlPv
         U ___cxa_atexit
         U ___dso_handle
         U ___gxx_personality_v0
         U _getpid
         U _gettimeofday
         U _rand
         U _srand

../../../libs/openFrameworksCompiled/lib/osx/openFrameworks.a(ofMatrix3x3.o):
0000efac s EH_frame0
0000ed90 s __GLOBAL__I_a
0000f26c s __GLOBAL__I_a.eh
000003a0 T __ZN11ofMatrix3x311determinantERKS_
0000f088 S __ZN11ofMatrix3x311determinantERKS_.eh
00000e20 T __ZN11ofMatrix3x314entrywiseTimesERKS_
0000f1a0 S __ZN11ofMatrix3x314entrywiseTimesERKS_.eh
000000e0 T __ZN11ofMatrix3x33setEfffffffff
0000effc S __ZN11ofMatrix3x33setEfffffffff.eh
00000450 T __ZN11ofMatrix3x36invertEv
0000f0a4 S __ZN11ofMatrix3x36invertEv.eh
00000630 T __ZN11ofMatrix3x37inverseERKS_
0000f0c0 S __ZN11ofMatrix3x37inverseERKS_.eh
00000240 T __ZN11ofMatrix3x39transposeERKS_
0000f050 S __ZN11ofMatrix3x39transposeERKS_.eh
000001c0 T __ZN11ofMatrix3x39transposeEv
0000f034 S __ZN11ofMatrix3x39transposeEv.eh
00000000 T __ZN11ofMatrix3x3C1Efffffffff
0000efc4 S __ZN11ofMatrix3x3C1Efffffffff.eh
00000070 T __ZN11ofMatrix3x3C2Efffffffff
0000efe0 S __ZN11ofMatrix3x3C2Efffffffff.eh
00001040 T __ZN11ofMatrix3x3dVERKS_
0000f1f4 S __ZN11ofMatrix3x3dVERKS_.eh
000010d0 T __ZN11ofMatrix3x3dVEf
0000f210 S __ZN11ofMatrix3x3dVEf.eh
00000f70 T __ZN11ofMatrix3x3dvEf
0000f1d8 S __ZN11ofMatrix3x3dvEf.eh
00000150 T __ZN11ofMatrix3x3ixERKi
0000f018 S __ZN11ofMatrix3x3ixERKi.eh
00000a90 T __ZN11ofMatrix3x3mIERKS_
0000f130 S __ZN11ofMatrix3x3mIERKS_.eh
00000bf0 T __ZN11ofMatrix3x3mLERKS_
0000f168 S __ZN11ofMatrix3x3mLERKS_.eh
00000ee0 T __ZN11ofMatrix3x3mLEf
0000f1bc S __ZN11ofMatrix3x3mLEf.eh
000009b0 T __ZN11ofMatrix3x3miERKS_
0000f114 S __ZN11ofMatrix3x3miERKS_.eh
00000c50 T __ZN11ofMatrix3x3mlERKS_
0000f184 S __ZN11ofMatrix3x3mlERKS_.eh
00000b20 T __ZN11ofMatrix3x3mlEf
0000f14c S __ZN11ofMatrix3x3mlEf.eh
00000920 T __ZN11ofMatrix3x3pLERKS_
0000f0f8 S __ZN11ofMatrix3x3pLERKS_.eh
00000840 T __ZN11ofMatrix3x3plERKS_
0000f0dc S __ZN11ofMatrix3x3plERKS_.eh
000002f0 T __ZNK11ofMatrix3x311determinantEv
0000f06c S __ZNK11ofMatrix3x311determinantEv.eh
         U __ZNKSt9basic_iosIcSt11char_traitsIcEE5widenEc
         U __ZNSi10_M_extractIfEERSiRT_
         U __ZNSi6ignoreEi
         U __ZNSo3putEc
         U __ZNSo5flushEv
         U __ZNSo9_M_insertIdEERSoT_
         U __ZNSt8ios_base4InitC1Ev
         U __ZNSt8ios_base4InitD1Ev
         U __ZSt16__ostream_insertIcSt11char_traitsIcEERSt13basic_ostreamIT_T0_ES6_PKS3_i
0000f28c b __ZStL8__ioinit
00001160 T __ZlsRSoRK11ofMatrix3x3
0000f22c S __ZlsRSoRK11ofMatrix3x3.eh
000013c0 T __ZrsRSiR11ofMatrix3x3
0000f24c S __ZrsRSiR11ofMatrix3x3.eh
         U ___cxa_atexit
         U ___dso_handle

../../../libs/openFrameworksCompiled/lib/osx/openFrameworks.a(ofMatrix4x4.o):
00023698 s EH_frame0
00023720 s EH_frame1
00023484 s GCC_except_table22
000234a4 s GCC_except_table23
000234c4 s GCC_except_table24
000234e4 s GCC_except_table33
00023464 s GCC_except_table4
00023510 s __GLOBAL__I_a
00023d64 s __GLOBAL__I_a.eh
         U __Unwind_Resume
000018f0 T __Z10invert_4x3RK11ofMatrix4x4RS_
00023950 S __Z10invert_4x3RK11ofMatrix4x4RS_.eh
00001f30 T __Z10invert_4x4RK11ofMatrix4x4RS_
00023970 S __Z10invert_4x4RK11ofMatrix4x4RS_.eh
00004ef0 T __Z11polarDecompPA4_dS0_S0_
00023c74 S __Z11polarDecompPA4_dS0_S0_.eh
00005930 T __Z11spectDecompPA4_dS0_
00023c94 S __Z11spectDecompPA4_dS0_.eh
00006db0 T __Z12decompAffinePA4_dP12_affineParts
00023d28 S __Z12decompAffinePA4_dP12_affineParts.eh
00003790 T __Z12find_max_colPA4_d
00023b34 S __Z12find_max_colPA4_d.eh
00003b90 T __Z12reflect_colsPA4_dPd
00023bc0 S __Z12reflect_colsPA4_dPd.eh
00003cc0 T __Z12reflect_rowsPA4_dPd
00023bdc S __Z12reflect_rowsPA4_dPd.eh
00003ae0 T __Z14make_reflectorPdS_
00023ba4 S __Z14make_reflectorPdS_.eh
00004c40 T __Z14quatFromMatrixPA4_d
00023c54 S __Z14quatFromMatrixPA4_d.eh
000039d0 T __Z17adjoint_transposePA4_dS0_
00023b88 S __Z17adjoint_transposePA4_dS0_.eh
00005ed0 T __Z3Qt_dddd
00023cec S __Z3Qt_dddd.eh
00003990 T __Z4vdotPdS_
00023b6c S __Z4vdotPdS_.eh
00005db0 T __Z6Qt_Mul12ofQuaternionS_
00023cd0 S __Z6Qt_Mul12ofQuaternionS_.eh
00003930 T __Z6vcrossPdS_S_
00023b50 S __Z6vcrossPdS_S_.eh
00005d40 T __Z7Qt_Conj12ofQuaternion
00023cb4 S __Z7Qt_Conj12ofQuaternion.eh
00005f30 T __Z7snuggle12ofQuaternionPS_
00023d08 S __Z7snuggle12ofQuaternionPS_.eh
00004bb0 T __Z8Qt_Scale12ofQuaterniond
00023c38 S __Z8Qt_Scale12ofQuaterniond.eh
00003df0 T __Z8do_rank1PA4_dS0_
00023bf8 S __Z8do_rank1PA4_dS0_.eh
000044e0 T __Z8do_rank2PA4_dS0_S0_
00023c18 S __Z8do_rank2PA4_dS0_S0_.eh
000033a0 T __Z8mat_multPA4_dS0_S0_
00023ac4 S __Z8mat_multPA4_dS0_S0_.eh
00003530 T __Z8mat_normPA4_di
00023ae0 S __Z8mat_normPA4_di.eh
00003650 T __Z8norm_infPA4_d
00023afc S __Z8norm_infPA4_d.eh
000036f0 T __Z8norm_onePA4_d
00023b18 S __Z8norm_onePA4_d.eh
00024718 b __ZL5q0001
00024728 b __ZL5q1000
000246f8 b __ZL5qmpmm
000246d8 b __ZL5qppmm
00024708 b __ZL5qpppm
000246e8 b __ZL5qpppp
000246b8 b __ZL5qxtoz
000246c8 b __ZL5qytoz
000023e0 T __ZN11ofMatrix4x410getInverseEv
00023994 S __ZN11ofMatrix4x410getInverseEv.eh
00001880 T __ZN11ofMatrix4x412makeInvertOfERKS_
00023934 S __ZN11ofMatrix4x412makeInvertOfERKS_.eh
00000920 T __ZN11ofMatrix4x414setTranslationERK7ofVec3f
00023780 S __ZN11ofMatrix4x414setTranslationERK7ofVec3f.eh
000008f0 T __ZN11ofMatrix4x414setTranslationEfff
00023764 S __ZN11ofMatrix4x414setTranslationEfff.eh
00002530 T __ZN11ofMatrix4x415makeOrthoMatrixEdddddd
000239b4 S __ZN11ofMatrix4x415makeOrthoMatrixEdddddd.eh
000009d0 T __ZN11ofMatrix4x415makeScaleMatrixERK7ofVec3f
000237b8 S __ZN11ofMatrix4x415makeScaleMatrixERK7ofVec3f.eh
00000a60 T __ZN11ofMatrix4x415makeScaleMatrixEfff
000237d4 S __ZN11ofMatrix4x415makeScaleMatrixEfff.eh
00002ed0 T __ZN11ofMatrix4x416makeLookAtMatrixERK7ofVec3fS2_S2_
00023a84 S __ZN11ofMatrix4x416makeLookAtMatrixERK7ofVec3fS2_S2_.eh
000027b0 T __ZN11ofMatrix4x417makeFrustumMatrixEdddddd
000239f0 S __ZN11ofMatrix4x417makeFrustumMatrixEdddddd.eh
000015d0 T __ZN11ofMatrix4x417makeOrthoNormalOfERKS_
00023918 S __ZN11ofMatrix4x417makeOrthoNormalOfERKS_.eh
00000950 T __ZN11ofMatrix4x418makeIdentityMatrixEv
0002379c S __ZN11ofMatrix4x418makeIdentityMatrixEv.eh
00000e50 T __ZN11ofMatrix4x418makeRotationMatrixERK12ofQuaternion
00023888 S __ZN11ofMatrix4x418makeRotationMatrixERK12ofQuaternion.eh
00000bf0 T __ZN11ofMatrix4x418makeRotationMatrixERK7ofVec3fS2_
00023828 S __ZN11ofMatrix4x418makeRotationMatrixERK7ofVec3fS2_.eh
00000cb0 T __ZN11ofMatrix4x418makeRotationMatrixEfRK7ofVec3f
00023848 S __ZN11ofMatrix4x418makeRotationMatrixEfRK7ofVec3f.eh
00000ed0 T __ZN11ofMatrix4x418makeRotationMatrixEfRK7ofVec3ffS2_fS2_
000238a4 S __ZN11ofMatrix4x418makeRotationMatrixEfRK7ofVec3ffS2_fS2_.eh
00000d70 T __ZN11ofMatrix4x418makeRotationMatrixEffff
00023868 S __ZN11ofMatrix4x418makeRotationMatrixEffff.eh
00002c80 T __ZN11ofMatrix4x420makeLookAtViewMatrixERK7ofVec3fS2_S2_
00023a68 S __ZN11ofMatrix4x420makeLookAtViewMatrixERK7ofVec3fS2_S2_.eh
00002a40 T __ZN11ofMatrix4x421makePerspectiveMatrixEdddd
00023a2c S __ZN11ofMatrix4x421makePerspectiveMatrixEdddd.eh
00000ae0 T __ZN11ofMatrix4x421makeTranslationMatrixERK7ofVec3f
000237f0 S __ZN11ofMatrix4x421makeTranslationMatrixERK7ofVec3f.eh
00000b70 T __ZN11ofMatrix4x421makeTranslationMatrixEfff
0002380c S __ZN11ofMatrix4x421makeTranslationMatrixEfff.eh
00000fb0 T __ZN11ofMatrix4x424makeFromMultiplicationOfERKS_S1_
000238c4 S __ZN11ofMatrix4x424makeFromMultiplicationOfERKS_S1_.eh
00000240 T __ZN11ofMatrix4x43setEffffffffffffffff
000236e8 S __ZN11ofMatrix4x43setEffffffffffffffff.eh
000014a0 T __ZN11ofMatrix4x47preMultERKS_
000238fc S __ZN11ofMatrix4x47preMultERKS_.eh
00001380 T __ZN11ofMatrix4x48postMultERKS_
000238e0 S __ZN11ofMatrix4x48postMultERKS_.eh
000002f0 T __ZN11ofMatrix4x49setRotateERK12ofQuaternion
00023704 S __ZN11ofMatrix4x49setRotateERK12ofQuaternion.eh
00000000 T __ZN11ofMatrix4x4C1Effffffffffffffff
000236b0 S __ZN11ofMatrix4x4C1Effffffffffffffff.eh
00000120 T __ZN11ofMatrix4x4C2Effffffffffffffff
000236cc S __ZN11ofMatrix4x4C2Effffffffffffffff.eh
         U __ZN12ofQuaternion10makeRotateERK7ofVec3fS2_
         U __ZN12ofQuaternion10makeRotateEfRK7ofVec3f
         U __ZN12ofQuaternion10makeRotateEfRK7ofVec3ffS2_fS2_
         U __ZN12ofQuaternion10makeRotateEffff
         U __ZN7ofVec4fC1ERK7ofVec3f
000028c0 T __ZNK11ofMatrix4x410getFrustumERdS0_S0_S0_S0_S0_
00023a0c S __ZNK11ofMatrix4x410getFrustumERdS0_S0_S0_S0_S0_.eh
00002b70 T __ZNK11ofMatrix4x414getPerspectiveERdS0_S0_S0_
00023a48 S __ZNK11ofMatrix4x414getPerspectiveERdS0_S0_S0_.eh
00002640 T __ZNK11ofMatrix4x48getOrthoERdS0_S0_S0_S0_S0_
000239d0 S __ZNK11ofMatrix4x48getOrthoERdS0_S0_S0_S0_S0_.eh
000070e0 T __ZNK11ofMatrix4x49decomposeER7ofVec3fR12ofQuaternionS1_S3_
00023d48 S __ZNK11ofMatrix4x49decomposeER7ofVec3fR12ofQuaternionS1_S3_.eh
000030a0 T __ZNK11ofMatrix4x49getLookAtER7ofVec3fS1_S1_f
00023aa0 S __ZNK11ofMatrix4x49getLookAtER7ofVec3fS1_S1_f.eh
000004f0 T __ZNK11ofMatrix4x49getRotateEv
00023740 S __ZNK11ofMatrix4x49getRotateEv.eh
         U __ZNSt8ios_base4InitC1Ev
         U __ZNSt8ios_base4InitD1Ev
000246b4 b __ZStL8__ioinit
0002368f s __ZZ11spectDecompPA4_dS0_E3nxt
00023300 s __ZZNK11ofMatrix4x49getRotateEvE3nxt
         U ___cxa_atexit
         U ___dso_handle
         U ___gxx_personality_v0
         U _atan
         U _sqrt
         U _tan

../../../libs/openFrameworksCompiled/lib/osx/openFrameworks.a(ofQuaternion.o):
00015918 s EH_frame0
00015670 s __GLOBAL__I_a
00015a80 s __GLOBAL__I_a.eh
         U __Z10ofDegToRadf
         U __Z10ofRadToDegf
         U __ZN11ofMatrix4x418makeRotationMatrixERK12ofQuaternion
00000740 T __ZN12ofQuaternion10makeRotateERK7ofVec3fS2_
000159c4 S __ZN12ofQuaternion10makeRotateERK7ofVec3fS2_.eh
00000160 T __ZN12ofQuaternion10makeRotateEfRK7ofVec3f
00015988 S __ZN12ofQuaternion10makeRotateEfRK7ofVec3f.eh
00000280 T __ZN12ofQuaternion10makeRotateEfRK7ofVec3ffS2_fS2_
000159a8 S __ZN12ofQuaternion10makeRotateEfRK7ofVec3ffS2_fS2_.eh
00000060 T __ZN12ofQuaternion10makeRotateEffff
00015968 S __ZN12ofQuaternion10makeRotateEffff.eh
00000a60 T __ZN12ofQuaternion19makeRotate_originalERK7ofVec3fS2_
000159e0 S __ZN12ofQuaternion19makeRotate_originalERK7ofVec3fS2_.eh
00000000 T __ZN12ofQuaternion3setERK11ofMatrix4x4
00015930 S __ZN12ofQuaternion3setERK11ofMatrix4x4.eh
00000fb0 T __ZN12ofQuaternion5slerpEfRKS_S1_
00015a40 S __ZN12ofQuaternion5slerpEfRKS_S1_.eh
         U __ZNK11ofMatrix4x49getRotateEv
00000040 T __ZNK12ofQuaternion3getER11ofMatrix4x4
0001594c S __ZNK12ofQuaternion3getER11ofMatrix4x4.eh
000011c0 T __ZNK12ofQuaternion8getEulerEv
00015a60 S __ZNK12ofQuaternion8getEulerEv.eh
00000de0 T __ZNK12ofQuaternion9getRotateERfR7ofVec3f
00015a00 S __ZNK12ofQuaternion9getRotateERfR7ofVec3f.eh
00000ed0 T __ZNK12ofQuaternion9getRotateERfS0_S0_S0_
00015a20 S __ZNK12ofQuaternion9getRotateERfS0_S0_S0_.eh
         U __ZNSt8ios_base4InitC1Ev
         U __ZNSt8ios_base4InitD1Ev
00015aa0 b __ZStL8__ioinit
         U ___cxa_atexit
         U ___dso_handle
         U _acos
         U _acosf
         U _asinf
         U _atan2f
         U _cosf
         U _sin
         U _sinf

../../../libs/openFrameworksCompiled/lib/osx/openFrameworks.a(ofVec2f.o):
00009338 s EH_frame0
000092c0 s __GLOBAL__I_a
000093c0 s __GLOBAL__I_a.eh
00000000 T __ZN7ofVec2fC1ERK7ofVec3f
00009350 S __ZN7ofVec2fC1ERK7ofVec3f.eh
00000040 T __ZN7ofVec2fC1ERK7ofVec4f
00009388 S __ZN7ofVec2fC1ERK7ofVec4f.eh
00000020 T __ZN7ofVec2fC2ERK7ofVec3f
0000936c S __ZN7ofVec2fC2ERK7ofVec3f.eh
00000060 T __ZN7ofVec2fC2ERK7ofVec4f
000093a4 S __ZN7ofVec2fC2ERK7ofVec4f.eh
         U __ZNSt8ios_base4InitC1Ev
         U __ZNSt8ios_base4InitD1Ev
000093e0 b __ZStL8__ioinit
         U ___cxa_atexit
         U ___dso_handle

../../../libs/openFrameworksCompiled/lib/osx/openFrameworks.a(ofVec4f.o):
00009378 s EH_frame0
00009300 s __GLOBAL__I_a
00009400 s __GLOBAL__I_a.eh
00000060 T __ZN7ofVec4fC1ERK7ofVec2f
000093c8 S __ZN7ofVec4fC1ERK7ofVec2f.eh
00000000 T __ZN7ofVec4fC1ERK7ofVec3f
00009390 S __ZN7ofVec4fC1ERK7ofVec3f.eh
00000090 T __ZN7ofVec4fC2ERK7ofVec2f
000093e4 S __ZN7ofVec4fC2ERK7ofVec2f.eh
00000030 T __ZN7ofVec4fC2ERK7ofVec3f
000093ac S __ZN7ofVec4fC2ERK7ofVec3f.eh
         U __ZNSt8ios_base4InitC1Ev
         U __ZNSt8ios_base4InitD1Ev
00009420 b __ZStL8__ioinit
         U ___cxa_atexit
         U ___dso_handle

../../../libs/openFrameworksCompiled/lib/osx/openFrameworks.a(ofBaseTypes.o):
00008d74 s EH_frame0
000085c0 s __GLOBAL__I_a
00009224 s __GLOBAL__I_a.eh
00008570 S __ZN11ofBaseVideoD0Ev
000091b4 S __ZN11ofBaseVideoD0Ev.eh
00008560 S __ZN11ofBaseVideoD1Ev
00009198 S __ZN11ofBaseVideoD1Ev.eh
00000710 T __ZN17ofBaseVideoPlayer10firstFrameEv
00009128 S __ZN17ofBaseVideoPlayer10firstFrameEv.eh
000085b0 S __ZN17ofBaseVideoPlayer10getTextureEv
00009208 S __ZN17ofBaseVideoPlayer10getTextureEv.eh
000003a0 T __ZN17ofBaseVideoPlayer11getDurationEv
00008ff4 S __ZN17ofBaseVideoPlayer11getDurationEv.eh
00000300 T __ZN17ofBaseVideoPlayer11getPositionEv
00008fbc S __ZN17ofBaseVideoPlayer11getPositionEv.eh
00000490 T __ZN17ofBaseVideoPlayer11setPositionEf
00009048 S __ZN17ofBaseVideoPlayer11setPositionEf.eh
000006c0 T __ZN17ofBaseVideoPlayer12getLoopStateEv
0000910c S __ZN17ofBaseVideoPlayer12getLoopStateEv.eh
00000530 T __ZN17ofBaseVideoPlayer12setLoopStateE10ofLoopType
00009080 S __ZN17ofBaseVideoPlayer12setLoopStateE10ofLoopType.eh
000007b0 T __ZN17ofBaseVideoPlayer13previousFrameEv
00009160 S __ZN17ofBaseVideoPlayer13previousFrameEv.eh
000003f0 T __ZN17ofBaseVideoPlayer14getIsMovieDoneEv
00009010 S __ZN17ofBaseVideoPlayer14getIsMovieDoneEv.eh
00000800 T __ZN17ofBaseVideoPlayer14setPixelFormatE13ofPixelFormat
0000917c S __ZN17ofBaseVideoPlayer14setPixelFormatE13ofPixelFormat.eh
00000620 T __ZN17ofBaseVideoPlayer15getCurrentFrameEv
000090d4 S __ZN17ofBaseVideoPlayer15getCurrentFrameEv.eh
00000670 T __ZN17ofBaseVideoPlayer17getTotalNumFramesEv
000090f0 S __ZN17ofBaseVideoPlayer17getTotalNumFramesEv.eh
00000350 T __ZN17ofBaseVideoPlayer8getSpeedEv
00008fd8 S __ZN17ofBaseVideoPlayer8getSpeedEv.eh
000005d0 T __ZN17ofBaseVideoPlayer8setFrameEi
000090b8 S __ZN17ofBaseVideoPlayer8setFrameEi.eh
00000580 T __ZN17ofBaseVideoPlayer8setSpeedEf
0000909c S __ZN17ofBaseVideoPlayer8setSpeedEf.eh
00000760 T __ZN17ofBaseVideoPlayer9nextFrameEv
00009144 S __ZN17ofBaseVideoPlayer9nextFrameEv.eh
00000440 T __ZN17ofBaseVideoPlayer9setPausedEb
0000902c S __ZN17ofBaseVideoPlayer9setPausedEb.eh
000004e0 T __ZN17ofBaseVideoPlayer9setVolumeEi
00009064 S __ZN17ofBaseVideoPlayer9setVolumeEi.eh
00000270 T __ZN17ofBaseVideoPlayerD0Ev
00008ef8 S __ZN17ofBaseVideoPlayerD0Ev.eh
00000280 T __ZN17ofBaseVideoPlayerD1Ev
00008f14 S __ZN17ofBaseVideoPlayerD1Ev.eh
000002d0 T __ZN17ofBaseVideoPlayerD2Ev
00008f68 S __ZN17ofBaseVideoPlayerD2Ev.eh
00000090 T __ZN18ofBaseVideoGrabber10setVerboseEb
00008e50 S __ZN18ofBaseVideoGrabber10setVerboseEb.eh
000000e0 T __ZN18ofBaseVideoGrabber11setDeviceIDEi
00008e6c S __ZN18ofBaseVideoGrabber11setDeviceIDEi.eh
00000180 T __ZN18ofBaseVideoGrabber13videoSettingsEv
00008ea4 S __ZN18ofBaseVideoGrabber13videoSettingsEv.eh
00000220 T __ZN18ofBaseVideoGrabber14getPixelFormatEv
00008edc S __ZN18ofBaseVideoGrabber14getPixelFormatEv.eh
000001d0 T __ZN18ofBaseVideoGrabber14setPixelFormatE13ofPixelFormat
00008ec0 S __ZN18ofBaseVideoGrabber14setPixelFormatE13ofPixelFormat.eh
00000130 T __ZN18ofBaseVideoGrabber19setDesiredFrameRateEi
00008e88 S __ZN18ofBaseVideoGrabber19setDesiredFrameRateEi.eh
00000000 T __ZN18ofBaseVideoGrabberD0Ev
00008d8c S __ZN18ofBaseVideoGrabberD0Ev.eh
00000010 T __ZN18ofBaseVideoGrabberD1Ev
00008da8 S __ZN18ofBaseVideoGrabberD1Ev.eh
00000060 T __ZN18ofBaseVideoGrabberD2Ev
00008dfc S __ZN18ofBaseVideoGrabberD2Ev.eh
         U __ZN5ofLogC1E10ofLogLevelPKcz
         U __ZN5ofLogD1Ev
         U __ZNSt8ios_base4InitC1Ev
         U __ZNSt8ios_base4InitD1Ev
00009244 b __ZStL8__ioinit
00008840 S __ZTC17ofBaseVideoPlayer0_11ofBaseVideo
000086f0 S __ZTC18ofBaseVideoGrabber0_11ofBaseVideo
00008d40 S __ZTI11ofBaseVideo
00008d38 S __ZTI13ofBaseUpdates
00008d28 S __ZTI16ofBaseHasPixels_IhE
00008820 S __ZTI17ofBaseVideoPlayer
000086d0 S __ZTI18ofBaseVideoGrabber
00008d20 S __ZTI19ofAbstractHasPixels
00008cc0 S __ZTS11ofBaseVideo
00008d06 S __ZTS13ofBaseUpdates
00008cd0 S __ZTS16ofBaseHasPixels_IhE
00008ca0 S __ZTS17ofBaseVideoPlayer
00008c80 S __ZTS18ofBaseVideoGrabber
00008cf0 S __ZTS19ofAbstractHasPixels
00008620 S __ZTT17ofBaseVideoPlayer
00008600 S __ZTT18ofBaseVideoGrabber
00008750 S __ZTV17ofBaseVideoPlayer
00008640 S __ZTV18ofBaseVideoGrabber
         U __ZTVN10__cxxabiv117__class_type_infoE
         U __ZTVN10__cxxabiv120__si_class_type_infoE
         U __ZTVN10__cxxabiv121__vmi_class_type_infoE
00008590 S __ZTv0_n12_N11ofBaseVideoD0Ev
000091ec S __ZTv0_n12_N11ofBaseVideoD0Ev.eh
00008580 S __ZTv0_n12_N11ofBaseVideoD1Ev
000091d0 S __ZTv0_n12_N11ofBaseVideoD1Ev.eh
000002b0 T __ZTv0_n12_N17ofBaseVideoPlayerD0Ev
00008f4c S __ZTv0_n12_N17ofBaseVideoPlayerD0Ev.eh
000002f0 T __ZTv0_n12_N17ofBaseVideoPlayerD1Ev
00008fa0 S __ZTv0_n12_N17ofBaseVideoPlayerD1Ev.eh
00000040 T __ZTv0_n12_N18ofBaseVideoGrabberD0Ev
00008de0 S __ZTv0_n12_N18ofBaseVideoGrabberD0Ev.eh
00000080 T __ZTv0_n12_N18ofBaseVideoGrabberD1Ev
00008e34 S __ZTv0_n12_N18ofBaseVideoGrabberD1Ev.eh
00000290 T __ZTv0_n16_N17ofBaseVideoPlayerD0Ev
00008f30 S __ZTv0_n16_N17ofBaseVideoPlayerD0Ev.eh
000002e0 T __ZTv0_n16_N17ofBaseVideoPlayerD1Ev
00008f84 S __ZTv0_n16_N17ofBaseVideoPlayerD1Ev.eh
00000020 T __ZTv0_n16_N18ofBaseVideoGrabberD0Ev
00008dc4 S __ZTv0_n16_N18ofBaseVideoGrabberD0Ev.eh
00000070 T __ZTv0_n16_N18ofBaseVideoGrabberD1Ev
00008e18 S __ZTv0_n16_N18ofBaseVideoGrabberD1Ev.eh
         U __ZdlPv
         U ___cxa_atexit
         U ___cxa_pure_virtual
         U ___dso_handle

../../../libs/openFrameworksCompiled/lib/osx/openFrameworks.a(ofColor.o):
0004d91c s EH_frame0
0004dabc s EH_frame1
0004b8a4 s GCC_except_table132
0004b864 s GCC_except_table14
0004b8c4 s GCC_except_table191
0004b8e4 s GCC_except_table250
0004b904 s GCC_except_table309
0004b924 s GCC_except_table368
0004b944 s GCC_except_table427
0004b964 s GCC_except_table485
0004b984 s GCC_except_table544
0004b884 s GCC_except_table73
0004bd10 s __GLOBAL__I_a
00051c44 s __GLOBAL__I_a.eh
         U __Unwind_Resume
         U __Z7ofClampfff
0004d170 S __ZGVN8ofColor_IcE3redE
0004d190 S __ZGVN8ofColor_IcE4blueE
0004d1a0 S __ZGVN8ofColor_IcE4cyanE
0004d150 S __ZGVN8ofColor_IcE4grayE
0004d160 S __ZGVN8ofColor_IcE5blackE
0004d180 S __ZGVN8ofColor_IcE5greenE
0004d140 S __ZGVN8ofColor_IcE5whiteE
0004d1c0 S __ZGVN8ofColor_IcE6yellowE
0004d1b0 S __ZGVN8ofColor_IcE7magentaE
0004d848 S __ZGVN8ofColor_IdE3redE
0004d898 S __ZGVN8ofColor_IdE4blueE
0004d8c0 S __ZGVN8ofColor_IdE4cyanE
0004d7f8 S __ZGVN8ofColor_IdE4grayE
0004d820 S __ZGVN8ofColor_IdE5blackE
0004d870 S __ZGVN8ofColor_IdE5greenE
0004d7d0 S __ZGVN8ofColor_IdE5whiteE
0004d910 S __ZGVN8ofColor_IdE6yellowE
0004d8e8 S __ZGVN8ofColor_IdE7magentaE
0004d730 S __ZGVN8ofColor_IfE3redE
0004d760 S __ZGVN8ofColor_IfE4blueE
0004d778 S __ZGVN8ofColor_IfE4cyanE
0004d700 S __ZGVN8ofColor_IfE4grayE
0004d718 S __ZGVN8ofColor_IfE5blackE
0004d748 S __ZGVN8ofColor_IfE5greenE
0004d6e8 S __ZGVN8ofColor_IfE5whiteE
0004d7a8 S __ZGVN8ofColor_IfE6yellowE
0004d790 S __ZGVN8ofColor_IfE7magentaE
0004d200 S __ZGVN8ofColor_IhE3redE
0004d220 S __ZGVN8ofColor_IhE4blueE
0004d230 S __ZGVN8ofColor_IhE4cyanE
0004d1e0 S __ZGVN8ofColor_IhE4grayE
0004d1f0 S __ZGVN8ofColor_IhE5blackE
0004d210 S __ZGVN8ofColor_IhE5greenE
0004d1d0 S __ZGVN8ofColor_IhE5whiteE
0004d250 S __ZGVN8ofColor_IhE6yellowE
0004d240 S __ZGVN8ofColor_IhE7magentaE
0004d3d0 S __ZGVN8ofColor_IiE3redE
0004d400 S __ZGVN8ofColor_IiE4blueE
0004d418 S __ZGVN8ofColor_IiE4cyanE
0004d3a0 S __ZGVN8ofColor_IiE4grayE
0004d3b8 S __ZGVN8ofColor_IiE5blackE
0004d3e8 S __ZGVN8ofColor_IiE5greenE
0004d388 S __ZGVN8ofColor_IiE5whiteE
0004d448 S __ZGVN8ofColor_IiE6yellowE
0004d430 S __ZGVN8ofColor_IiE7magentaE
0004d4a8 S __ZGVN8ofColor_IjE3redE
0004d4d8 S __ZGVN8ofColor_IjE4blueE
0004d4f0 S __ZGVN8ofColor_IjE4cyanE
0004d478 S __ZGVN8ofColor_IjE4grayE
0004d490 S __ZGVN8ofColor_IjE5blackE
0004d4c0 S __ZGVN8ofColor_IjE5greenE
0004d460 S __ZGVN8ofColor_IjE5whiteE
0004d520 S __ZGVN8ofColor_IjE6yellowE
0004d508 S __ZGVN8ofColor_IjE7magentaE
0004d580 S __ZGVN8ofColor_IlE3redE
0004d5b0 S __ZGVN8ofColor_IlE4blueE
0004d5c8 S __ZGVN8ofColor_IlE4cyanE
0004d550 S __ZGVN8ofColor_IlE4grayE
0004d568 S __ZGVN8ofColor_IlE5blackE
0004d598 S __ZGVN8ofColor_IlE5greenE
0004d538 S __ZGVN8ofColor_IlE5whiteE
0004d5f8 S __ZGVN8ofColor_IlE6yellowE
0004d5e0 S __ZGVN8ofColor_IlE7magentaE
0004d658 S __ZGVN8ofColor_ImE3redE
0004d688 S __ZGVN8ofColor_ImE4blueE
0004d6a0 S __ZGVN8ofColor_ImE4cyanE
0004d628 S __ZGVN8ofColor_ImE4grayE
0004d640 S __ZGVN8ofColor_ImE5blackE
0004d670 S __ZGVN8ofColor_ImE5greenE
0004d610 S __ZGVN8ofColor_ImE5whiteE
0004d6d0 S __ZGVN8ofColor_ImE6yellowE
0004d6b8 S __ZGVN8ofColor_ImE7magentaE
0004d290 S __ZGVN8ofColor_IsE3redE
0004d2b0 S __ZGVN8ofColor_IsE4blueE
0004d2c0 S __ZGVN8ofColor_IsE4cyanE
0004d270 S __ZGVN8ofColor_IsE4grayE
0004d280 S __ZGVN8ofColor_IsE5blackE
0004d2a0 S __ZGVN8ofColor_IsE5greenE
0004d260 S __ZGVN8ofColor_IsE5whiteE
0004d2e0 S __ZGVN8ofColor_IsE6yellowE
0004d2d0 S __ZGVN8ofColor_IsE7magentaE
0004d320 S __ZGVN8ofColor_ItE3redE
0004d340 S __ZGVN8ofColor_ItE4blueE
0004d350 S __ZGVN8ofColor_ItE4cyanE
0004d300 S __ZGVN8ofColor_ItE4grayE
0004d310 S __ZGVN8ofColor_ItE5blackE
0004d330 S __ZGVN8ofColor_ItE5greenE
0004d2f0 S __ZGVN8ofColor_ItE5whiteE
0004d370 S __ZGVN8ofColor_ItE6yellowE
0004d360 S __ZGVN8ofColor_ItE7magentaE
00038f80 S __ZN8ofColor_IcE13setBrightnessEf
0004dd80 S __ZN8ofColor_IcE13setBrightnessEf.eh
00038e80 S __ZN8ofColor_IcE13setSaturationEf
0004dd60 S __ZN8ofColor_IcE13setSaturationEf.eh
0004d168 S __ZN8ofColor_IcE3redE
000386a0 S __ZN8ofColor_IcE3setERKS0_
0004db8c S __ZN8ofColor_IcE3setERKS0_.eh
00038680 S __ZN8ofColor_IcE3setEff
0004db70 S __ZN8ofColor_IcE3setEff.eh
00038650 S __ZN8ofColor_IcE3setEffff
0004db54 S __ZN8ofColor_IcE3setEffff.eh
0004d188 S __ZN8ofColor_IcE4blueE
0004d198 S __ZN8ofColor_IcE4cyanE
0004d148 S __ZN8ofColor_IcE4grayE
00038860 S __ZN8ofColor_IcE4lerpERKS0_f
0004dc34 S __ZN8ofColor_IcE4lerpERKS0_f.eh
0004d158 S __ZN8ofColor_IcE5blackE
000386f0 S __ZN8ofColor_IcE5clampEv
0004dbc4 S __ZN8ofColor_IcE5clampEv.eh
0004d178 S __ZN8ofColor_IcE5greenE
00038230 S __ZN8ofColor_IcE5limitEv
0004d988 S __ZN8ofColor_IcE5limitEv.eh
0004d138 S __ZN8ofColor_IcE5whiteE
00038750 S __ZN8ofColor_IcE6invertEv
0004dbe0 S __ZN8ofColor_IcE6invertEv.eh
00038630 S __ZN8ofColor_IcE6setHexEif
0004db38 S __ZN8ofColor_IcE6setHexEif.eh
00038430 S __ZN8ofColor_IcE6setHsbEffff
0004dafc S __ZN8ofColor_IcE6setHsbEffff.eh
00038df0 S __ZN8ofColor_IcE6setHueEf
0004dd44 S __ZN8ofColor_IcE6setHueEf.eh
0004d1b8 S __ZN8ofColor_IcE6yellowE
00038600 S __ZN8ofColor_IcE7fromHexEif
0004db1c S __ZN8ofColor_IcE7fromHexEif.eh
000383d0 S __ZN8ofColor_IcE7fromHsbEffff
0004dadc S __ZN8ofColor_IcE7fromHsbEffff.eh
0004d1a8 S __ZN8ofColor_IcE7magentaE
000387b0 S __ZN8ofColor_IcE9normalizeEv
0004dbfc S __ZN8ofColor_IcE9normalizeEv.eh
000382d0 S __ZN8ofColor_IcEC1ERKS0_
0004da14 S __ZN8ofColor_IcEC1ERKS0_.eh
00038330 S __ZN8ofColor_IcEC1ERKS0_f
0004da4c S __ZN8ofColor_IcEC1ERKS0_f.eh
00038390 S __ZN8ofColor_IcEC1Eff
0004da84 S __ZN8ofColor_IcEC1Eff.eh
00038270 S __ZN8ofColor_IcEC1Effff
0004d9dc S __ZN8ofColor_IcEC1Effff.eh
00038210 S __ZN8ofColor_IcEC1Ev
0004d950 S __ZN8ofColor_IcEC1Ev.eh
00038300 S __ZN8ofColor_IcEC2ERKS0_
0004da30 S __ZN8ofColor_IcEC2ERKS0_.eh
00038360 S __ZN8ofColor_IcEC2ERKS0_f
0004da68 S __ZN8ofColor_IcEC2ERKS0_f.eh
000383b0 S __ZN8ofColor_IcEC2Eff
0004daa0 S __ZN8ofColor_IcEC2Eff.eh
000382a0 S __ZN8ofColor_IcEC2Effff
0004d9f8 S __ZN8ofColor_IcEC2Effff.eh
00038220 S __ZN8ofColor_IcEC2Ev
0004d96c S __ZN8ofColor_IcEC2Ev.eh
00038250 S __ZN8ofColor_IcED1Ev
0004d9a4 S __ZN8ofColor_IcED1Ev.eh
00038260 S __ZN8ofColor_IcED2Ev
0004d9c0 S __ZN8ofColor_IcED2Ev.eh
00039080 S __ZN8ofColor_IcEaSERKS0_
0004dda0 S __ZN8ofColor_IcEaSERKS0_.eh
000390b0 S __ZN8ofColor_IcEaSERKf
0004ddbc S __ZN8ofColor_IcEaSERKf.eh
00039940 S __ZN8ofColor_IcEdVERKS0_
0004dfc8 S __ZN8ofColor_IcEdVERKS0_.eh
000399d0 S __ZN8ofColor_IcEdVERKf
0004dfe8 S __ZN8ofColor_IcEdVERKf.eh
000390e0 S __ZN8ofColor_IcEeqERKS0_
0004ddd8 S __ZN8ofColor_IcEeqERKS0_.eh
00039ac0 S __ZN8ofColor_IcEixEi
0004e024 S __ZN8ofColor_IcEixEi.eh
00039480 S __ZN8ofColor_IcEmIERKS0_
0004ded0 S __ZN8ofColor_IcEmIERKS0_.eh
00039500 S __ZN8ofColor_IcEmIERKf
0004def0 S __ZN8ofColor_IcEmIERKf.eh
000396f0 S __ZN8ofColor_IcEmLERKS0_
0004df50 S __ZN8ofColor_IcEmLERKS0_.eh
00039770 S __ZN8ofColor_IcEmLERKf
0004df6c S __ZN8ofColor_IcEmLERKf.eh
00039110 S __ZN8ofColor_IcEneERKS0_
0004ddf4 S __ZN8ofColor_IcEneERKS0_.eh
00039250 S __ZN8ofColor_IcEpLERKS0_
0004de50 S __ZN8ofColor_IcEpLERKS0_.eh
000392d0 S __ZN8ofColor_IcEpLERKf
0004de70 S __ZN8ofColor_IcEpLERKf.eh
0004a550 S __ZN8ofColor_IdE13setBrightnessEf
000519c0 S __ZN8ofColor_IdE13setBrightnessEf.eh
0004a4e0 S __ZN8ofColor_IdE13setSaturationEf
000519a4 S __ZN8ofColor_IdE13setSaturationEf.eh
0004d828 S __ZN8ofColor_IdE3redE
00049d80 S __ZN8ofColor_IdE3setERKS0_
000517e4 S __ZN8ofColor_IdE3setERKS0_.eh
00049d50 S __ZN8ofColor_IdE3setEff
000517c8 S __ZN8ofColor_IdE3setEff.eh
00049d10 S __ZN8ofColor_IdE3setEffff
000517ac S __ZN8ofColor_IdE3setEffff.eh
0004d878 S __ZN8ofColor_IdE4blueE
0004d8a0 S __ZN8ofColor_IdE4cyanE
0004d7d8 S __ZN8ofColor_IdE4grayE
00049fa0 S __ZN8ofColor_IdE4lerpERKS0_f
0005188c S __ZN8ofColor_IdE4lerpERKS0_f.eh
0004d800 S __ZN8ofColor_IdE5blackE
00049df0 S __ZN8ofColor_IdE5clampEv
0005181c S __ZN8ofColor_IdE5clampEv.eh
0004d850 S __ZN8ofColor_IdE5greenE
00049780 S __ZN8ofColor_IdE5limitEv
00051600 S __ZN8ofColor_IdE5limitEv.eh
0004d7b0 S __ZN8ofColor_IdE5whiteE
00049e90 S __ZN8ofColor_IdE6invertEv
00051838 S __ZN8ofColor_IdE6invertEv.eh
00049cc0 S __ZN8ofColor_IdE6setHexEif
00051790 S __ZN8ofColor_IdE6setHexEif.eh
00049a30 S __ZN8ofColor_IdE6setHsbEffff
00051754 S __ZN8ofColor_IdE6setHsbEffff.eh
0004a470 S __ZN8ofColor_IdE6setHueEf
00051988 S __ZN8ofColor_IdE6setHueEf.eh
0004d8f0 S __ZN8ofColor_IdE6yellowE
00049c70 S __ZN8ofColor_IdE7fromHexEif
00051774 S __ZN8ofColor_IdE7fromHexEif.eh
000499a0 S __ZN8ofColor_IdE7fromHsbEffff
00051734 S __ZN8ofColor_IdE7fromHsbEffff.eh
0004d8c8 S __ZN8ofColor_IdE7magentaE
00049ed0 S __ZN8ofColor_IdE9normalizeEv
00051854 S __ZN8ofColor_IdE9normalizeEv.eh
00049840 S __ZN8ofColor_IdEC1ERKS0_
0005168c S __ZN8ofColor_IdEC1ERKS0_.eh
000498c0 S __ZN8ofColor_IdEC1ERKS0_f
000516c4 S __ZN8ofColor_IdEC1ERKS0_f.eh
00049940 S __ZN8ofColor_IdEC1Eff
000516fc S __ZN8ofColor_IdEC1Eff.eh
000497c0 S __ZN8ofColor_IdEC1Effff
00051654 S __ZN8ofColor_IdEC1Effff.eh
00049700 S __ZN8ofColor_IdEC1Ev
000515c8 S __ZN8ofColor_IdEC1Ev.eh
00049880 S __ZN8ofColor_IdEC2ERKS0_
000516a8 S __ZN8ofColor_IdEC2ERKS0_.eh
00049900 S __ZN8ofColor_IdEC2ERKS0_f
000516e0 S __ZN8ofColor_IdEC2ERKS0_f.eh
00049970 S __ZN8ofColor_IdEC2Eff
00051718 S __ZN8ofColor_IdEC2Eff.eh
00049800 S __ZN8ofColor_IdEC2Effff
00051670 S __ZN8ofColor_IdEC2Effff.eh
00049740 S __ZN8ofColor_IdEC2Ev
000515e4 S __ZN8ofColor_IdEC2Ev.eh
000497a0 S __ZN8ofColor_IdED1Ev
0005161c S __ZN8ofColor_IdED1Ev.eh
000497b0 S __ZN8ofColor_IdED2Ev
00051638 S __ZN8ofColor_IdED2Ev.eh
0004a5c0 S __ZN8ofColor_IdEaSERKS0_
000519dc S __ZN8ofColor_IdEaSERKS0_.eh
0004a600 S __ZN8ofColor_IdEaSERKf
000519f8 S __ZN8ofColor_IdEaSERKf.eh
0004b0c0 S __ZN8ofColor_IdEdVERKS0_
00051bd4 S __ZN8ofColor_IdEdVERKS0_.eh
0004b140 S __ZN8ofColor_IdEdVERKf
00051bf0 S __ZN8ofColor_IdEdVERKf.eh
0004a640 S __ZN8ofColor_IdEeqERKS0_
00051a14 S __ZN8ofColor_IdEeqERKS0_.eh
0004b260 S __ZN8ofColor_IdEixEi
00051c28 S __ZN8ofColor_IdEixEi.eh
0004ab50 S __ZN8ofColor_IdEmIERKS0_
00051af4 S __ZN8ofColor_IdEmIERKS0_.eh
0004ac10 S __ZN8ofColor_IdEmIERKf
00051b10 S __ZN8ofColor_IdEmIERKf.eh
0004ae50 S __ZN8ofColor_IdEmLERKS0_
00051b64 S __ZN8ofColor_IdEmLERKS0_.eh
0004aea0 S __ZN8ofColor_IdEmLERKf
00051b80 S __ZN8ofColor_IdEmLERKf.eh
0004a680 S __ZN8ofColor_IdEneERKS0_
00051a30 S __ZN8ofColor_IdEneERKS0_.eh
0004a840 S __ZN8ofColor_IdEpLERKS0_
00051a84 S __ZN8ofColor_IdEpLERKS0_.eh
0004a900 S __ZN8ofColor_IdEpLERKf
00051aa0 S __ZN8ofColor_IdEpLERKf.eh
00048b90 S __ZN8ofColor_IfE13setBrightnessEf
00051344 S __ZN8ofColor_IfE13setBrightnessEf.eh
00048aa0 S __ZN8ofColor_IfE13setSaturationEf
00051328 S __ZN8ofColor_IfE13setSaturationEf.eh
0004d720 S __ZN8ofColor_IfE3redE
00048380 S __ZN8ofColor_IfE3setERKS0_
00051168 S __ZN8ofColor_IfE3setERKS0_.eh
00048350 S __ZN8ofColor_IfE3setEff
0005114c S __ZN8ofColor_IfE3setEff.eh
00048320 S __ZN8ofColor_IfE3setEffff
00051130 S __ZN8ofColor_IfE3setEffff.eh
0004d750 S __ZN8ofColor_IfE4blueE
0004d768 S __ZN8ofColor_IfE4cyanE
0004d6f0 S __ZN8ofColor_IfE4grayE
00048540 S __ZN8ofColor_IfE4lerpERKS0_f
00051210 S __ZN8ofColor_IfE4lerpERKS0_f.eh
0004d708 S __ZN8ofColor_IfE5blackE
000483f0 S __ZN8ofColor_IfE5clampEv
000511a0 S __ZN8ofColor_IfE5clampEv.eh
0004d738 S __ZN8ofColor_IfE5greenE
00000000 T __ZN8ofColor_IfE5limitEv
0004d934 S __ZN8ofColor_IfE5limitEv.eh
0004d6d8 S __ZN8ofColor_IfE5whiteE
00048480 S __ZN8ofColor_IfE6invertEv
000511bc S __ZN8ofColor_IfE6invertEv.eh
000482e0 S __ZN8ofColor_IfE6setHexEif
00051114 S __ZN8ofColor_IfE6setHexEif.eh
000480a0 S __ZN8ofColor_IfE6setHsbEffff
000510d8 S __ZN8ofColor_IfE6setHsbEffff.eh
00048a20 S __ZN8ofColor_IfE6setHueEf
0005130c S __ZN8ofColor_IfE6setHueEf.eh
0004d798 S __ZN8ofColor_IfE6yellowE
000482a0 S __ZN8ofColor_IfE7fromHexEif
000510f8 S __ZN8ofColor_IfE7fromHexEif.eh
00048030 S __ZN8ofColor_IfE7fromHsbEffff
000510b8 S __ZN8ofColor_IfE7fromHsbEffff.eh
0004d780 S __ZN8ofColor_IfE7magentaE
000484c0 S __ZN8ofColor_IfE9normalizeEv
000511d8 S __ZN8ofColor_IfE9normalizeEv.eh
00047ed0 S __ZN8ofColor_IfEC1ERKS0_
00051010 S __ZN8ofColor_IfEC1ERKS0_.eh
00047f50 S __ZN8ofColor_IfEC1ERKS0_f
00051048 S __ZN8ofColor_IfEC1ERKS0_f.eh
00047fd0 S __ZN8ofColor_IfEC1Eff
00051080 S __ZN8ofColor_IfEC1Eff.eh
00047e70 S __ZN8ofColor_IfEC1Effff
00050fd8 S __ZN8ofColor_IfEC1Effff.eh
00047df0 S __ZN8ofColor_IfEC1Ev
00050f68 S __ZN8ofColor_IfEC1Ev.eh
00047f10 S __ZN8ofColor_IfEC2ERKS0_
0005102c S __ZN8ofColor_IfEC2ERKS0_.eh
00047f90 S __ZN8ofColor_IfEC2ERKS0_f
00051064 S __ZN8ofColor_IfEC2ERKS0_f.eh
00048000 S __ZN8ofColor_IfEC2Eff
0005109c S __ZN8ofColor_IfEC2Eff.eh
00047ea0 S __ZN8ofColor_IfEC2Effff
00050ff4 S __ZN8ofColor_IfEC2Effff.eh
00047e20 S __ZN8ofColor_IfEC2Ev
00050f84 S __ZN8ofColor_IfEC2Ev.eh
00047e50 S __ZN8ofColor_IfED1Ev
00050fa0 S __ZN8ofColor_IfED1Ev.eh
00047e60 S __ZN8ofColor_IfED2Ev
00050fbc S __ZN8ofColor_IfED2Ev.eh
00048c90 S __ZN8ofColor_IfEaSERKS0_
00051360 S __ZN8ofColor_IfEaSERKS0_.eh
00048cd0 S __ZN8ofColor_IfEaSERKf
0005137c S __ZN8ofColor_IfEaSERKf.eh
00049560 S __ZN8ofColor_IfEdVERKS0_
00051558 S __ZN8ofColor_IfEdVERKS0_.eh
000495c0 S __ZN8ofColor_IfEdVERKf
00051574 S __ZN8ofColor_IfEdVERKf.eh
00048d00 S __ZN8ofColor_IfEeqERKS0_
00051398 S __ZN8ofColor_IfEeqERKS0_.eh
000496c0 S __ZN8ofColor_IfEixEi
000515ac S __ZN8ofColor_IfEixEi.eh
00049120 S __ZN8ofColor_IfEmIERKS0_
00051478 S __ZN8ofColor_IfEmIERKS0_.eh
000491d0 S __ZN8ofColor_IfEmIERKf
00051494 S __ZN8ofColor_IfEmIERKf.eh
00049380 S __ZN8ofColor_IfEmLERKS0_
000514e8 S __ZN8ofColor_IfEmLERKS0_.eh
000493c0 S __ZN8ofColor_IfEmLERKf
00051504 S __ZN8ofColor_IfEmLERKf.eh
00048d40 S __ZN8ofColor_IfEneERKS0_
000513b4 S __ZN8ofColor_IfEneERKS0_.eh
00048ea0 S __ZN8ofColor_IfEpLERKS0_
00051408 S __ZN8ofColor_IfEpLERKS0_.eh
00048f50 S __ZN8ofColor_IfEpLERKf
00051424 S __ZN8ofColor_IfEpLERKf.eh
0003a7e0 S __ZN8ofColor_IhE13setBrightnessEf
0004e44c S __ZN8ofColor_IhE13setBrightnessEf.eh
0003a770 S __ZN8ofColor_IhE13setSaturationEf
0004e430 S __ZN8ofColor_IhE13setSaturationEf.eh
0004d1f8 S __ZN8ofColor_IhE3redE
00039f90 S __ZN8ofColor_IhE3setERKS0_
0004e25c S __ZN8ofColor_IhE3setERKS0_.eh
00039f70 S __ZN8ofColor_IhE3setEff
0004e240 S __ZN8ofColor_IhE3setEff.eh
00039f40 S __ZN8ofColor_IhE3setEffff
0004e224 S __ZN8ofColor_IhE3setEffff.eh
0004d218 S __ZN8ofColor_IhE4blueE
0004d228 S __ZN8ofColor_IhE4cyanE
0004d1d8 S __ZN8ofColor_IhE4grayE
0003a1c0 S __ZN8ofColor_IhE4lerpERKS0_f
0004e304 S __ZN8ofColor_IhE4lerpERKS0_f.eh
0004d1e8 S __ZN8ofColor_IhE5blackE
00039fe0 S __ZN8ofColor_IhE5clampEv
0004e294 S __ZN8ofColor_IhE5clampEv.eh
0004d208 S __ZN8ofColor_IhE5greenE
00039b20 S __ZN8ofColor_IhE5limitEv
0004e078 S __ZN8ofColor_IhE5limitEv.eh
0004d1c8 S __ZN8ofColor_IhE5whiteE
0003a090 S __ZN8ofColor_IhE6invertEv
0004e2b0 S __ZN8ofColor_IhE6invertEv.eh
00039f20 S __ZN8ofColor_IhE6setHexEif
0004e208 S __ZN8ofColor_IhE6setHexEif.eh
00039d20 S __ZN8ofColor_IhE6setHsbEffff
0004e1cc S __ZN8ofColor_IhE6setHsbEffff.eh
0003a700 S __ZN8ofColor_IhE6setHueEf
0004e414 S __ZN8ofColor_IhE6setHueEf.eh
0004d248 S __ZN8ofColor_IhE6yellowE
00039ef0 S __ZN8ofColor_IhE7fromHexEif
0004e1ec S __ZN8ofColor_IhE7fromHexEif.eh
00039cc0 S __ZN8ofColor_IhE7fromHsbEffff
0004e1ac S __ZN8ofColor_IhE7fromHsbEffff.eh
0004d238 S __ZN8ofColor_IhE7magentaE
0003a0f0 S __ZN8ofColor_IhE9normalizeEv
0004e2cc S __ZN8ofColor_IhE9normalizeEv.eh
00039bc0 S __ZN8ofColor_IhEC1ERKS0_
0004e104 S __ZN8ofColor_IhEC1ERKS0_.eh
00039c20 S __ZN8ofColor_IhEC1ERKS0_f
0004e13c S __ZN8ofColor_IhEC1ERKS0_f.eh
00039c80 S __ZN8ofColor_IhEC1Eff
0004e174 S __ZN8ofColor_IhEC1Eff.eh
00039b60 S __ZN8ofColor_IhEC1Effff
0004e0cc S __ZN8ofColor_IhEC1Effff.eh
00039b00 S __ZN8ofColor_IhEC1Ev
0004e040 S __ZN8ofColor_IhEC1Ev.eh
00039bf0 S __ZN8ofColor_IhEC2ERKS0_
0004e120 S __ZN8ofColor_IhEC2ERKS0_.eh
00039c50 S __ZN8ofColor_IhEC2ERKS0_f
0004e158 S __ZN8ofColor_IhEC2ERKS0_f.eh
00039ca0 S __ZN8ofColor_IhEC2Eff
0004e190 S __ZN8ofColor_IhEC2Eff.eh
00039b90 S __ZN8ofColor_IhEC2Effff
0004e0e8 S __ZN8ofColor_IhEC2Effff.eh
00039b10 S __ZN8ofColor_IhEC2Ev
0004e05c S __ZN8ofColor_IhEC2Ev.eh
00039b40 S __ZN8ofColor_IhED1Ev
0004e094 S __ZN8ofColor_IhED1Ev.eh
00039b50 S __ZN8ofColor_IhED2Ev
0004e0b0 S __ZN8ofColor_IhED2Ev.eh
0003a850 S __ZN8ofColor_IhEaSERKS0_
0004e468 S __ZN8ofColor_IhEaSERKS0_.eh
0003a880 S __ZN8ofColor_IhEaSERKf
0004e484 S __ZN8ofColor_IhEaSERKf.eh
0003b400 S __ZN8ofColor_IhEdVERKS0_
0004e68c S __ZN8ofColor_IhEdVERKS0_.eh
0003b4a0 S __ZN8ofColor_IhEdVERKf
0004e6ac S __ZN8ofColor_IhEdVERKf.eh
0003a8b0 S __ZN8ofColor_IhEeqERKS0_
0004e4a0 S __ZN8ofColor_IhEeqERKS0_.eh
0003b5f0 S __ZN8ofColor_IhEixEi
0004e6e8 S __ZN8ofColor_IhEixEi.eh
0003ae10 S __ZN8ofColor_IhEmIERKS0_
0004e598 S __ZN8ofColor_IhEmIERKS0_.eh
0003aee0 S __ZN8ofColor_IhEmIERKf
0004e5b8 S __ZN8ofColor_IhEmIERKf.eh
0003b160 S __ZN8ofColor_IhEmLERKS0_
0004e618 S __ZN8ofColor_IhEmLERKS0_.eh
0003b1e0 S __ZN8ofColor_IhEmLERKf
0004e634 S __ZN8ofColor_IhEmLERKf.eh
0003a8e0 S __ZN8ofColor_IhEneERKS0_
0004e4bc S __ZN8ofColor_IhEneERKS0_.eh
0003aab0 S __ZN8ofColor_IhEpLERKS0_
0004e518 S __ZN8ofColor_IhEpLERKS0_.eh
0003ab80 S __ZN8ofColor_IhEpLERKf
0004e538 S __ZN8ofColor_IhEpLERKf.eh
0003fc20 S __ZN8ofColor_IiE13setBrightnessEf
0004f898 S __ZN8ofColor_IiE13setBrightnessEf.eh
0003fb20 S __ZN8ofColor_IiE13setSaturationEf
0004f878 S __ZN8ofColor_IiE13setSaturationEf.eh
0004d3c0 S __ZN8ofColor_IiE3redE
0003f310 S __ZN8ofColor_IiE3setERKS0_
0004f6a4 S __ZN8ofColor_IiE3setERKS0_.eh
0003f2f0 S __ZN8ofColor_IiE3setEff
0004f688 S __ZN8ofColor_IiE3setEff.eh
0003f2c0 S __ZN8ofColor_IiE3setEffff
0004f66c S __ZN8ofColor_IiE3setEffff.eh
0004d3f0 S __ZN8ofColor_IiE4blueE
0004d408 S __ZN8ofColor_IiE4cyanE
0004d390 S __ZN8ofColor_IiE4grayE
0003f510 S __ZN8ofColor_IiE4lerpERKS0_f
0004f74c S __ZN8ofColor_IiE4lerpERKS0_f.eh
0004d3a8 S __ZN8ofColor_IiE5blackE
0003f370 S __ZN8ofColor_IiE5clampEv
0004f6dc S __ZN8ofColor_IiE5clampEv.eh
0004d3d8 S __ZN8ofColor_IiE5greenE
0003ee70 S __ZN8ofColor_IiE5limitEv
0004f4c0 S __ZN8ofColor_IiE5limitEv.eh
0004d378 S __ZN8ofColor_IiE5whiteE
0003f420 S __ZN8ofColor_IiE6invertEv
0004f6f8 S __ZN8ofColor_IiE6invertEv.eh
0003f290 S __ZN8ofColor_IiE6setHexEif
0004f650 S __ZN8ofColor_IiE6setHexEif.eh
0003f080 S __ZN8ofColor_IiE6setHsbEffff
0004f614 S __ZN8ofColor_IiE6setHsbEffff.eh
0003fa90 S __ZN8ofColor_IiE6setHueEf
0004f85c S __ZN8ofColor_IiE6setHueEf.eh
0004d438 S __ZN8ofColor_IiE6yellowE
0003f260 S __ZN8ofColor_IiE7fromHexEif
0004f634 S __ZN8ofColor_IiE7fromHexEif.eh
0003f010 S __ZN8ofColor_IiE7fromHsbEffff
0004f5f4 S __ZN8ofColor_IiE7fromHsbEffff.eh
0004d420 S __ZN8ofColor_IiE7magentaE
0003f470 S __ZN8ofColor_IiE9normalizeEv
0004f714 S __ZN8ofColor_IiE9normalizeEv.eh
0003ef10 S __ZN8ofColor_IiEC1ERKS0_
0004f54c S __ZN8ofColor_IiEC1ERKS0_.eh
0003ef70 S __ZN8ofColor_IiEC1ERKS0_f
0004f584 S __ZN8ofColor_IiEC1ERKS0_f.eh
0003efd0 S __ZN8ofColor_IiEC1Eff
0004f5bc S __ZN8ofColor_IiEC1Eff.eh
0003eeb0 S __ZN8ofColor_IiEC1Effff
0004f514 S __ZN8ofColor_IiEC1Effff.eh
0003ee10 S __ZN8ofColor_IiEC1Ev
0004f488 S __ZN8ofColor_IiEC1Ev.eh
0003ef40 S __ZN8ofColor_IiEC2ERKS0_
0004f568 S __ZN8ofColor_IiEC2ERKS0_.eh
0003efa0 S __ZN8ofColor_IiEC2ERKS0_f
0004f5a0 S __ZN8ofColor_IiEC2ERKS0_f.eh
0003eff0 S __ZN8ofColor_IiEC2Eff
0004f5d8 S __ZN8ofColor_IiEC2Eff.eh
0003eee0 S __ZN8ofColor_IiEC2Effff
0004f530 S __ZN8ofColor_IiEC2Effff.eh
0003ee40 S __ZN8ofColor_IiEC2Ev
0004f4a4 S __ZN8ofColor_IiEC2Ev.eh
0003ee90 S __ZN8ofColor_IiED1Ev
0004f4dc S __ZN8ofColor_IiED1Ev.eh
0003eea0 S __ZN8ofColor_IiED2Ev
0004f4f8 S __ZN8ofColor_IiED2Ev.eh
0003fd20 S __ZN8ofColor_IiEaSERKS0_
0004f8b8 S __ZN8ofColor_IiEaSERKS0_.eh
0003fd50 S __ZN8ofColor_IiEaSERKf
0004f8d4 S __ZN8ofColor_IiEaSERKf.eh
00040800 S __ZN8ofColor_IiEdVERKS0_
0004fad0 S __ZN8ofColor_IiEdVERKS0_.eh
00040890 S __ZN8ofColor_IiEdVERKf
0004faec S __ZN8ofColor_IiEdVERKf.eh
0003fd80 S __ZN8ofColor_IiEeqERKS0_
0004f8f0 S __ZN8ofColor_IiEeqERKS0_.eh
000409d0 S __ZN8ofColor_IiEixEi
0004fb28 S __ZN8ofColor_IiEixEi.eh
00040290 S __ZN8ofColor_IiEmIERKS0_
0004f9e0 S __ZN8ofColor_IiEmIERKS0_.eh
00040360 S __ZN8ofColor_IiEmIERKf
0004fa00 S __ZN8ofColor_IiEmIERKf.eh
000405a0 S __ZN8ofColor_IiEmLERKS0_
0004fa5c S __ZN8ofColor_IiEmLERKS0_.eh
00040610 S __ZN8ofColor_IiEmLERKf
0004fa78 S __ZN8ofColor_IiEmLERKf.eh
0003fdb0 S __ZN8ofColor_IiEneERKS0_
0004f90c S __ZN8ofColor_IiEneERKS0_.eh
0003ff60 S __ZN8ofColor_IiEpLERKS0_
0004f964 S __ZN8ofColor_IiEpLERKS0_.eh
00040030 S __ZN8ofColor_IiEpLERKf
0004f984 S __ZN8ofColor_IiEpLERKf.eh
00041f00 S __ZN8ofColor_IjE13setBrightnessEf
0004ff54 S __ZN8ofColor_IjE13setBrightnessEf.eh
00041da0 S __ZN8ofColor_IjE13setSaturationEf
0004ff34 S __ZN8ofColor_IjE13setSaturationEf.eh
0004d498 S __ZN8ofColor_IjE3redE
00041100 S __ZN8ofColor_IjE3setERKS0_
0004fd60 S __ZN8ofColor_IjE3setERKS0_.eh
000410c0 S __ZN8ofColor_IjE3setEff
0004fd44 S __ZN8ofColor_IjE3setEff.eh
00041050 S __ZN8ofColor_IjE3setEffff
0004fd28 S __ZN8ofColor_IjE3setEffff.eh
0004d4c8 S __ZN8ofColor_IjE4blueE
0004d4e0 S __ZN8ofColor_IjE4cyanE
0004d468 S __ZN8ofColor_IjE4grayE
00041440 S __ZN8ofColor_IjE4lerpERKS0_f
0004fe08 S __ZN8ofColor_IjE4lerpERKS0_f.eh
0004d480 S __ZN8ofColor_IjE5blackE
00041160 S __ZN8ofColor_IjE5clampEv
0004fd98 S __ZN8ofColor_IjE5clampEv.eh
0004d4b0 S __ZN8ofColor_IjE5greenE
00040a70 S __ZN8ofColor_IjE5limitEv
0004fb7c S __ZN8ofColor_IjE5limitEv.eh
0004d450 S __ZN8ofColor_IjE5whiteE
00041280 S __ZN8ofColor_IjE6invertEv
0004fdb4 S __ZN8ofColor_IjE6invertEv.eh
00041010 S __ZN8ofColor_IjE6setHexEif
0004fd0c S __ZN8ofColor_IjE6setHexEif.eh
00040d60 S __ZN8ofColor_IjE6setHsbEffff
0004fcd0 S __ZN8ofColor_IjE6setHsbEffff.eh
00041ce0 S __ZN8ofColor_IjE6setHueEf
0004ff18 S __ZN8ofColor_IjE6setHueEf.eh
0004d510 S __ZN8ofColor_IjE6yellowE
00040fd0 S __ZN8ofColor_IjE7fromHexEif
0004fcf0 S __ZN8ofColor_IjE7fromHexEif.eh
00040cf0 S __ZN8ofColor_IjE7fromHsbEffff
0004fcb0 S __ZN8ofColor_IjE7fromHsbEffff.eh
0004d4f8 S __ZN8ofColor_IjE7magentaE
00041320 S __ZN8ofColor_IjE9normalizeEv
0004fdd0 S __ZN8ofColor_IjE9normalizeEv.eh
00040b90 S __ZN8ofColor_IjEC1ERKS0_
0004fc08 S __ZN8ofColor_IjEC1ERKS0_.eh
00040bf0 S __ZN8ofColor_IjEC1ERKS0_f
0004fc40 S __ZN8ofColor_IjEC1ERKS0_f.eh
00040c70 S __ZN8ofColor_IjEC1Eff
0004fc78 S __ZN8ofColor_IjEC1Eff.eh
00040ab0 S __ZN8ofColor_IjEC1Effff
0004fbd0 S __ZN8ofColor_IjEC1Effff.eh
00040a10 S __ZN8ofColor_IjEC1Ev
0004fb44 S __ZN8ofColor_IjEC1Ev.eh
00040bc0 S __ZN8ofColor_IjEC2ERKS0_
0004fc24 S __ZN8ofColor_IjEC2ERKS0_.eh
00040c30 S __ZN8ofColor_IjEC2ERKS0_f
0004fc5c S __ZN8ofColor_IjEC2ERKS0_f.eh
00040cb0 S __ZN8ofColor_IjEC2Eff
0004fc94 S __ZN8ofColor_IjEC2Eff.eh
00040b20 S __ZN8ofColor_IjEC2Effff
0004fbec S __ZN8ofColor_IjEC2Effff.eh
00040a40 S __ZN8ofColor_IjEC2Ev
0004fb60 S __ZN8ofColor_IjEC2Ev.eh
00040a90 S __ZN8ofColor_IjED1Ev
0004fb98 S __ZN8ofColor_IjED1Ev.eh
00040aa0 S __ZN8ofColor_IjED2Ev
0004fbb4 S __ZN8ofColor_IjED2Ev.eh
00042070 S __ZN8ofColor_IjEaSERKS0_
0004ff74 S __ZN8ofColor_IjEaSERKS0_.eh
000420a0 S __ZN8ofColor_IjEaSERKf
0004ff90 S __ZN8ofColor_IjEaSERKf.eh
000432e0 S __ZN8ofColor_IjEdVERKS0_
00050184 S __ZN8ofColor_IjEdVERKS0_.eh
000433e0 S __ZN8ofColor_IjEdVERKf
000501a0 S __ZN8ofColor_IjEdVERKf.eh
00042100 S __ZN8ofColor_IjEeqERKS0_
0004ffac S __ZN8ofColor_IjEeqERKS0_.eh
000435c0 S __ZN8ofColor_IjEixEi
000501dc S __ZN8ofColor_IjEixEi.eh
00042970 S __ZN8ofColor_IjEmIERKS0_
0005009c S __ZN8ofColor_IjEmIERKS0_.eh
00042ab0 S __ZN8ofColor_IjEmIERKf
000500bc S __ZN8ofColor_IjEmIERKf.eh
00042eb0 S __ZN8ofColor_IjEmLERKS0_
00050114 S __ZN8ofColor_IjEmLERKS0_.eh
00042f90 S __ZN8ofColor_IjEmLERKf
00050130 S __ZN8ofColor_IjEmLERKf.eh
00042130 S __ZN8ofColor_IjEneERKS0_
0004ffc8 S __ZN8ofColor_IjEneERKS0_.eh
00042400 S __ZN8ofColor_IjEpLERKS0_
00050020 S __ZN8ofColor_IjEpLERKS0_.eh
00042540 S __ZN8ofColor_IjEpLERKf
00050040 S __ZN8ofColor_IjEpLERKf.eh
00044410 S __ZN8ofColor_IlE13setBrightnessEf
00050608 S __ZN8ofColor_IlE13setBrightnessEf.eh
00044310 S __ZN8ofColor_IlE13setSaturationEf
000505e8 S __ZN8ofColor_IlE13setSaturationEf.eh
0004d570 S __ZN8ofColor_IlE3redE
00043b00 S __ZN8ofColor_IlE3setERKS0_
00050414 S __ZN8ofColor_IlE3setERKS0_.eh
00043ae0 S __ZN8ofColor_IlE3setEff
000503f8 S __ZN8ofColor_IlE3setEff.eh
00043ab0 S __ZN8ofColor_IlE3setEffff
000503dc S __ZN8ofColor_IlE3setEffff.eh
0004d5a0 S __ZN8ofColor_IlE4blueE
0004d5b8 S __ZN8ofColor_IlE4cyanE
0004d540 S __ZN8ofColor_IlE4grayE
00043d00 S __ZN8ofColor_IlE4lerpERKS0_f
000504bc S __ZN8ofColor_IlE4lerpERKS0_f.eh
0004d558 S __ZN8ofColor_IlE5blackE
00043b60 S __ZN8ofColor_IlE5clampEv
0005044c S __ZN8ofColor_IlE5clampEv.eh
0004d588 S __ZN8ofColor_IlE5greenE
00043660 S __ZN8ofColor_IlE5limitEv
00050230 S __ZN8ofColor_IlE5limitEv.eh
0004d528 S __ZN8ofColor_IlE5whiteE
00043c10 S __ZN8ofColor_IlE6invertEv
00050468 S __ZN8ofColor_IlE6invertEv.eh
00043a80 S __ZN8ofColor_IlE6setHexEif
000503c0 S __ZN8ofColor_IlE6setHexEif.eh
00043870 S __ZN8ofColor_IlE6setHsbEffff
00050384 S __ZN8ofColor_IlE6setHsbEffff.eh
00044280 S __ZN8ofColor_IlE6setHueEf
000505cc S __ZN8ofColor_IlE6setHueEf.eh
0004d5e8 S __ZN8ofColor_IlE6yellowE
00043a50 S __ZN8ofColor_IlE7fromHexEif
000503a4 S __ZN8ofColor_IlE7fromHexEif.eh
00043800 S __ZN8ofColor_IlE7fromHsbEffff
00050364 S __ZN8ofColor_IlE7fromHsbEffff.eh
0004d5d0 S __ZN8ofColor_IlE7magentaE
00043c60 S __ZN8ofColor_IlE9normalizeEv
00050484 S __ZN8ofColor_IlE9normalizeEv.eh
00043700 S __ZN8ofColor_IlEC1ERKS0_
000502bc S __ZN8ofColor_IlEC1ERKS0_.eh
00043760 S __ZN8ofColor_IlEC1ERKS0_f
000502f4 S __ZN8ofColor_IlEC1ERKS0_f.eh
000437c0 S __ZN8ofColor_IlEC1Eff
0005032c S __ZN8ofColor_IlEC1Eff.eh
000436a0 S __ZN8ofColor_IlEC1Effff
00050284 S __ZN8ofColor_IlEC1Effff.eh
00043600 S __ZN8ofColor_IlEC1Ev
000501f8 S __ZN8ofColor_IlEC1Ev.eh
00043730 S __ZN8ofColor_IlEC2ERKS0_
000502d8 S __ZN8ofColor_IlEC2ERKS0_.eh
00043790 S __ZN8ofColor_IlEC2ERKS0_f
00050310 S __ZN8ofColor_IlEC2ERKS0_f.eh
000437e0 S __ZN8ofColor_IlEC2Eff
00050348 S __ZN8ofColor_IlEC2Eff.eh
000436d0 S __ZN8ofColor_IlEC2Effff
000502a0 S __ZN8ofColor_IlEC2Effff.eh
00043630 S __ZN8ofColor_IlEC2Ev
00050214 S __ZN8ofColor_IlEC2Ev.eh
00043680 S __ZN8ofColor_IlED1Ev
0005024c S __ZN8ofColor_IlED1Ev.eh
00043690 S __ZN8ofColor_IlED2Ev
00050268 S __ZN8ofColor_IlED2Ev.eh
00044510 S __ZN8ofColor_IlEaSERKS0_
00050628 S __ZN8ofColor_IlEaSERKS0_.eh
00044540 S __ZN8ofColor_IlEaSERKf
00050644 S __ZN8ofColor_IlEaSERKf.eh
00044ff0 S __ZN8ofColor_IlEdVERKS0_
00050840 S __ZN8ofColor_IlEdVERKS0_.eh
00045080 S __ZN8ofColor_IlEdVERKf
0005085c S __ZN8ofColor_IlEdVERKf.eh
00044570 S __ZN8ofColor_IlEeqERKS0_
00050660 S __ZN8ofColor_IlEeqERKS0_.eh
000451c0 S __ZN8ofColor_IlEixEi
00050898 S __ZN8ofColor_IlEixEi.eh
00044a80 S __ZN8ofColor_IlEmIERKS0_
00050750 S __ZN8ofColor_IlEmIERKS0_.eh
00044b50 S __ZN8ofColor_IlEmIERKf
00050770 S __ZN8ofColor_IlEmIERKf.eh
00044d90 S __ZN8ofColor_IlEmLERKS0_
000507cc S __ZN8ofColor_IlEmLERKS0_.eh
00044e00 S __ZN8ofColor_IlEmLERKf
000507e8 S __ZN8ofColor_IlEmLERKf.eh
000445a0 S __ZN8ofColor_IlEneERKS0_
0005067c S __ZN8ofColor_IlEneERKS0_.eh
00044750 S __ZN8ofColor_IlEpLERKS0_
000506d4 S __ZN8ofColor_IlEpLERKS0_.eh
00044820 S __ZN8ofColor_IlEpLERKf
000506f4 S __ZN8ofColor_IlEpLERKf.eh
000466f0 S __ZN8ofColor_ImE13setBrightnessEf
00050cc4 S __ZN8ofColor_ImE13setBrightnessEf.eh
00046590 S __ZN8ofColor_ImE13setSaturationEf
00050ca4 S __ZN8ofColor_ImE13setSaturationEf.eh
0004d648 S __ZN8ofColor_ImE3redE
000458f0 S __ZN8ofColor_ImE3setERKS0_
00050ad0 S __ZN8ofColor_ImE3setERKS0_.eh
000458b0 S __ZN8ofColor_ImE3setEff
00050ab4 S __ZN8ofColor_ImE3setEff.eh
00045840 S __ZN8ofColor_ImE3setEffff
00050a98 S __ZN8ofColor_ImE3setEffff.eh
0004d678 S __ZN8ofColor_ImE4blueE
0004d690 S __ZN8ofColor_ImE4cyanE
0004d618 S __ZN8ofColor_ImE4grayE
00045c30 S __ZN8ofColor_ImE4lerpERKS0_f
00050b78 S __ZN8ofColor_ImE4lerpERKS0_f.eh
0004d630 S __ZN8ofColor_ImE5blackE
00045950 S __ZN8ofColor_ImE5clampEv
00050b08 S __ZN8ofColor_ImE5clampEv.eh
0004d660 S __ZN8ofColor_ImE5greenE
00045260 S __ZN8ofColor_ImE5limitEv
000508ec S __ZN8ofColor_ImE5limitEv.eh
0004d600 S __ZN8ofColor_ImE5whiteE
00045a70 S __ZN8ofColor_ImE6invertEv
00050b24 S __ZN8ofColor_ImE6invertEv.eh
00045800 S __ZN8ofColor_ImE6setHexEif
00050a7c S __ZN8ofColor_ImE6setHexEif.eh
00045550 S __ZN8ofColor_ImE6setHsbEffff
00050a40 S __ZN8ofColor_ImE6setHsbEffff.eh
000464d0 S __ZN8ofColor_ImE6setHueEf
00050c88 S __ZN8ofColor_ImE6setHueEf.eh
0004d6c0 S __ZN8ofColor_ImE6yellowE
000457c0 S __ZN8ofColor_ImE7fromHexEif
00050a60 S __ZN8ofColor_ImE7fromHexEif.eh
000454e0 S __ZN8ofColor_ImE7fromHsbEffff
00050a20 S __ZN8ofColor_ImE7fromHsbEffff.eh
0004d6a8 S __ZN8ofColor_ImE7magentaE
00045b10 S __ZN8ofColor_ImE9normalizeEv
00050b40 S __ZN8ofColor_ImE9normalizeEv.eh
00045380 S __ZN8ofColor_ImEC1ERKS0_
00050978 S __ZN8ofColor_ImEC1ERKS0_.eh
000453e0 S __ZN8ofColor_ImEC1ERKS0_f
000509b0 S __ZN8ofColor_ImEC1ERKS0_f.eh
00045460 S __ZN8ofColor_ImEC1Eff
000509e8 S __ZN8ofColor_ImEC1Eff.eh
000452a0 S __ZN8ofColor_ImEC1Effff
00050940 S __ZN8ofColor_ImEC1Effff.eh
00045200 S __ZN8ofColor_ImEC1Ev
000508b4 S __ZN8ofColor_ImEC1Ev.eh
000453b0 S __ZN8ofColor_ImEC2ERKS0_
00050994 S __ZN8ofColor_ImEC2ERKS0_.eh
00045420 S __ZN8ofColor_ImEC2ERKS0_f
000509cc S __ZN8ofColor_ImEC2ERKS0_f.eh
000454a0 S __ZN8ofColor_ImEC2Eff
00050a04 S __ZN8ofColor_ImEC2Eff.eh
00045310 S __ZN8ofColor_ImEC2Effff
0005095c S __ZN8ofColor_ImEC2Effff.eh
00045230 S __ZN8ofColor_ImEC2Ev
000508d0 S __ZN8ofColor_ImEC2Ev.eh
00045280 S __ZN8ofColor_ImED1Ev
00050908 S __ZN8ofColor_ImED1Ev.eh
00045290 S __ZN8ofColor_ImED2Ev
00050924 S __ZN8ofColor_ImED2Ev.eh
00046860 S __ZN8ofColor_ImEaSERKS0_
00050ce4 S __ZN8ofColor_ImEaSERKS0_.eh
00046890 S __ZN8ofColor_ImEaSERKf
00050d00 S __ZN8ofColor_ImEaSERKf.eh
00047ad0 S __ZN8ofColor_ImEdVERKS0_
00050ef4 S __ZN8ofColor_ImEdVERKS0_.eh
00047bd0 S __ZN8ofColor_ImEdVERKf
00050f10 S __ZN8ofColor_ImEdVERKf.eh
000468f0 S __ZN8ofColor_ImEeqERKS0_
00050d1c S __ZN8ofColor_ImEeqERKS0_.eh
00047db0 S __ZN8ofColor_ImEixEi
00050f4c S __ZN8ofColor_ImEixEi.eh
00047160 S __ZN8ofColor_ImEmIERKS0_
00050e0c S __ZN8ofColor_ImEmIERKS0_.eh
000472a0 S __ZN8ofColor_ImEmIERKf
00050e2c S __ZN8ofColor_ImEmIERKf.eh
000476a0 S __ZN8ofColor_ImEmLERKS0_
00050e84 S __ZN8ofColor_ImEmLERKS0_.eh
00047780 S __ZN8ofColor_ImEmLERKf
00050ea0 S __ZN8ofColor_ImEmLERKf.eh
00046920 S __ZN8ofColor_ImEneERKS0_
00050d38 S __ZN8ofColor_ImEneERKS0_.eh
00046bf0 S __ZN8ofColor_ImEpLERKS0_
00050d90 S __ZN8ofColor_ImEpLERKS0_.eh
00046d30 S __ZN8ofColor_ImEpLERKf
00050db0 S __ZN8ofColor_ImEpLERKf.eh
0003c490 S __ZN8ofColor_IsE13setBrightnessEf
0004eb14 S __ZN8ofColor_IsE13setBrightnessEf.eh
0003c390 S __ZN8ofColor_IsE13setSaturationEf
0004eaf4 S __ZN8ofColor_IsE13setSaturationEf.eh
0004d288 S __ZN8ofColor_IsE3redE
0003bb50 S __ZN8ofColor_IsE3setERKS0_
0004e920 S __ZN8ofColor_IsE3setERKS0_.eh
0003bb20 S __ZN8ofColor_IsE3setEff
0004e904 S __ZN8ofColor_IsE3setEff.eh
0003baf0 S __ZN8ofColor_IsE3setEffff
0004e8e8 S __ZN8ofColor_IsE3setEffff.eh
0004d2a8 S __ZN8ofColor_IsE4blueE
0004d2b8 S __ZN8ofColor_IsE4cyanE
0004d268 S __ZN8ofColor_IsE4grayE
0003bd50 S __ZN8ofColor_IsE4lerpERKS0_f
0004e9c8 S __ZN8ofColor_IsE4lerpERKS0_f.eh
0004d278 S __ZN8ofColor_IsE5blackE
0003bbb0 S __ZN8ofColor_IsE5clampEv
0004e958 S __ZN8ofColor_IsE5clampEv.eh
0004d298 S __ZN8ofColor_IsE5greenE
0003b670 S __ZN8ofColor_IsE5limitEv
0004e73c S __ZN8ofColor_IsE5limitEv.eh
0004d258 S __ZN8ofColor_IsE5whiteE
0003bc30 S __ZN8ofColor_IsE6invertEv
0004e974 S __ZN8ofColor_IsE6invertEv.eh
0003bac0 S __ZN8ofColor_IsE6setHexEif
0004e8cc S __ZN8ofColor_IsE6setHexEif.eh
0003b8a0 S __ZN8ofColor_IsE6setHsbEffff
0004e890 S __ZN8ofColor_IsE6setHsbEffff.eh
0003c300 S __ZN8ofColor_IsE6setHueEf
0004ead8 S __ZN8ofColor_IsE6setHueEf.eh
0004d2d8 S __ZN8ofColor_IsE6yellowE
0003ba90 S __ZN8ofColor_IsE7fromHexEif
0004e8b0 S __ZN8ofColor_IsE7fromHexEif.eh
0003b830 S __ZN8ofColor_IsE7fromHsbEffff
0004e870 S __ZN8ofColor_IsE7fromHsbEffff.eh
0004d2c8 S __ZN8ofColor_IsE7magentaE
0003bc90 S __ZN8ofColor_IsE9normalizeEv
0004e990 S __ZN8ofColor_IsE9normalizeEv.eh
0003b710 S __ZN8ofColor_IsEC1ERKS0_
0004e7c8 S __ZN8ofColor_IsEC1ERKS0_.eh
0003b770 S __ZN8ofColor_IsEC1ERKS0_f
0004e800 S __ZN8ofColor_IsEC1ERKS0_f.eh
0003b7d0 S __ZN8ofColor_IsEC1Eff
0004e838 S __ZN8ofColor_IsEC1Eff.eh
0003b6b0 S __ZN8ofColor_IsEC1Effff
0004e790 S __ZN8ofColor_IsEC1Effff.eh
0003b630 S __ZN8ofColor_IsEC1Ev
0004e704 S __ZN8ofColor_IsEC1Ev.eh
0003b740 S __ZN8ofColor_IsEC2ERKS0_
0004e7e4 S __ZN8ofColor_IsEC2ERKS0_.eh
0003b7a0 S __ZN8ofColor_IsEC2ERKS0_f
0004e81c S __ZN8ofColor_IsEC2ERKS0_f.eh
0003b800 S __ZN8ofColor_IsEC2Eff
0004e854 S __ZN8ofColor_IsEC2Eff.eh
0003b6e0 S __ZN8ofColor_IsEC2Effff
0004e7ac S __ZN8ofColor_IsEC2Effff.eh
0003b650 S __ZN8ofColor_IsEC2Ev
0004e720 S __ZN8ofColor_IsEC2Ev.eh
0003b690 S __ZN8ofColor_IsED1Ev
0004e758 S __ZN8ofColor_IsED1Ev.eh
0003b6a0 S __ZN8ofColor_IsED2Ev
0004e774 S __ZN8ofColor_IsED2Ev.eh
0003c590 S __ZN8ofColor_IsEaSERKS0_
0004eb34 S __ZN8ofColor_IsEaSERKS0_.eh
0003c5c0 S __ZN8ofColor_IsEaSERKf
0004eb50 S __ZN8ofColor_IsEaSERKf.eh
0003cfa0 S __ZN8ofColor_IsEdVERKS0_
0004ed58 S __ZN8ofColor_IsEdVERKS0_.eh
0003d040 S __ZN8ofColor_IsEdVERKf
0004ed78 S __ZN8ofColor_IsEdVERKf.eh
0003c5f0 S __ZN8ofColor_IsEeqERKS0_
0004eb6c S __ZN8ofColor_IsEeqERKS0_.eh
0003d150 S __ZN8ofColor_IsEixEi
0004edb4 S __ZN8ofColor_IsEixEi.eh
0003ca70 S __ZN8ofColor_IsEmIERKS0_
0004ec64 S __ZN8ofColor_IsEmIERKS0_.eh
0003cb10 S __ZN8ofColor_IsEmIERKf
0004ec84 S __ZN8ofColor_IsEmIERKf.eh
0003cd30 S __ZN8ofColor_IsEmLERKS0_
0004ece4 S __ZN8ofColor_IsEmLERKS0_.eh
0003cdb0 S __ZN8ofColor_IsEmLERKf
0004ed00 S __ZN8ofColor_IsEmLERKf.eh
0003c630 S __ZN8ofColor_IsEneERKS0_
0004eb88 S __ZN8ofColor_IsEneERKS0_.eh
0003c7c0 S __ZN8ofColor_IsEpLERKS0_
0004ebe4 S __ZN8ofColor_IsEpLERKS0_.eh
0003c860 S __ZN8ofColor_IsEpLERKf
0004ec04 S __ZN8ofColor_IsEpLERKf.eh
0003df20 S __ZN8ofColor_ItE13setBrightnessEf
0004f1dc S __ZN8ofColor_ItE13setBrightnessEf.eh
0003deb0 S __ZN8ofColor_ItE13setSaturationEf
0004f1c0 S __ZN8ofColor_ItE13setSaturationEf.eh
0004d318 S __ZN8ofColor_ItE3redE
0003d6b0 S __ZN8ofColor_ItE3setERKS0_
0004efec S __ZN8ofColor_ItE3setERKS0_.eh
0003d680 S __ZN8ofColor_ItE3setEff
0004efd0 S __ZN8ofColor_ItE3setEff.eh
0003d650 S __ZN8ofColor_ItE3setEffff
0004efb4 S __ZN8ofColor_ItE3setEffff.eh
0004d338 S __ZN8ofColor_ItE4blueE
0004d348 S __ZN8ofColor_ItE4cyanE
0004d2f8 S __ZN8ofColor_ItE4grayE
0003d910 S __ZN8ofColor_ItE4lerpERKS0_f
0004f094 S __ZN8ofColor_ItE4lerpERKS0_f.eh
0004d308 S __ZN8ofColor_ItE5blackE
0003d710 S __ZN8ofColor_ItE5clampEv
0004f024 S __ZN8ofColor_ItE5clampEv.eh
0004d328 S __ZN8ofColor_ItE5greenE
0003d1d0 S __ZN8ofColor_ItE5limitEv
0004ee08 S __ZN8ofColor_ItE5limitEv.eh
0004d2e8 S __ZN8ofColor_ItE5whiteE
0003d7d0 S __ZN8ofColor_ItE6invertEv
0004f040 S __ZN8ofColor_ItE6invertEv.eh
0003d620 S __ZN8ofColor_ItE6setHexEif
0004ef98 S __ZN8ofColor_ItE6setHexEif.eh
0003d3f0 S __ZN8ofColor_ItE6setHsbEffff
0004ef5c S __ZN8ofColor_ItE6setHsbEffff.eh
0003de40 S __ZN8ofColor_ItE6setHueEf
0004f1a4 S __ZN8ofColor_ItE6setHueEf.eh
0004d368 S __ZN8ofColor_ItE6yellowE
0003d5e0 S __ZN8ofColor_ItE7fromHexEif
0004ef7c S __ZN8ofColor_ItE7fromHexEif.eh
0003d390 S __ZN8ofColor_ItE7fromHsbEffff
0004ef3c S __ZN8ofColor_ItE7fromHsbEffff.eh
0004d358 S __ZN8ofColor_ItE7magentaE
0003d830 S __ZN8ofColor_ItE9normalizeEv
0004f05c S __ZN8ofColor_ItE9normalizeEv.eh
0003d270 S __ZN8ofColor_ItEC1ERKS0_
0004ee94 S __ZN8ofColor_ItEC1ERKS0_.eh
0003d2d0 S __ZN8ofColor_ItEC1ERKS0_f
0004eecc S __ZN8ofColor_ItEC1ERKS0_f.eh
0003d330 S __ZN8ofColor_ItEC1Eff
0004ef04 S __ZN8ofColor_ItEC1Eff.eh
0003d210 S __ZN8ofColor_ItEC1Effff
0004ee5c S __ZN8ofColor_ItEC1Effff.eh
0003d190 S __ZN8ofColor_ItEC1Ev
0004edd0 S __ZN8ofColor_ItEC1Ev.eh
0003d2a0 S __ZN8ofColor_ItEC2ERKS0_
0004eeb0 S __ZN8ofColor_ItEC2ERKS0_.eh
0003d300 S __ZN8ofColor_ItEC2ERKS0_f
0004eee8 S __ZN8ofColor_ItEC2ERKS0_f.eh
0003d360 S __ZN8ofColor_ItEC2Eff
0004ef20 S __ZN8ofColor_ItEC2Eff.eh
0003d240 S __ZN8ofColor_ItEC2Effff
0004ee78 S __ZN8ofColor_ItEC2Effff.eh
0003d1b0 S __ZN8ofColor_ItEC2Ev
0004edec S __ZN8ofColor_ItEC2Ev.eh
0003d1f0 S __ZN8ofColor_ItED1Ev
0004ee24 S __ZN8ofColor_ItED1Ev.eh
0003d200 S __ZN8ofColor_ItED2Ev
0004ee40 S __ZN8ofColor_ItED2Ev.eh
0003df90 S __ZN8ofColor_ItEaSERKS0_
0004f1f8 S __ZN8ofColor_ItEaSERKS0_.eh
0003dfc0 S __ZN8ofColor_ItEaSERKf
0004f214 S __ZN8ofColor_ItEaSERKf.eh
0003ebe0 S __ZN8ofColor_ItEdVERKS0_
0004f414 S __ZN8ofColor_ItEdVERKS0_.eh
0003ec80 S __ZN8ofColor_ItEdVERKf
0004f430 S __ZN8ofColor_ItEdVERKf.eh
0003dff0 S __ZN8ofColor_ItEeqERKS0_
0004f230 S __ZN8ofColor_ItEeqERKS0_.eh
0003edd0 S __ZN8ofColor_ItEixEi
0004f46c S __ZN8ofColor_ItEixEi.eh
0003e5b0 S __ZN8ofColor_ItEmIERKS0_
0004f320 S __ZN8ofColor_ItEmIERKS0_.eh
0003e690 S __ZN8ofColor_ItEmIERKf
0004f340 S __ZN8ofColor_ItEmIERKf.eh
0003e920 S __ZN8ofColor_ItEmLERKS0_
0004f3a0 S __ZN8ofColor_ItEmLERKS0_.eh
0003e9a0 S __ZN8ofColor_ItEmLERKf
0004f3bc S __ZN8ofColor_ItEmLERKf.eh
0003e030 S __ZN8ofColor_ItEneERKS0_
0004f24c S __ZN8ofColor_ItEneERKS0_.eh
0003e220 S __ZN8ofColor_ItEpLERKS0_
0004f2a4 S __ZN8ofColor_ItEpLERKS0_.eh
0003e300 S __ZN8ofColor_ItEpLERKf
0004f2c4 S __ZN8ofColor_ItEpLERKf.eh
00038910 S __ZNK8ofColor_IcE10getClampedEv
0004dc50 S __ZNK8ofColor_IcE10getClampedEv.eh
00038980 S __ZNK8ofColor_IcE11getInvertedEv
0004dc70 S __ZNK8ofColor_IcE11getInvertedEv.eh
00038db0 S __ZNK8ofColor_IcE12getLightnessEv
0004dd28 S __ZNK8ofColor_IcE12getLightnessEv.eh
00038820 S __ZNK8ofColor_IcE13getBrightnessEv
0004dc18 S __ZNK8ofColor_IcE13getBrightnessEv.eh
00038a00 S __ZNK8ofColor_IcE13getNormalizedEv
0004dc90 S __ZNK8ofColor_IcE13getNormalizedEv.eh
00038d40 S __ZNK8ofColor_IcE13getSaturationEv
0004dd0c S __ZNK8ofColor_IcE13getSaturationEv.eh
000386d0 S __ZNK8ofColor_IcE6getHexEv
0004dba8 S __ZNK8ofColor_IcE6getHexEv.eh
00038c40 S __ZNK8ofColor_IcE6getHsbERfS1_S1_
0004dcec S __ZNK8ofColor_IcE6getHsbERfS1_S1_.eh
00038b70 S __ZNK8ofColor_IcE6getHueEv
0004dcd0 S __ZNK8ofColor_IcE6getHueEv.eh
00038a90 S __ZNK8ofColor_IcE9getLerpedERKS0_f
0004dcb0 S __ZNK8ofColor_IcE9getLerpedERKS0_f.eh
000397f0 S __ZNK8ofColor_IcEdvERKS0_
0004df88 S __ZNK8ofColor_IcEdvERKS0_.eh
00039890 S __ZNK8ofColor_IcEdvERKf
0004dfa8 S __ZNK8ofColor_IcEdvERKf.eh
00039a80 S __ZNK8ofColor_IcEixEi
0004e008 S __ZNK8ofColor_IcEixEi.eh
00039370 S __ZNK8ofColor_IcEmiERKS0_
0004de90 S __ZNK8ofColor_IcEmiERKS0_.eh
00039400 S __ZNK8ofColor_IcEmiERKf
0004deb0 S __ZNK8ofColor_IcEmiERKf.eh
000395a0 S __ZNK8ofColor_IcEmlERKS0_
0004df10 S __ZNK8ofColor_IcEmlERKS0_.eh
00039630 S __ZNK8ofColor_IcEmlERKf
0004df30 S __ZNK8ofColor_IcEmlERKf.eh
00039140 S __ZNK8ofColor_IcEplERKS0_
0004de10 S __ZNK8ofColor_IcEplERKS0_.eh
000391d0 S __ZNK8ofColor_IcEplERKf
0004de30 S __ZNK8ofColor_IcEplERKf.eh
0004a030 S __ZNK8ofColor_IdE10getClampedEv
000518a8 S __ZNK8ofColor_IdE10getClampedEv.eh
0004a0e0 S __ZNK8ofColor_IdE11getInvertedEv
000518c4 S __ZNK8ofColor_IdE11getInvertedEv.eh
0004a430 S __ZNK8ofColor_IdE12getLightnessEv
0005196c S __ZNK8ofColor_IdE12getLightnessEv.eh
00049f50 S __ZNK8ofColor_IdE13getBrightnessEv
00051870 S __ZNK8ofColor_IdE13getBrightnessEv.eh
0004a150 S __ZNK8ofColor_IdE13getNormalizedEv
000518e0 S __ZNK8ofColor_IdE13getNormalizedEv.eh
0004a400 S __ZNK8ofColor_IdE13getSaturationEv
00051950 S __ZNK8ofColor_IdE13getSaturationEv.eh
00049dc0 S __ZNK8ofColor_IdE6getHexEv
00051800 S __ZNK8ofColor_IdE6getHexEv.eh
0004a2d0 S __ZNK8ofColor_IdE6getHsbERfS1_S1_
00051934 S __ZNK8ofColor_IdE6getHsbERfS1_S1_.eh
0004a2a0 S __ZNK8ofColor_IdE6getHueEv
00051918 S __ZNK8ofColor_IdE6getHueEv.eh
0004a1f0 S __ZNK8ofColor_IdE9getLerpedERKS0_f
000518fc S __ZNK8ofColor_IdE9getLerpedERKS0_f.eh
0004af10 S __ZNK8ofColor_IdEdvERKS0_
00051b9c S __ZNK8ofColor_IdEdvERKS0_.eh
0004afc0 S __ZNK8ofColor_IdEdvERKf
00051bb8 S __ZNK8ofColor_IdEdvERKf.eh
0004b220 S __ZNK8ofColor_IdEixEi
00051c0c S __ZNK8ofColor_IdEixEi.eh
0004a9d0 S __ZNK8ofColor_IdEmiERKS0_
00051abc S __ZNK8ofColor_IdEmiERKS0_.eh
0004aa90 S __ZNK8ofColor_IdEmiERKf
00051ad8 S __ZNK8ofColor_IdEmiERKf.eh
0004ace0 S __ZNK8ofColor_IdEmlERKS0_
00051b2c S __ZNK8ofColor_IdEmlERKS0_.eh
0004ad60 S __ZNK8ofColor_IdEmlERKf
00051b48 S __ZNK8ofColor_IdEmlERKf.eh
0004a6c0 S __ZNK8ofColor_IdEplERKS0_
00051a4c S __ZNK8ofColor_IdEplERKS0_.eh
0004a780 S __ZNK8ofColor_IdEplERKf
00051a68 S __ZNK8ofColor_IdEplERKf.eh
000485d0 S __ZNK8ofColor_IfE10getClampedEv
0005122c S __ZNK8ofColor_IfE10getClampedEv.eh
00048680 S __ZNK8ofColor_IfE11getInvertedEv
00051248 S __ZNK8ofColor_IfE11getInvertedEv.eh
000489f0 S __ZNK8ofColor_IfE12getLightnessEv
000512f0 S __ZNK8ofColor_IfE12getLightnessEv.eh
00048510 S __ZNK8ofColor_IfE13getBrightnessEv
000511f4 S __ZNK8ofColor_IfE13getBrightnessEv.eh
000486f0 S __ZNK8ofColor_IfE13getNormalizedEv
00051264 S __ZNK8ofColor_IfE13getNormalizedEv.eh
000489a0 S __ZNK8ofColor_IfE13getSaturationEv
000512d4 S __ZNK8ofColor_IfE13getSaturationEv.eh
000483c0 S __ZNK8ofColor_IfE6getHexEv
00051184 S __ZNK8ofColor_IfE6getHexEv.eh
000488c0 S __ZNK8ofColor_IfE6getHsbERfS1_S1_
000512b8 S __ZNK8ofColor_IfE6getHsbERfS1_S1_.eh
00048800 S __ZNK8ofColor_IfE6getHueEv
0005129c S __ZNK8ofColor_IfE6getHueEv.eh
00048760 S __ZNK8ofColor_IfE9getLerpedERKS0_f
00051280 S __ZNK8ofColor_IfE9getLerpedERKS0_f.eh
00049430 S __ZNK8ofColor_IfEdvERKS0_
00051520 S __ZNK8ofColor_IfEdvERKS0_.eh
000494a0 S __ZNK8ofColor_IfEdvERKf
0005153c S __ZNK8ofColor_IfEdvERKf.eh
00049680 S __ZNK8ofColor_IfEixEi
00051590 S __ZNK8ofColor_IfEixEi.eh
00049000 S __ZNK8ofColor_IfEmiERKS0_
00051440 S __ZNK8ofColor_IfEmiERKS0_.eh
00049090 S __ZNK8ofColor_IfEmiERKf
0005145c S __ZNK8ofColor_IfEmiERKf.eh
00049280 S __ZNK8ofColor_IfEmlERKS0_
000514b0 S __ZNK8ofColor_IfEmlERKS0_.eh
000492d0 S __ZNK8ofColor_IfEmlERKf
000514cc S __ZNK8ofColor_IfEmlERKf.eh
00048d80 S __ZNK8ofColor_IfEplERKS0_
000513d0 S __ZNK8ofColor_IfEplERKS0_.eh
00048e10 S __ZNK8ofColor_IfEplERKf
000513ec S __ZNK8ofColor_IfEplERKf.eh
0003a270 S __ZNK8ofColor_IhE10getClampedEv
0004e320 S __ZNK8ofColor_IhE10getClampedEv.eh
0003a350 S __ZNK8ofColor_IhE11getInvertedEv
0004e340 S __ZNK8ofColor_IhE11getInvertedEv.eh
0003a6c0 S __ZNK8ofColor_IhE12getLightnessEv
0004e3f8 S __ZNK8ofColor_IhE12getLightnessEv.eh
0003a170 S __ZNK8ofColor_IhE13getBrightnessEv
0004e2e8 S __ZNK8ofColor_IhE13getBrightnessEv.eh
0003a3d0 S __ZNK8ofColor_IhE13getNormalizedEv
0004e360 S __ZNK8ofColor_IhE13getNormalizedEv.eh
0003a690 S __ZNK8ofColor_IhE13getSaturationEv
0004e3dc S __ZNK8ofColor_IhE13getSaturationEv.eh
00039fc0 S __ZNK8ofColor_IhE6getHexEv
0004e278 S __ZNK8ofColor_IhE6getHexEv.eh
0003a580 S __ZNK8ofColor_IhE6getHsbERfS1_S1_
0004e3bc S __ZNK8ofColor_IhE6getHsbERfS1_S1_.eh
0003a550 S __ZNK8ofColor_IhE6getHueEv
0004e3a0 S __ZNK8ofColor_IhE6getHueEv.eh
0003a470 S __ZNK8ofColor_IhE9getLerpedERKS0_f
0004e380 S __ZNK8ofColor_IhE9getLerpedERKS0_f.eh
0003b260 S __ZNK8ofColor_IhEdvERKS0_
0004e650 S __ZNK8ofColor_IhEdvERKS0_.eh
0003b300 S __ZNK8ofColor_IhEdvERKf
0004e66c S __ZNK8ofColor_IhEdvERKf.eh
0003b5b0 S __ZNK8ofColor_IhEixEi
0004e6cc S __ZNK8ofColor_IhEixEi.eh
0003ac70 S __ZNK8ofColor_IhEmiERKS0_
0004e558 S __ZNK8ofColor_IhEmiERKS0_.eh
0003ad40 S __ZNK8ofColor_IhEmiERKf
0004e578 S __ZNK8ofColor_IhEmiERKf.eh
0003afd0 S __ZNK8ofColor_IhEmlERKS0_
0004e5d8 S __ZNK8ofColor_IhEmlERKS0_.eh
0003b060 S __ZNK8ofColor_IhEmlERKf
0004e5f8 S __ZNK8ofColor_IhEmlERKf.eh
0003a910 S __ZNK8ofColor_IhEplERKS0_
0004e4d8 S __ZNK8ofColor_IhEplERKS0_.eh
0003a9e0 S __ZNK8ofColor_IhEplERKf
0004e4f8 S __ZNK8ofColor_IhEplERKf.eh
0003f5b0 S __ZNK8ofColor_IiE10getClampedEv
0004f768 S __ZNK8ofColor_IiE10getClampedEv.eh
0003f680 S __ZNK8ofColor_IiE11getInvertedEv
0004f788 S __ZNK8ofColor_IiE11getInvertedEv.eh
0003fa60 S __ZNK8ofColor_IiE12getLightnessEv
0004f840 S __ZNK8ofColor_IiE12getLightnessEv.eh
0003f4e0 S __ZNK8ofColor_IiE13getBrightnessEv
0004f730 S __ZNK8ofColor_IiE13getBrightnessEv.eh
0003f6f0 S __ZNK8ofColor_IiE13getNormalizedEv
0004f7a8 S __ZNK8ofColor_IiE13getNormalizedEv.eh
0003fa00 S __ZNK8ofColor_IiE13getSaturationEv
0004f824 S __ZNK8ofColor_IiE13getSaturationEv.eh
0003f340 S __ZNK8ofColor_IiE6getHexEv
0004f6c0 S __ZNK8ofColor_IiE6getHexEv.eh
0003f910 S __ZNK8ofColor_IiE6getHsbERfS1_S1_
0004f804 S __ZNK8ofColor_IiE6getHsbERfS1_S1_.eh
0003f840 S __ZNK8ofColor_IiE6getHueEv
0004f7e8 S __ZNK8ofColor_IiE6getHueEv.eh
0003f780 S __ZNK8ofColor_IiE9getLerpedERKS0_f
0004f7c8 S __ZNK8ofColor_IiE9getLerpedERKS0_f.eh
00040680 S __ZNK8ofColor_IiEdvERKS0_
0004fa94 S __ZNK8ofColor_IiEdvERKS0_.eh
00040710 S __ZNK8ofColor_IiEdvERKf
0004fab0 S __ZNK8ofColor_IiEdvERKf.eh
00040990 S __ZNK8ofColor_IiEixEi
0004fb0c S __ZNK8ofColor_IiEixEi.eh
00040110 S __ZNK8ofColor_IiEmiERKS0_
0004f9a4 S __ZNK8ofColor_IiEmiERKS0_.eh
000401d0 S __ZNK8ofColor_IiEmiERKf
0004f9c4 S __ZNK8ofColor_IiEmiERKf.eh
00040440 S __ZNK8ofColor_IiEmlERKS0_
0004fa20 S __ZNK8ofColor_IiEmlERKS0_.eh
000404b0 S __ZNK8ofColor_IiEmlERKf
0004fa3c S __ZNK8ofColor_IiEmlERKf.eh
0003fde0 S __ZNK8ofColor_IiEplERKS0_
0004f928 S __ZNK8ofColor_IiEplERKS0_.eh
0003fea0 S __ZNK8ofColor_IiEplERKf
0004f948 S __ZNK8ofColor_IiEplERKf.eh
00041570 S __ZNK8ofColor_IjE10getClampedEv
0004fe24 S __ZNK8ofColor_IjE10getClampedEv.eh
000416a0 S __ZNK8ofColor_IjE11getInvertedEv
0004fe44 S __ZNK8ofColor_IjE11getInvertedEv.eh
00041c90 S __ZNK8ofColor_IjE12getLightnessEv
0004fefc S __ZNK8ofColor_IjE12getLightnessEv.eh
000413e0 S __ZNK8ofColor_IjE13getBrightnessEv
0004fdec S __ZNK8ofColor_IjE13getBrightnessEv.eh
00041760 S __ZNK8ofColor_IjE13getNormalizedEv
0004fe64 S __ZNK8ofColor_IjE13getNormalizedEv.eh
00041c00 S __ZNK8ofColor_IjE13getSaturationEv
0004fee0 S __ZNK8ofColor_IjE13getSaturationEv.eh
00041130 S __ZNK8ofColor_IjE6getHexEv
0004fd7c S __ZNK8ofColor_IjE6getHexEv.eh
00041ab0 S __ZNK8ofColor_IjE6getHsbERfS1_S1_
0004fec0 S __ZNK8ofColor_IjE6getHsbERfS1_S1_.eh
00041990 S __ZNK8ofColor_IjE6getHueEv
0004fea4 S __ZNK8ofColor_IjE6getHueEv.eh
00041840 S __ZNK8ofColor_IjE9getLerpedERKS0_f
0004fe84 S __ZNK8ofColor_IjE9getLerpedERKS0_f.eh
00043050 S __ZNK8ofColor_IjEdvERKS0_
0005014c S __ZNK8ofColor_IjEdvERKS0_.eh
00043160 S __ZNK8ofColor_IjEdvERKf
00050168 S __ZNK8ofColor_IjEdvERKf.eh
00043580 S __ZNK8ofColor_IjEixEi
000501c0 S __ZNK8ofColor_IjEixEi.eh
000426d0 S __ZNK8ofColor_IjEmiERKS0_
00050060 S __ZNK8ofColor_IjEmiERKS0_.eh
00042820 S __ZNK8ofColor_IjEmiERKf
00050080 S __ZNK8ofColor_IjEmiERKf.eh
00042c40 S __ZNK8ofColor_IjEmlERKS0_
000500dc S __ZNK8ofColor_IjEmlERKS0_.eh
00042d30 S __ZNK8ofColor_IjEmlERKf
000500f8 S __ZNK8ofColor_IjEmlERKf.eh
00042160 S __ZNK8ofColor_IjEplERKS0_
0004ffe4 S __ZNK8ofColor_IjEplERKS0_.eh
000422b0 S __ZNK8ofColor_IjEplERKf
00050004 S __ZNK8ofColor_IjEplERKf.eh
00043da0 S __ZNK8ofColor_IlE10getClampedEv
000504d8 S __ZNK8ofColor_IlE10getClampedEv.eh
00043e70 S __ZNK8ofColor_IlE11getInvertedEv
000504f8 S __ZNK8ofColor_IlE11getInvertedEv.eh
00044250 S __ZNK8ofColor_IlE12getLightnessEv
000505b0 S __ZNK8ofColor_IlE12getLightnessEv.eh
00043cd0 S __ZNK8ofColor_IlE13getBrightnessEv
000504a0 S __ZNK8ofColor_IlE13getBrightnessEv.eh
00043ee0 S __ZNK8ofColor_IlE13getNormalizedEv
00050518 S __ZNK8ofColor_IlE13getNormalizedEv.eh
000441f0 S __ZNK8ofColor_IlE13getSaturationEv
00050594 S __ZNK8ofColor_IlE13getSaturationEv.eh
00043b30 S __ZNK8ofColor_IlE6getHexEv
00050430 S __ZNK8ofColor_IlE6getHexEv.eh
00044100 S __ZNK8ofColor_IlE6getHsbERfS1_S1_
00050574 S __ZNK8ofColor_IlE6getHsbERfS1_S1_.eh
00044030 S __ZNK8ofColor_IlE6getHueEv
00050558 S __ZNK8ofColor_IlE6getHueEv.eh
00043f70 S __ZNK8ofColor_IlE9getLerpedERKS0_f
00050538 S __ZNK8ofColor_IlE9getLerpedERKS0_f.eh
00044e70 S __ZNK8ofColor_IlEdvERKS0_
00050804 S __ZNK8ofColor_IlEdvERKS0_.eh
00044f00 S __ZNK8ofColor_IlEdvERKf
00050820 S __ZNK8ofColor_IlEdvERKf.eh
00045180 S __ZNK8ofColor_IlEixEi
0005087c S __ZNK8ofColor_IlEixEi.eh
00044900 S __ZNK8ofColor_IlEmiERKS0_
00050714 S __ZNK8ofColor_IlEmiERKS0_.eh
000449c0 S __ZNK8ofColor_IlEmiERKf
00050734 S __ZNK8ofColor_IlEmiERKf.eh
00044c30 S __ZNK8ofColor_IlEmlERKS0_
00050790 S __ZNK8ofColor_IlEmlERKS0_.eh
00044ca0 S __ZNK8ofColor_IlEmlERKf
000507ac S __ZNK8ofColor_IlEmlERKf.eh
000445d0 S __ZNK8ofColor_IlEplERKS0_
00050698 S __ZNK8ofColor_IlEplERKS0_.eh
00044690 S __ZNK8ofColor_IlEplERKf
000506b8 S __ZNK8ofColor_IlEplERKf.eh
00045d60 S __ZNK8ofColor_ImE10getClampedEv
00050b94 S __ZNK8ofColor_ImE10getClampedEv.eh
00045e90 S __ZNK8ofColor_ImE11getInvertedEv
00050bb4 S __ZNK8ofColor_ImE11getInvertedEv.eh
00046480 S __ZNK8ofColor_ImE12getLightnessEv
00050c6c S __ZNK8ofColor_ImE12getLightnessEv.eh
00045bd0 S __ZNK8ofColor_ImE13getBrightnessEv
00050b5c S __ZNK8ofColor_ImE13getBrightnessEv.eh
00045f50 S __ZNK8ofColor_ImE13getNormalizedEv
00050bd4 S __ZNK8ofColor_ImE13getNormalizedEv.eh
000463f0 S __ZNK8ofColor_ImE13getSaturationEv
00050c50 S __ZNK8ofColor_ImE13getSaturationEv.eh
00045920 S __ZNK8ofColor_ImE6getHexEv
00050aec S __ZNK8ofColor_ImE6getHexEv.eh
000462a0 S __ZNK8ofColor_ImE6getHsbERfS1_S1_
00050c30 S __ZNK8ofColor_ImE6getHsbERfS1_S1_.eh
00046180 S __ZNK8ofColor_ImE6getHueEv
00050c14 S __ZNK8ofColor_ImE6getHueEv.eh
00046030 S __ZNK8ofColor_ImE9getLerpedERKS0_f
00050bf4 S __ZNK8ofColor_ImE9getLerpedERKS0_f.eh
00047840 S __ZNK8ofColor_ImEdvERKS0_
00050ebc S __ZNK8ofColor_ImEdvERKS0_.eh
00047950 S __ZNK8ofColor_ImEdvERKf
00050ed8 S __ZNK8ofColor_ImEdvERKf.eh
00047d70 S __ZNK8ofColor_ImEixEi
00050f30 S __ZNK8ofColor_ImEixEi.eh
00046ec0 S __ZNK8ofColor_ImEmiERKS0_
00050dd0 S __ZNK8ofColor_ImEmiERKS0_.eh
00047010 S __ZNK8ofColor_ImEmiERKf
00050df0 S __ZNK8ofColor_ImEmiERKf.eh
00047430 S __ZNK8ofColor_ImEmlERKS0_
00050e4c S __ZNK8ofColor_ImEmlERKS0_.eh
00047520 S __ZNK8ofColor_ImEmlERKf
00050e68 S __ZNK8ofColor_ImEmlERKf.eh
00046950 S __ZNK8ofColor_ImEplERKS0_
00050d54 S __ZNK8ofColor_ImEplERKS0_.eh
00046aa0 S __ZNK8ofColor_ImEplERKf
00050d74 S __ZNK8ofColor_ImEplERKf.eh
0003be00 S __ZNK8ofColor_IsE10getClampedEv
0004e9e4 S __ZNK8ofColor_IsE10getClampedEv.eh
0003bea0 S __ZNK8ofColor_IsE11getInvertedEv
0004ea04 S __ZNK8ofColor_IsE11getInvertedEv.eh
0003c2c0 S __ZNK8ofColor_IsE12getLightnessEv
0004eabc S __ZNK8ofColor_IsE12getLightnessEv.eh
0003bd10 S __ZNK8ofColor_IsE13getBrightnessEv
0004e9ac S __ZNK8ofColor_IsE13getBrightnessEv.eh
0003bf20 S __ZNK8ofColor_IsE13getNormalizedEv
0004ea24 S __ZNK8ofColor_IsE13getNormalizedEv.eh
0003c250 S __ZNK8ofColor_IsE13getSaturationEv
0004eaa0 S __ZNK8ofColor_IsE13getSaturationEv.eh
0003bb80 S __ZNK8ofColor_IsE6getHexEv
0004e93c S __ZNK8ofColor_IsE6getHexEv.eh
0003c150 S __ZNK8ofColor_IsE6getHsbERfS1_S1_
0004ea80 S __ZNK8ofColor_IsE6getHsbERfS1_S1_.eh
0003c080 S __ZNK8ofColor_IsE6getHueEv
0004ea64 S __ZNK8ofColor_IsE6getHueEv.eh
0003bfb0 S __ZNK8ofColor_IsE9getLerpedERKS0_f
0004ea44 S __ZNK8ofColor_IsE9getLerpedERKS0_f.eh
0003ce30 S __ZNK8ofColor_IsEdvERKS0_
0004ed1c S __ZNK8ofColor_IsEdvERKS0_.eh
0003ced0 S __ZNK8ofColor_IsEdvERKf
0004ed38 S __ZNK8ofColor_IsEdvERKf.eh
0003d110 S __ZNK8ofColor_IsEixEi
0004ed98 S __ZNK8ofColor_IsEixEi.eh
0003c920 S __ZNK8ofColor_IsEmiERKS0_
0004ec24 S __ZNK8ofColor_IsEmiERKS0_.eh
0003c9d0 S __ZNK8ofColor_IsEmiERKf
0004ec44 S __ZNK8ofColor_IsEmiERKf.eh
0003cbd0 S __ZNK8ofColor_IsEmlERKS0_
0004eca4 S __ZNK8ofColor_IsEmlERKS0_.eh
0003cc60 S __ZNK8ofColor_IsEmlERKf
0004ecc4 S __ZNK8ofColor_IsEmlERKf.eh
0003c670 S __ZNK8ofColor_IsEplERKS0_
0004eba4 S __ZNK8ofColor_IsEplERKS0_.eh
0003c720 S __ZNK8ofColor_IsEplERKf
0004ebc4 S __ZNK8ofColor_IsEplERKf.eh
0003d9c0 S __ZNK8ofColor_ItE10getClampedEv
0004f0b0 S __ZNK8ofColor_ItE10getClampedEv.eh
0003daa0 S __ZNK8ofColor_ItE11getInvertedEv
0004f0d0 S __ZNK8ofColor_ItE11getInvertedEv.eh
0003de00 S __ZNK8ofColor_ItE12getLightnessEv
0004f188 S __ZNK8ofColor_ItE12getLightnessEv.eh
0003d8c0 S __ZNK8ofColor_ItE13getBrightnessEv
0004f078 S __ZNK8ofColor_ItE13getBrightnessEv.eh
0003db20 S __ZNK8ofColor_ItE13getNormalizedEv
0004f0f0 S __ZNK8ofColor_ItE13getNormalizedEv.eh
0003ddd0 S __ZNK8ofColor_ItE13getSaturationEv
0004f16c S __ZNK8ofColor_ItE13getSaturationEv.eh
0003d6e0 S __ZNK8ofColor_ItE6getHexEv
0004f008 S __ZNK8ofColor_ItE6getHexEv.eh
0003dcc0 S __ZNK8ofColor_ItE6getHsbERfS1_S1_
0004f14c S __ZNK8ofColor_ItE6getHsbERfS1_S1_.eh
0003dc90 S __ZNK8ofColor_ItE6getHueEv
0004f130 S __ZNK8ofColor_ItE6getHueEv.eh
0003dbc0 S __ZNK8ofColor_ItE9getLerpedERKS0_f
0004f110 S __ZNK8ofColor_ItE9getLerpedERKS0_f.eh
0003ea20 S __ZNK8ofColor_ItEdvERKS0_
0004f3d8 S __ZNK8ofColor_ItEdvERKS0_.eh
0003ead0 S __ZNK8ofColor_ItEdvERKf
0004f3f4 S __ZNK8ofColor_ItEdvERKf.eh
0003ed90 S __ZNK8ofColor_ItEixEi
0004f450 S __ZNK8ofColor_ItEixEi.eh
0003e400 S __ZNK8ofColor_ItEmiERKS0_
0004f2e4 S __ZNK8ofColor_ItEmiERKS0_.eh
0003e4e0 S __ZNK8ofColor_ItEmiERKf
0004f304 S __ZNK8ofColor_ItEmiERKf.eh
0003e790 S __ZNK8ofColor_ItEmlERKS0_
0004f360 S __ZNK8ofColor_ItEmlERKS0_.eh
0003e820 S __ZNK8ofColor_ItEmlERKf
0004f380 S __ZNK8ofColor_ItEmlERKf.eh
0003e070 S __ZNK8ofColor_ItEplERKS0_
0004f268 S __ZNK8ofColor_ItEplERKS0_.eh
0003e150 S __ZNK8ofColor_ItEplERKf
0004f288 S __ZNK8ofColor_ItEplERKf.eh
         U __ZNSt8ios_base4InitC1Ev
         U __ZNSt8ios_base4InitD1Ev
000537dc b __ZStL8__ioinit
         U ___cxa_atexit
         U ___dso_handle
         U ___gxx_personality_v0
         U _floorf

../../../libs/openFrameworksCompiled/lib/osx/openFrameworks.a(ofPoint.o):
000058b4 s EH_frame0
00005860 s __GLOBAL__I_a
000058cc s __GLOBAL__I_a.eh
         U __ZNSt8ios_base4InitC1Ev
         U __ZNSt8ios_base4InitD1Ev
000058ec b __ZStL8__ioinit
         U ___cxa_atexit
         U ___dso_handle

../../../libs/openFrameworksCompiled/lib/osx/openFrameworks.a(ofRectangle.o):
0000aa50 s EH_frame0
0000a980 s __GLOBAL__I_a
0000acec s __GLOBAL__I_a.eh
00000350 T __ZN11ofRectangle13setFromCenterE7ofVec3fff
0000ac0c S __ZN11ofRectangle13setFromCenterE7ofVec3fff.eh
000002f0 T __ZN11ofRectangle13setFromCenterEffff
0000abf0 S __ZN11ofRectangle13setFromCenterEffff.eh
00000280 T __ZN11ofRectangle3setE7ofVec3fff
0000abb8 S __ZN11ofRectangle3setE7ofVec3fff.eh
000002b0 T __ZN11ofRectangle3setERKS_
0000abd4 S __ZN11ofRectangle3setERKS_.eh
00000250 T __ZN11ofRectangle3setEffff
0000ab9c S __ZN11ofRectangle3setEffff.eh
00000400 T __ZN11ofRectangle6insideE7ofVec3f
0000ac44 S __ZN11ofRectangle6insideE7ofVec3f.eh
00000450 T __ZN11ofRectangle6insideEff
0000ac60 S __ZN11ofRectangle6insideEff.eh
000003b0 T __ZN11ofRectangle9getCenterEv
0000ac28 S __ZN11ofRectangle9getCenterEv.eh
00000130 T __ZN11ofRectangleC1E7ofVec3fff
0000ab2c S __ZN11ofRectangleC1E7ofVec3fff.eh
000001b0 T __ZN11ofRectangleC1ERKS_
0000ab64 S __ZN11ofRectangleC1ERKS_.eh
000000b0 T __ZN11ofRectangleC1Effff
0000aaf4 S __ZN11ofRectangleC1Effff.eh
00000000 T __ZN11ofRectangleC1Ev
0000aa68 S __ZN11ofRectangleC1Ev.eh
00000170 T __ZN11ofRectangleC2E7ofVec3fff
0000ab48 S __ZN11ofRectangleC2E7ofVec3fff.eh
00000200 T __ZN11ofRectangleC2ERKS_
0000ab80 S __ZN11ofRectangleC2ERKS_.eh
000000f0 T __ZN11ofRectangleC2Effff
0000ab10 S __ZN11ofRectangleC2Effff.eh
00000040 T __ZN11ofRectangleC2Ev
0000aa84 S __ZN11ofRectangleC2Ev.eh
00000080 T __ZN11ofRectangleD0Ev
0000aaa0 S __ZN11ofRectangleD0Ev.eh
00000090 T __ZN11ofRectangleD1Ev
0000aabc S __ZN11ofRectangleD1Ev.eh
000000a0 T __ZN11ofRectangleD2Ev
0000aad8 S __ZN11ofRectangleD2Ev.eh
000004a0 T __ZN11ofRectangleaSERKS_
0000ac7c S __ZN11ofRectangleaSERKS_.eh
00000510 T __ZN11ofRectangleeqERKS_
0000acb4 S __ZN11ofRectangleeqERKS_.eh
00000560 T __ZN11ofRectangleneERKS_
0000acd0 S __ZN11ofRectangleneERKS_.eh
000004e0 T __ZN11ofRectangleplERK7ofVec3f
0000ac98 S __ZN11ofRectangleplERK7ofVec3f.eh
         U __ZNSt8ios_base4InitC1Ev
         U __ZNSt8ios_base4InitD1Ev
0000ad0c b __ZStL8__ioinit
0000a9d0 S __ZTI11ofRectangle
0000a9d8 S __ZTS11ofRectangle
0000a9c0 S __ZTV11ofRectangle
         U __ZTVN10__cxxabiv117__class_type_infoE
         U __ZdlPv
         U ___cxa_atexit
         U ___dso_handle

../../../libs/openFrameworksCompiled/lib/osx/openFrameworks.a(ofFileUtils.o):
0004b8f4 s EH_frame0
0004b95c s EH_frame1
0004524c s GCC_except_table0
0004526c s GCC_except_table1
0004532c s GCC_except_table10
00046614 s GCC_except_table102
00046670 s GCC_except_table103
0004671c s GCC_except_table104
0004679c s GCC_except_table105
000467e8 s GCC_except_table106
0004534c s GCC_except_table11
00046864 s GCC_except_table115
00046930 s GCC_except_table116
000469a4 s GCC_except_table117
00046a3c s GCC_except_table118
00046b08 s GCC_except_table119
00046bc4 s GCC_except_table120
00046c40 s GCC_except_table121
00046c6c s GCC_except_table122
00046c98 s GCC_except_table123
00046cc4 s GCC_except_table124
00046eb0 s GCC_except_table125
00046edc s GCC_except_table126
00046f08 s GCC_except_table128
00046f64 s GCC_except_table129
00046fb0 s GCC_except_table131
00046fec s GCC_except_table132
00047058 s GCC_except_table136
000470a4 s GCC_except_table139
00047164 s GCC_except_table140
000471e4 s GCC_except_table142
00047210 s GCC_except_table143
0004723c s GCC_except_table144
00047268 s GCC_except_table145
00047294 s GCC_except_table146
000472c0 s GCC_except_table147
000472ec s GCC_except_table148
00047318 s GCC_except_table150
00047344 s GCC_except_table151
00047380 s GCC_except_table153
0004741c s GCC_except_table154
0004747c s GCC_except_table155
000474f0 s GCC_except_table156
0004751c s GCC_except_table157
0004536c s GCC_except_table17
00047548 s GCC_except_table179
000453a8 s GCC_except_table18
00047604 s GCC_except_table180
00047754 s GCC_except_table181
00047810 s GCC_except_table182
000478b0 s GCC_except_table183
00047950 s GCC_except_table184
000479f0 s GCC_except_table185
00047a90 s GCC_except_table186
00047b4c s GCC_except_table187
00047bec s GCC_except_table188
00047c18 s GCC_except_table189
00047c74 s GCC_except_table192
00047cdc s GCC_except_table194
00047d7c s GCC_except_table195
000480dc s GCC_except_table196
00048200 s GCC_except_table197
0004825c s GCC_except_table198
00048308 s GCC_except_table199
000453d4 s GCC_except_table20
00045410 s GCC_except_table26
000454a4 s GCC_except_table29
0004528c s GCC_except_table3
0004550c s GCC_except_table32
00045574 s GCC_except_table35
000455b4 s GCC_except_table36
00045638 s GCC_except_table37
000456ac s GCC_except_table38
00045708 s GCC_except_table39
0004574c s GCC_except_table40
0004578c s GCC_except_table41
000457d0 s GCC_except_table42
00045814 s GCC_except_table43
00045860 s GCC_except_table44
000458a0 s GCC_except_table45
000458e0 s GCC_except_table46
0004592c s GCC_except_table47
000459a4 s GCC_except_table48
000459d0 s GCC_except_table49
000452ac s GCC_except_table5
00045a1c s GCC_except_table51
00045ab8 s GCC_except_table52
00045aec s GCC_except_table54
00045b48 s GCC_except_table56
00045bb4 s GCC_except_table57
000452cc s GCC_except_table6
00045bf0 s GCC_except_table60
00045c2c s GCC_except_table61
00045c58 s GCC_except_table62
00045c84 s GCC_except_table63
00045d38 s GCC_except_table64
00045d74 s GCC_except_table66
00045da0 s GCC_except_table67
00045e30 s GCC_except_table68
00045e5c s GCC_except_table69
000452ec s GCC_except_table8
00045ed0 s GCC_except_table81
00045f9c s GCC_except_table82
00046010 s GCC_except_table83
000460c4 s GCC_except_table84
00046190 s GCC_except_table85
0004624c s GCC_except_table86
000462d4 s GCC_except_table87
000462f4 s GCC_except_table89
0004530c s GCC_except_table9
00046320 s GCC_except_table90
0004634c s GCC_except_table91
00046378 s GCC_except_table92
000463a4 s GCC_except_table93
000463d0 s GCC_except_table94
000463fc s GCC_except_table95
00046508 s GCC_except_table96
0004af60 s __GLOBAL__I_a
0004cff0 s __GLOBAL__I_a.eh
         U __NSGetExecutablePath
         U __Unwind_Resume
00005100 T __Z10hiddenFile6ofFile
0004c51c S __Z10hiddenFile6ofFile.eh
000486a0 S __Z10ofToStringIjESsRKT_
0004c918 S __Z10ofToStringIjESsRKT_.eh
         U __Z12ofToDataPathSsb
00000e20 T __Z14ofBufferToFileRKSsR8ofBufferb
0004bc8c S __Z14ofBufferToFileRKSsR8ofBufferb.eh
00000be0 T __Z16ofBufferFromFileRKSsb
0004bc68 S __Z16ofBufferFromFileRKSsb.eh
000485e0 S __Z8ofRemoveI6ofFile19ExtensionComparatorEvRSt6vectorIT_SaIS3_EET0_
0004c8b4 S __Z8ofRemoveI6ofFile19ExtensionComparatorEvRSt6vectorIT_SaIS3_EET0_.eh
00048530 S __Z8ofRemoveI6ofFilePFbS0_EEvRSt6vectorIT_SaIS4_EET0_
0004c890 S __Z8ofRemoveI6ofFilePFbS0_EEvRSt6vectorIT_SaIS4_EET0_.eh
00002670 T __ZN10ofFilePath10getFileExtESs
0004c058 S __ZN10ofFilePath10getFileExtESs.eh
00008580 T __ZN10ofFilePath10isAbsoluteESs
0004cc18 S __ZN10ofFilePath10isAbsoluteESs.eh
00008430 T __ZN10ofFilePath11getBaseNameESs
0004cbf4 S __ZN10ofFilePath11getBaseNameESs.eh
000027b0 T __ZN10ofFilePath11getFileNameESsb
0004c0a0 S __ZN10ofFilePath11getFileNameESsb.eh
00008d60 T __ZN10ofFilePath14getUserHomeDirEv
0004ccc8 S __ZN10ofFilePath14getUserHomeDirEv.eh
00008210 T __ZN10ofFilePath15addLeadingSlashESs
0004cb8c S __ZN10ofFilePath15addLeadingSlashESs.eh
00002e50 T __ZN10ofFilePath15getAbsolutePathESsb
0004c170 S __ZN10ofFilePath15getAbsolutePathESsb.eh
000082e0 T __ZN10ofFilePath16addTrailingSlashESs
0004cbb0 S __ZN10ofFilePath16addTrailingSlashESs.eh
00008cc0 T __ZN10ofFilePath16getCurrentExeDirEv
0004cca4 S __ZN10ofFilePath16getCurrentExeDirEv.eh
00008b00 T __ZN10ofFilePath17getCurrentExePathEv
0004cc80 S __ZN10ofFilePath17getCurrentExePathEv.eh
00005620 T __ZN10ofFilePath19getPathForDirectoryESs
0004c5dc S __ZN10ofFilePath19getPathForDirectoryESs.eh
00008350 T __ZN10ofFilePath19removeTrailingSlashESs
0004cbd0 S __ZN10ofFilePath19removeTrailingSlashESs.eh
00002c20 T __ZN10ofFilePath21getEnclosingDirectoryESsb
0004c128 S __ZN10ofFilePath21getEnclosingDirectoryESsb.eh
000085c0 T __ZN10ofFilePath26getCurrentWorkingDirectoryEv
0004cc38 S __ZN10ofFilePath26getCurrentWorkingDirectoryEv.eh
000088e0 T __ZN10ofFilePath4joinESsSs
0004cc5c S __ZN10ofFilePath4joinESsSs.eh
00002b10 T __ZN10ofFilePath9removeExtESs
0004c0e8 S __ZN10ofFilePath9removeExtESs.eh
         U __ZN10ofLogErrorC1ERKSs
00007ba0 T __ZN11ofDirectory11getPocoFileEv
0004ca98 S __ZN11ofDirectory11getPocoFileEv.eh
00005840 T __ZN11ofDirectory11setReadOnlyEb
0004c6b8 S __ZN11ofDirectory11setReadOnlyEb.eh
00005820 T __ZN11ofDirectory12setWriteableEb
0004c69c S __ZN11ofDirectory12setWriteableEb.eh
00007650 T __ZN11ofDirectory13getShowHiddenEv
0004c9d8 S __ZN11ofDirectory13getShowHiddenEv.eh
00005860 T __ZN11ofDirectory13setExecutableEb
0004c6d4 S __ZN11ofDirectory13setExecutableEb.eh
00005880 T __ZN11ofDirectory13setShowHiddenEb
0004c6f0 S __ZN11ofDirectory13setShowHiddenEb.eh
00007710 T __ZN11ofDirectory15createDirectoryESsbb
0004ca50 S __ZN11ofDirectory15createDirectoryESsbb.eh
00005cf0 T __ZN11ofDirectory15removeDirectoryESsbb
0004c770 S __ZN11ofDirectory15removeDirectoryESsbb.eh
00007910 T __ZN11ofDirectory16isDirectoryEmptyESsb
0004ca74 S __ZN11ofDirectory16isDirectoryEmptyESsb.eh
00005ba0 T __ZN11ofDirectory18doesDirectoryExistESsb
0004c74c S __ZN11ofDirectory18doesDirectoryExistESsb.eh
00007420 T __ZN11ofDirectory20getOriginalDirectoryEv
0004c93c S __ZN11ofDirectory20getOriginalDirectoryEv.eh
000053b0 T __ZN11ofDirectory4openESs
0004c5b8 S __ZN11ofDirectory4openESs.eh
000072e0 T __ZN11ofDirectory4sizeEv
0004c8d8 S __ZN11ofDirectory4sizeEv.eh
000076b0 T __ZN11ofDirectory4sortEv
0004ca18 S __ZN11ofDirectory4sortEv.eh
000056b0 T __ZN11ofDirectory5closeEv
0004c600 S __ZN11ofDirectory5closeEv.eh
00007660 T __ZN11ofDirectory5resetEv
0004c9f4 S __ZN11ofDirectory5resetEv.eh
000058b0 T __ZN11ofDirectory6copyToESsbb
0004c728 S __ZN11ofDirectory6copyToESsbb.eh
00005700 T __ZN11ofDirectory6createEb
0004c624 S __ZN11ofDirectory6createEb.eh
00005eb0 T __ZN11ofDirectory6moveToESsbb
0004c794 S __ZN11ofDirectory6moveToESsbb.eh
00006480 T __ZN11ofDirectory6removeEb
0004c7dc S __ZN11ofDirectory6removeEb.eh
00007540 T __ZN11ofDirectory7getFileEjN6ofFile4ModeEb
0004c97c S __ZN11ofDirectory7getFileEjN6ofFile4ModeEb.eh
00007310 T __ZN11ofDirectory7getNameEj
0004c8f4 S __ZN11ofDirectory7getNameEj.eh
00007450 T __ZN11ofDirectory7getPathEj
0004c958 S __ZN11ofDirectory7getPathEj.eh
000066f0 T __ZN11ofDirectory7listDirESs
0004c848 S __ZN11ofDirectory7listDirESs.eh
00006790 T __ZN11ofDirectory7listDirEv
0004c86c S __ZN11ofDirectory7listDirEv.eh
000065d0 T __ZN11ofDirectory8allowExtESs
0004c800 S __ZN11ofDirectory8allowExtESs.eh
00007620 T __ZN11ofDirectory8getFilesEv
0004c9bc S __ZN11ofDirectory8getFilesEv.eh
000076e0 T __ZN11ofDirectory8numFilesEv
0004ca34 S __ZN11ofDirectory8numFilesEv.eh
000061a0 T __ZN11ofDirectory8renameToESsbb
0004c7b8 S __ZN11ofDirectory8renameToESsbb.eh
000051e0 T __ZN11ofDirectoryC1ESs
0004c578 S __ZN11ofDirectoryC1ESs.eh
00005120 T __ZN11ofDirectoryC1Ev
0004c538 S __ZN11ofDirectoryC1Ev.eh
000051f0 T __ZN11ofDirectoryC2ESs
0004c594 S __ZN11ofDirectoryC2ESs.eh
00005180 T __ZN11ofDirectoryC2Ev
0004c558 S __ZN11ofDirectoryC2Ev.eh
00007bb0 T __ZN11ofDirectoryeqERKS_
0004cab4 S __ZN11ofDirectoryeqERKS_.eh
00008100 T __ZN11ofDirectorygeERKS_
0004cb68 S __ZN11ofDirectorygeERKS_.eh
00007ff0 T __ZN11ofDirectorygtERKS_
0004cb44 S __ZN11ofDirectorygtERKS_.eh
000075e0 T __ZN11ofDirectoryixEj
0004c9a0 S __ZN11ofDirectoryixEj.eh
00007ee0 T __ZN11ofDirectoryleERKS_
0004cb20 S __ZN11ofDirectoryleERKS_.eh
00007dd0 T __ZN11ofDirectoryltERKS_
0004cafc S __ZN11ofDirectoryltERKS_.eh
00007cc0 T __ZN11ofDirectoryneERKS_
0004cad8 S __ZN11ofDirectoryneERKS_.eh
00049950 S __ZN19ExtensionComparatorclERK6ofFile
0004ce94 S __ZN19ExtensionComparatorclERK6ofFile.eh
         U __ZN4Poco4File10createFileEv
         U __ZN4Poco4File11setReadOnlyEb
         U __ZN4Poco4File12setWriteableEb
         U __ZN4Poco4File13setExecutableEb
         U __ZN4Poco4File15createDirectoryEv
         U __ZN4Poco4File17createDirectoriesEv
         U __ZN4Poco4File6moveToERKSs
         U __ZN4Poco4File6removeEb
         U __ZN4Poco4File8renameToERKSs
         U __ZN4Poco4FileC1ERKSs
         U __ZN4Poco4FileC1Ev
         U __ZN4Poco4FileD1Ev
         U __ZN4Poco4FileaSERKS0_
         U __ZN4Poco4Path11setFileNameERKSs
         U __ZN4Poco4Path12makeAbsoluteEv
         U __ZN4Poco4Path14parseDirectoryERKSs
         U __ZN4Poco4PathC1ERKS0_
         U __ZN4Poco4PathC1ERKSs
         U __ZN4Poco4PathC1Ev
         U __ZN4Poco4PathD1Ev
         U __ZN4Poco5Ascii20CHARACTER_PROPERTIESE
00048410 S __ZN4Poco7toLowerISsEET_RKS1_
0004c824 S __ZN4Poco7toLowerISsEET_RKS1_.eh
         U __ZN5ofLog7paddingE
         U __ZN5ofLogC1E10ofLogLevelPKcz
         U __ZN5ofLogC1E10ofLogLevelRKSs
         U __ZN5ofLogD1Ev
         U __ZN5ofLogD2Ev
00002200 T __ZN6ofFile10changeModeENS_4ModeEb
0004bf70 S __ZN6ofFile10changeModeENS_4ModeEb.eh
00004710 T __ZN6ofFile10copyFromToESsSsbb
0004c4b8 S __ZN6ofFile10copyFromToESsSsbb.eh
00004c00 T __ZN6ofFile10moveFromToESsSsbb
0004c4dc S __ZN6ofFile10moveFromToESsSsbb.eh
00001d70 T __ZN6ofFile10openStreamENS_4ModeEb
0004bf0c S __ZN6ofFile10openStreamENS_4ModeEb.eh
000035e0 T __ZN6ofFile10removeFileESsb
0004c310 S __ZN6ofFile10removeFileESsb.eh
000050f0 T __ZN6ofFile11getPocoFileEv
0004c500 S __ZN6ofFile11getPocoFileEv.eh
00002300 T __ZN6ofFile11isWriteModeEv
0004bf94 S __ZN6ofFile11isWriteModeEv.eh
000030e0 T __ZN6ofFile11setReadOnlyEb
0004c290 S __ZN6ofFile11setReadOnlyEb.eh
000023d0 T __ZN6ofFile12readToBufferEv
0004bfd4 S __ZN6ofFile12readToBufferEv.eh
000030b0 T __ZN6ofFile12setWriteableEb
0004c274 S __ZN6ofFile12setWriteableEb.eh
00003480 T __ZN6ofFile13doesFileExistESsb
0004c2ec S __ZN6ofFile13doesFileExistESsb.eh
00003110 T __ZN6ofFile13setExecutableEb
0004c2ac S __ZN6ofFile13setExecutableEb.eh
000024c0 T __ZN6ofFile15writeFromBufferER8ofBuffer
0004bff8 S __ZN6ofFile15writeFromBufferER8ofBuffer.eh
00001420 T __ZN6ofFile4openESsNS_4ModeEb
0004bd1c S __ZN6ofFile4openESsNS_4ModeEb.eh
00001990 T __ZN6ofFile5closeEv
0004be60 S __ZN6ofFile5closeEv.eh
00003140 T __ZN6ofFile6copyToESsbb
0004c2c8 S __ZN6ofFile6copyToESsbb.eh
00002320 T __ZN6ofFile6createEv
0004bfb0 S __ZN6ofFile6createEv.eh
000038c0 T __ZN6ofFile6moveToESsbb
0004c334 S __ZN6ofFile6moveToESsbb.eh
00003eb0 T __ZN6ofFile6removeEb
0004c37c S __ZN6ofFile6removeEb.eh
00001bb0 T __ZN6ofFile8copyFromERKS_
0004bea8 S __ZN6ofFile8copyFromERKS_.eh
00003bc0 T __ZN6ofFile8renameToESsbb
0004c358 S __ZN6ofFile8renameToESsbb.eh
00001a10 T __ZN6ofFileC1ERKS_
0004be84 S __ZN6ofFileC1ERKS_.eh
00001200 T __ZN6ofFileC1ESsNS_4ModeEb
0004bcf8 S __ZN6ofFileC1ESsNS_4ModeEb.eh
00001000 T __ZN6ofFileC1Ev
0004bcb0 S __ZN6ofFileC1Ev.eh
00001cb0 T __ZN6ofFileC2ERKS_
0004becc S __ZN6ofFileC2ERKS_.eh
00001580 T __ZN6ofFileC2ESsNS_4ModeEb
0004bd40 S __ZN6ofFileC2ESsNS_4ModeEb.eh
00001190 T __ZN6ofFileC2Ev
0004bcd4 S __ZN6ofFileC2Ev.eh
00001690 T __ZN6ofFileD0Ev
0004bd64 S __ZN6ofFileD0Ev.eh
00001700 T __ZN6ofFileD1Ev
0004bd88 S __ZN6ofFileD1Ev.eh
00001850 T __ZN6ofFileD2Ev
0004bdf4 S __ZN6ofFileD2Ev.eh
00001d40 T __ZN6ofFileaSERKS_
0004bef0 S __ZN6ofFileaSERKS_.eh
00000b50 T __ZN8ofBuffer10isLastLineEv
0004bc14 S __ZN8ofBuffer10isLastLineEv.eh
000009a0 T __ZN8ofBuffer11getNextLineEv
0004bbb8 S __ZN8ofBuffer11getNextLineEv.eh
00000b10 T __ZN8ofBuffer12getFirstLineEv
0004bbdc S __ZN8ofBuffer12getFirstLineEv.eh
000007e0 T __ZN8ofBuffer15getBinaryBufferEv
0004bb04 S __ZN8ofBuffer15getBinaryBufferEv.eh
00000b40 T __ZN8ofBuffer15resetLineReaderEv
0004bbf8 S __ZN8ofBuffer15resetLineReaderEv.eh
000001d0 T __ZN8ofBuffer3setEPKci
0004b9b4 S __ZN8ofBuffer3setEPKci.eh
00000330 T __ZN8ofBuffer3setERSi
0004ba1c S __ZN8ofBuffer3setERSi.eh
00000730 T __ZN8ofBuffer5clearEv
0004bacc S __ZN8ofBuffer5clearEv.eh
00000800 T __ZN8ofBuffer8allocateEl
0004bb20 S __ZN8ofBuffer8allocateEl.eh
000000e0 T __ZN8ofBufferC1EPKci
0004b974 S __ZN8ofBufferC1EPKci.eh
000004d0 T __ZN8ofBufferC1ERKS_
0004ba3c S __ZN8ofBufferC1ERKS_.eh
00000290 T __ZN8ofBufferC1ERSi
0004b9d4 S __ZN8ofBufferC1ERSi.eh
00000000 T __ZN8ofBufferC1Ev
0004b914 S __ZN8ofBufferC1Ev.eh
000000f0 T __ZN8ofBufferC2EPKci
0004b990 S __ZN8ofBufferC2EPKci.eh
00000580 T __ZN8ofBufferC2ERKS_
0004ba60 S __ZN8ofBufferC2ERKS_.eh
000002e0 T __ZN8ofBufferC2ERSi
0004b9f8 S __ZN8ofBufferC2ERSi.eh
00000070 T __ZN8ofBufferC2Ev
0004b938 S __ZN8ofBufferC2Ev.eh
00000630 T __ZN8ofBufferD1Ev
0004ba84 S __ZN8ofBufferD1Ev.eh
000006b0 T __ZN8ofBufferD2Ev
0004baa8 S __ZN8ofBufferD2Ev.eh
00005890 T __ZNK11ofDirectory11isDirectoryEv
0004c70c S __ZNK11ofDirectory11isDirectoryEv.eh
000057d0 T __ZNK11ofDirectory4pathEv
0004c664 S __ZNK11ofDirectory4pathEv.eh
000057b0 T __ZNK11ofDirectory6existsEv
0004c648 S __ZNK11ofDirectory6existsEv.eh
00005800 T __ZNK11ofDirectory8isHiddenEv
0004c680 S __ZNK11ofDirectory8isHiddenEv.eh
         U __ZNK4Poco4File10canExecuteEv
         U __ZNK4Poco4File11isDirectoryEv
         U __ZNK4Poco4File4listERSt6vectorISsSaISsEE
         U __ZNK4Poco4File6copyToERKSs
         U __ZNK4Poco4File6existsEv
         U __ZNK4Poco4File6isFileEv
         U __ZNK4Poco4File6isLinkEv
         U __ZNK4Poco4File7canReadEv
         U __ZNK4Poco4File7getSizeEv
         U __ZNK4Poco4File8canWriteEv
         U __ZNK4Poco4File8isDeviceEv
         U __ZNK4Poco4File8isHiddenEv
         U __ZNK4Poco4Path12getExtensionEv
         U __ZNK4Poco4Path6parentEv
         U __ZNK4Poco4Path8toStringEv
         U __ZNK4Poco9Exception11displayTextEv
00002ff0 T __ZNK6ofFile10canExecuteEv
0004c1cc S __ZNK6ofFile10canExecuteEv.eh
000029c0 T __ZNK6ofFile11getBaseNameEv
0004c0c4 S __ZNK6ofFile11getBaseNameEv.eh
00002700 T __ZNK6ofFile11getFileNameEv
0004c07c S __ZNK6ofFile11getFileNameEv.eh
00003050 T __ZNK6ofFile11isDirectoryEv
0004c220 S __ZNK6ofFile11isDirectoryEv.eh
00002570 T __ZNK6ofFile12getExtensionEv
0004c034 S __ZNK6ofFile12getExtensionEv.eh
00002560 T __ZNK6ofFile13getFileBufferEv
0004c018 S __ZNK6ofFile13getFileBufferEv.eh
00002da0 T __ZNK6ofFile15getAbsolutePathEv
0004c14c S __ZNK6ofFile15getAbsolutePathEv.eh
00002b70 T __ZNK6ofFile21getEnclosingDirectoryEv
0004c104 S __ZNK6ofFile21getEnclosingDirectoryEv.eh
000021d0 T __ZNK6ofFile4pathEv
0004bf54 S __ZNK6ofFile4pathEv.eh
00002140 T __ZNK6ofFile6existsEv
0004bf30 S __ZNK6ofFile6existsEv.eh
00003010 T __ZNK6ofFile6isFileEv
0004c1e8 S __ZNK6ofFile6isFileEv.eh
00003030 T __ZNK6ofFile6isLinkEv
0004c204 S __ZNK6ofFile6isLinkEv.eh
00002fb0 T __ZNK6ofFile7canReadEv
0004c194 S __ZNK6ofFile7canReadEv.eh
00004080 T __ZNK6ofFile7getSizeEv
0004c3c4 S __ZNK6ofFile7getSizeEv.eh
00002fd0 T __ZNK6ofFile8canWriteEv
0004c1b0 S __ZNK6ofFile8canWriteEv.eh
00003070 T __ZNK6ofFile8isDeviceEv
0004c23c S __ZNK6ofFile8isDeviceEv.eh
00003090 T __ZNK6ofFile8isHiddenEv
0004c258 S __ZNK6ofFile8isHiddenEv.eh
000040a0 T __ZNK6ofFileeqERKS_
0004c3e0 S __ZNK6ofFileeqERKS_.eh
00004600 T __ZNK6ofFilegeERKS_
0004c494 S __ZNK6ofFilegeERKS_.eh
000044f0 T __ZNK6ofFilegtERKS_
0004c470 S __ZNK6ofFilegtERKS_.eh
000043e0 T __ZNK6ofFileleERKS_
0004c44c S __ZNK6ofFileleERKS_.eh
000042c0 T __ZNK6ofFileltERKS_
0004c428 S __ZNK6ofFileltERKS_.eh
000041b0 T __ZNK6ofFileneERKS_
0004c404 S __ZNK6ofFileneERKS_.eh
000008a0 T __ZNK8ofBuffer15getBinaryBufferEv
0004bb40 S __ZNK8ofBuffer15getBinaryBufferEv.eh
00000980 T __ZNK8ofBuffer4sizeEv
0004bb9c S __ZNK8ofBuffer4sizeEv.eh
000008c0 T __ZNK8ofBuffer7getTextEv
0004bb5c S __ZNK8ofBuffer7getTextEv.eh
00000790 T __ZNK8ofBuffer7writeToERSo
0004bae8 S __ZNK8ofBuffer7writeToERSo.eh
00000920 T __ZNK8ofBuffercvSsEv
0004bb7c S __ZNK8ofBuffercvSsEv.eh
         U __ZNKSs12find_last_ofEPKcmm
         U __ZNKSs5rfindEcm
         U __ZNKSs7compareEPKc
         U __ZNKSt15basic_stringbufIcSt11char_traitsIcESaIcEE3strEv
         U __ZNSdD0Ev
         U __ZNSdD1Ev
         U __ZNSi4readEPci
         U __ZNSiD0Ev
         U __ZNSiD1Ev
         U __ZNSo5writeEPKci
         U __ZNSo9_M_insertImEERSoT_
         U __ZNSoD0Ev
         U __ZNSoD1Ev
         U __ZNSs12_M_leak_hardEv
         U __ZNSs4_Rep10_M_destroyERKSaIcE
         U __ZNSs4_Rep11_S_terminalE
         U __ZNSs4_Rep20_S_empty_rep_storageE
         U __ZNSs6appendEPKcm
         U __ZNSs6appendERKSs
         U __ZNSs6assignERKSs
         U __ZNSs7reserveEm
         U __ZNSsC1EPKcRKSaIcE
         U __ZNSsC1EPKcmRKSaIcE
         U __ZNSsC1ERKSs
         U __ZNSsC1ERKSsmm
         U __ZNSt12__basic_fileIcED1Ev
         U __ZNSt13basic_filebufIcSt11char_traitsIcEE4openEPKcSt13_Ios_Openmode
         U __ZNSt13basic_filebufIcSt11char_traitsIcEE5closeEv
         U __ZNSt13basic_fstreamIcSt11char_traitsIcEEC2Ev
         U __ZNSt13basic_fstreamIcSt11char_traitsIcEED0Ev
         U __ZNSt13basic_fstreamIcSt11char_traitsIcEED1Ev
         U __ZNSt13basic_fstreamIcSt11char_traitsIcEED2Ev
         U __ZNSt14basic_ifstreamIcSt11char_traitsIcEEC1EPKcSt13_Ios_Openmode
         U __ZNSt14basic_ifstreamIcSt11char_traitsIcEED1Ev
         U __ZNSt14basic_ofstreamIcSt11char_traitsIcEEC1EPKcSt13_Ios_Openmode
         U __ZNSt14basic_ofstreamIcSt11char_traitsIcEED1Ev
         U __ZNSt19basic_ostringstreamIcSt11char_traitsIcESaIcEEC1ESt13_Ios_Openmode
         U __ZNSt6localeD1Ev
0004a440 S __ZNSt6vectorI6ofFileSaIS0_EE13_M_insert_auxEN9__gnu_cxx17__normal_iteratorIPS0_S2_EERKS0_
0004cf20 S __ZNSt6vectorI6ofFileSaIS0_EE13_M_insert_auxEN9__gnu_cxx17__normal_iteratorIPS0_S2_EERKS0_.eh
000497f0 S __ZNSt6vectorI6ofFileSaIS0_EEC2ERKS2_
0004ce4c S __ZNSt6vectorI6ofFileSaIS0_EEC2ERKS2_.eh
0004a7b0 S __ZNSt6vectorISsSaISsEE13_M_insert_auxEN9__gnu_cxx17__normal_iteratorIPSsS1_EERKSs
0004cf68 S __ZNSt6vectorISsSaISsEE13_M_insert_auxEN9__gnu_cxx17__normal_iteratorIPSsS1_EERKSs.eh
0004adb0 S __ZNSt6vectorIcSaIcEE14_M_fill_insertEN9__gnu_cxx17__normal_iteratorIPcS1_EEmRKc
0004cfd0 S __ZNSt6vectorIcSaIcEE14_M_fill_insertEN9__gnu_cxx17__normal_iteratorIPcS1_EEmRKc.eh
         U __ZNSt8ios_base4InitC1Ev
         U __ZNSt8ios_base4InitD1Ev
         U __ZNSt8ios_baseC2Ev
         U __ZNSt8ios_baseD2Ev
         U __ZNSt9basic_iosIcSt11char_traitsIcEE5clearESt12_Ios_Iostate
00049360 S __ZSt10__pop_heapIN9__gnu_cxx17__normal_iteratorIP6ofFileSt6vectorIS2_SaIS2_EEEES2_EvT_S8_S8_T0_
0004cde0 S __ZSt10__pop_heapIN9__gnu_cxx17__normal_iteratorIP6ofFileSt6vectorIS2_SaIS2_EEEES2_EvT_S8_S8_T0_.eh
00049470 S __ZSt13__adjust_heapIN9__gnu_cxx17__normal_iteratorIP6ofFileSt6vectorIS2_SaIS2_EEEEiS2_EvT_T0_S9_T1_
0004ce04 S __ZSt13__adjust_heapIN9__gnu_cxx17__normal_iteratorIP6ofFileSt6vectorIS2_SaIS2_EEEEiS2_EvT_T0_S9_T1_.eh
00049110 S __ZSt13__heap_selectIN9__gnu_cxx17__normal_iteratorIP6ofFileSt6vectorIS2_SaIS2_EEEEEvT_S8_S8_
0004cd98 S __ZSt13__heap_selectIN9__gnu_cxx17__normal_iteratorIP6ofFileSt6vectorIS2_SaIS2_EEEEEvT_S8_S8_.eh
00049cc0 S __ZSt14remove_copy_ifIN9__gnu_cxx17__normal_iteratorIP6ofFileSt6vectorIS2_SaIS2_EEEES7_PFbS2_EET0_T_SB_SA_T1_
0004ced8 S __ZSt14remove_copy_ifIN9__gnu_cxx17__normal_iteratorIP6ofFileSt6vectorIS2_SaIS2_EEEES7_PFbS2_EET0_T_SB_SA_T1_.eh
00048c20 S __ZSt16__insertion_sortIN9__gnu_cxx17__normal_iteratorIP6ofFileSt6vectorIS2_SaIS2_EEEEEvT_S8_
0004cd2c S __ZSt16__insertion_sortIN9__gnu_cxx17__normal_iteratorIP6ofFileSt6vectorIS2_SaIS2_EEEEEvT_S8_.eh
00048910 S __ZSt16__introsort_loopIN9__gnu_cxx17__normal_iteratorIP6ofFileSt6vectorIS2_SaIS2_EEEEiEvT_S8_T0_
0004cd08 S __ZSt16__introsort_loopIN9__gnu_cxx17__normal_iteratorIP6ofFileSt6vectorIS2_SaIS2_EEEEiEvT_S8_T0_.eh
         U __ZSt16__ostream_insertIcSt11char_traitsIcEERSt13basic_ostreamIT_T0_ES6_PKS3_i
         U __ZSt17__throw_bad_allocv
000498b0 S __ZSt18uninitialized_copyIN9__gnu_cxx17__normal_iteratorIPK6ofFileSt6vectorIS2_SaIS2_EEEEPS2_ET0_T_SB_SA_
0004ce70 S __ZSt18uninitialized_copyIN9__gnu_cxx17__normal_iteratorIPK6ofFileSt6vectorIS2_SaIS2_EEEEPS2_ET0_T_SB_SA_.eh
0004a710 S __ZSt18uninitialized_copyIP6ofFileS1_ET0_T_S3_S2_
0004cf44 S __ZSt18uninitialized_copyIP6ofFileS1_ET0_T_S3_S2_.eh
         U __ZSt20__throw_length_errorPKc
         U __ZSt20__throw_out_of_rangePKc
0004aa80 S __ZSt24__uninitialized_copy_auxIPSsS0_ET0_T_S2_S1_St12__false_type
0004cf8c S __ZSt24__uninitialized_copy_auxIPSsS0_ET0_T_S2_S1_St12__false_type.eh
00048ee0 S __ZSt26__unguarded_insertion_sortIN9__gnu_cxx17__normal_iteratorIP6ofFileSt6vectorIS2_SaIS2_EEEEEvT_S8_
0004cd50 S __ZSt26__unguarded_insertion_sortIN9__gnu_cxx17__normal_iteratorIP6ofFileSt6vectorIS2_SaIS2_EEEEEvT_S8_.eh
00048820 S __ZSt4sortIN9__gnu_cxx17__normal_iteratorIP6ofFileSt6vectorIS2_SaIS2_EEEEEvT_S8_
0004cce8 S __ZSt4sortIN9__gnu_cxx17__normal_iteratorIP6ofFileSt6vectorIS2_SaIS2_EEEEEvT_S8_.eh
00049030 S __ZSt4swapI6ofFileEvRT_S2_
0004cd74 S __ZSt4swapI6ofFileEvRT_S2_.eh
0004ab40 S __ZSt6__findIN9__gnu_cxx17__normal_iteratorIPKSsSt6vectorISsSaISsEEEESsET_S8_S8_RKT0_St26random_access_iterator_tag
0004cfb0 S __ZSt6__findIN9__gnu_cxx17__normal_iteratorIPKSsSt6vectorISsSaISsEEEESsET_S8_S8_RKT0_St26random_access_iterator_tag.eh
00049270 S __ZSt8pop_heapIN9__gnu_cxx17__normal_iteratorIP6ofFileSt6vectorIS2_SaIS2_EEEEEvT_S8_
0004cdbc S __ZSt8pop_heapIN9__gnu_cxx17__normal_iteratorIP6ofFileSt6vectorIS2_SaIS2_EEEEEvT_S8_.eh
00049b20 S __ZSt9__find_ifIN9__gnu_cxx17__normal_iteratorIP6ofFileSt6vectorIS2_SaIS2_EEEE19ExtensionComparatorET_S9_S9_T0_St26random_access_iterator_tag
0004ceb8 S __ZSt9__find_ifIN9__gnu_cxx17__normal_iteratorIP6ofFileSt6vectorIS2_SaIS2_EEEE19ExtensionComparatorET_S9_S9_T0_St26random_access_iterator_tag.eh
00049e00 S __ZSt9__find_ifIN9__gnu_cxx17__normal_iteratorIP6ofFileSt6vectorIS2_SaIS2_EEEEPFbS2_EET_SA_SA_T0_St26random_access_iterator_tag
0004cefc S __ZSt9__find_ifIN9__gnu_cxx17__normal_iteratorIP6ofFileSt6vectorIS2_SaIS2_EEEEPFbS2_EET_SA_SA_T0_St26random_access_iterator_tag.eh
000496a0 S __ZSt9make_heapIN9__gnu_cxx17__normal_iteratorIP6ofFileSt6vectorIS2_SaIS2_EEEEEvT_S8_
0004ce28 S __ZSt9make_heapIN9__gnu_cxx17__normal_iteratorIP6ofFileSt6vectorIS2_SaIS2_EEEEEvT_S8_.eh
         U __ZSt9terminatev
0004ef62 b __ZStL8__ioinit
00048360 S __ZStplIcSt11char_traitsIcESaIcEESbIT_T0_T1_EPKS3_RKS6_
0004c3a0 S __ZStplIcSt11char_traitsIcESaIcEESbIT_T0_T1_EPKS3_RKS6_.eh
0004b850 S __ZTC6ofFile0_Sd
0004b890 S __ZTC6ofFile0_Si
0004b810 S __ZTC6ofFile0_St13basic_fstreamIcSt11char_traitsIcEE
0004b8c0 S __ZTC6ofFile8_So
0004b800 S __ZTI6ofFile
         U __ZTIN4Poco9ExceptionE
         U __ZTISd
         U __ZTISi
         U __ZTISo
         U __ZTISt13basic_fstreamIcSt11char_traitsIcEE
0004b8e8 S __ZTS6ofFile
0004b780 S __ZTT6ofFile
         U __ZTTSt19basic_ostringstreamIcSt11char_traitsIcESaIcEE
0004b7c0 S __ZTV6ofFile
         U __ZTVN10__cxxabiv120__si_class_type_infoE
         U __ZTVSt13basic_filebufIcSt11char_traitsIcEE
         U __ZTVSt15basic_streambufIcSt11char_traitsIcEE
         U __ZTVSt15basic_stringbufIcSt11char_traitsIcESaIcEE
         U __ZTVSt9basic_iosIcSt11char_traitsIcEE
00001760 T __ZThn8_N6ofFileD0Ev
0004bdac S __ZThn8_N6ofFileD0Ev.eh
000018d0 T __ZThn8_N6ofFileD1Ev
0004be18 S __ZThn8_N6ofFileD1Ev.eh
         U __ZThn8_NSdD0Ev
         U __ZThn8_NSdD1Ev
         U __ZThn8_NSt13basic_fstreamIcSt11char_traitsIcEED0Ev
         U __ZThn8_NSt13basic_fstreamIcSt11char_traitsIcEED1Ev
000017d0 T __ZTv0_n12_N6ofFileD0Ev
0004bdd0 S __ZTv0_n12_N6ofFileD0Ev.eh
00001930 T __ZTv0_n12_N6ofFileD1Ev
0004be3c S __ZTv0_n12_N6ofFileD1Ev.eh
         U __ZTv0_n12_NSdD0Ev
         U __ZTv0_n12_NSdD1Ev
         U __ZTv0_n12_NSiD0Ev
         U __ZTv0_n12_NSiD1Ev
         U __ZTv0_n12_NSoD0Ev
         U __ZTv0_n12_NSoD1Ev
         U __ZTv0_n12_NSt13basic_fstreamIcSt11char_traitsIcEED0Ev
         U __ZTv0_n12_NSt13basic_fstreamIcSt11char_traitsIcEED1Ev
         U __ZdlPv
00000b70 T __ZlsRSoRK8ofBuffer
0004bc30 S __ZlsRSoRK8ofBuffer.eh
         U __Znwm
00000bb0 T __ZrsRSiR8ofBuffer
0004bc4c S __ZrsRSiR8ofBuffer.eh
         U ___cxa_atexit
         U ___cxa_begin_catch
         U ___cxa_end_catch
         U ___cxa_rethrow
         U ___dso_handle
         U ___gxx_personality_v0
         U ___stack_chk_fail
         U ___stack_chk_guard
         U _getpwuid
         U _getuid
         U _memcmp
         U _memcpy
         U _memmove
         U _memset
         U _strlen

../../../libs/openFrameworksCompiled/lib/osx/openFrameworks.a(ofLog.o):
00030c1c s EH_frame0
00030c8c s EH_frame1
0002f8a0 s GCC_except_table10
0002f930 s GCC_except_table12
0002f970 s GCC_except_table15
0002f9b0 s GCC_except_table17
0002f9fc s GCC_except_table19
0002fa64 s GCC_except_table20
0002fac4 s GCC_except_table21
0002fb2c s GCC_except_table23
0002fb4c s GCC_except_table25
0002fb98 s GCC_except_table26
0002fbd8 s GCC_except_table27
0002fc18 s GCC_except_table28
0002fc58 s GCC_except_table29
0002fc98 s GCC_except_table30
0002fcd8 s GCC_except_table31
0002fd18 s GCC_except_table32
0002fd58 s GCC_except_table33
0002fd98 s GCC_except_table34
0002fdd8 s GCC_except_table35
0002fe18 s GCC_except_table36
0002fe58 s GCC_except_table37
0002fe98 s GCC_except_table38
0002fed8 s GCC_except_table39
0002f768 s GCC_except_table4
0002ff18 s GCC_except_table40
0002ff58 s GCC_except_table41
0002ff98 s GCC_except_table42
0002ffd8 s GCC_except_table43
00030018 s GCC_except_table44
00030058 s GCC_except_table45
00030098 s GCC_except_table46
000300d8 s GCC_except_table47
00030198 s GCC_except_table48
0002f794 s GCC_except_table5
000301d4 s GCC_except_table51
000301f4 s GCC_except_table52
00030214 s GCC_except_table53
00030260 s GCC_except_table54
000302a8 s GCC_except_table55
000302f8 s GCC_except_table56
00030338 s GCC_except_table57
00030378 s GCC_except_table59
000303a4 s GCC_except_table61
000303ec s GCC_except_table65
0003040c s GCC_except_table67
0003042c s GCC_except_table69
0002f7c0 s GCC_except_table7
0003044c s GCC_except_table71
0003046c s GCC_except_table73
0003048c s GCC_except_table75
000304d8 s GCC_except_table83
00030524 s GCC_except_table88
0002f860 s GCC_except_table9
000305a0 s __GLOBAL__I_a
0003174c s __GLOBAL__I_a.eh
         U __Unwind_Resume
00000100 T __Z11ofLogToFileRKSsb
00030d10 S __Z11ofLogToFileRKSsb.eh
000000e0 T __Z13ofGetLogLevelv
00030cf4 S __Z13ofGetLogLevelv.eh
00000010 T __Z13ofSetLogLevel10ofLogLevel
00030c70 S __Z13ofSetLogLevel10ofLogLevel.eh
00000030 T __Z13ofSetLogLevelSs10ofLogLevel
00030cac S __Z13ofSetLogLevelSs10ofLogLevel.eh
000003d0 T __Z14ofLogToConsolev
00030d78 S __Z14ofLogToConsolev.eh
         U __Z16ofVAArgsToStringPKcPc
00001eb0 T __Z17ofGetLogLevelName10ofLogLevel
0003125c S __Z17ofGetLogLevelName10ofLogLevel.eh
00001db0 T __Z18ofSetLoggerChannel5ofPtrI19ofBaseLoggerChannelE
00031238 S __Z18ofSetLoggerChannel5ofPtrI19ofBaseLoggerChannelE.eh
         U __Z20ofGetTimestampStringv
00032518 b __ZGVZL10getModulesvE7modules
00000000 t __ZL11noopDeleterP19ofBaseLoggerChannel
00030c34 s __ZL11noopDeleterP19ofBaseLoggerChannel.eh
0002ed34 d __ZL15currentLogLevel
000019f0 T __ZN10ofLogErrorC1ERKSs
00031118 S __ZN10ofLogErrorC1ERKSs.eh
00001ab0 T __ZN10ofLogErrorC1ERKSsS1_
00031160 S __ZN10ofLogErrorC1ERKSsS1_.eh
00001a50 T __ZN10ofLogErrorC2ERKSs
0003113c S __ZN10ofLogErrorC2ERKSs.eh
00001b40 T __ZN10ofLogErrorC2ERKSsS1_
00031184 S __ZN10ofLogErrorC2ERKSsS1_.eh
0002ef60 S __ZN10ofLogErrorD0Ev
000314e4 S __ZN10ofLogErrorD0Ev.eh
0002ef50 S __ZN10ofLogErrorD1Ev
000314c8 S __ZN10ofLogErrorD1Ev.eh
00001630 T __ZN11ofLogNoticeC1ERKSs
00030ff8 S __ZN11ofLogNoticeC1ERKSs.eh
000016f0 T __ZN11ofLogNoticeC1ERKSsS1_
00031040 S __ZN11ofLogNoticeC1ERKSsS1_.eh
00001690 T __ZN11ofLogNoticeC2ERKSs
0003101c S __ZN11ofLogNoticeC2ERKSs.eh
00001780 T __ZN11ofLogNoticeC2ERKSsS1_
00031064 S __ZN11ofLogNoticeC2ERKSsS1_.eh
0002efe0 S __ZN11ofLogNoticeD0Ev
00031564 S __ZN11ofLogNoticeD0Ev.eh
0002efd0 S __ZN11ofLogNoticeD1Ev
00031548 S __ZN11ofLogNoticeD1Ev.eh
00001450 T __ZN12ofLogVerboseC1ERKSs
00030f68 S __ZN12ofLogVerboseC1ERKSs.eh
00001510 T __ZN12ofLogVerboseC1ERKSsS1_
00030fb0 S __ZN12ofLogVerboseC1ERKSsS1_.eh
000014b0 T __ZN12ofLogVerboseC2ERKSs
00030f8c S __ZN12ofLogVerboseC2ERKSs.eh
000015a0 T __ZN12ofLogVerboseC2ERKSsS1_
00030fd4 S __ZN12ofLogVerboseC2ERKSsS1_.eh
0002f020 S __ZN12ofLogVerboseD0Ev
000315a4 S __ZN12ofLogVerboseD0Ev.eh
0002f010 S __ZN12ofLogVerboseD1Ev
00031588 S __ZN12ofLogVerboseD1Ev.eh
00001810 T __ZN12ofLogWarningC1ERKSs
00031088 S __ZN12ofLogWarningC1ERKSs.eh
000018d0 T __ZN12ofLogWarningC1ERKSsS1_
000310d0 S __ZN12ofLogWarningC1ERKSsS1_.eh
00001870 T __ZN12ofLogWarningC2ERKSs
000310ac S __ZN12ofLogWarningC2ERKSs.eh
00001960 T __ZN12ofLogWarningC2ERKSsS1_
000310f4 S __ZN12ofLogWarningC2ERKSsS1_.eh
0002efa0 S __ZN12ofLogWarningD0Ev
00031524 S __ZN12ofLogWarningD0Ev.eh
0002ef90 S __ZN12ofLogWarningD1Ev
00031508 S __ZN12ofLogWarningD1Ev.eh
00001bd0 T __ZN15ofLogFatalErrorC1ERKSs
000311a8 S __ZN15ofLogFatalErrorC1ERKSs.eh
00001c90 T __ZN15ofLogFatalErrorC1ERKSsS1_
000311f0 S __ZN15ofLogFatalErrorC1ERKSsS1_.eh
00001c30 T __ZN15ofLogFatalErrorC2ERKSs
000311cc S __ZN15ofLogFatalErrorC2ERKSs.eh
00001d20 T __ZN15ofLogFatalErrorC2ERKSsS1_
00031214 S __ZN15ofLogFatalErrorC2ERKSsS1_.eh
0002ef20 S __ZN15ofLogFatalErrorD0Ev
000314a4 S __ZN15ofLogFatalErrorD0Ev.eh
0002ef10 S __ZN15ofLogFatalErrorD1Ev
00031488 S __ZN15ofLogFatalErrorD1Ev.eh
00002940 T __ZN19ofFileLoggerChannel3logE10ofLogLevelRKSsPKcPc
0003142c S __ZN19ofFileLoggerChannel3logE10ofLogLevelRKSsPKcPc.eh
00002900 T __ZN19ofFileLoggerChannel3logE10ofLogLevelRKSsPKcz
00031410 S __ZN19ofFileLoggerChannel3logE10ofLogLevelRKSsPKcz.eh
000027c0 T __ZN19ofFileLoggerChannel3logE10ofLogLevelRKSsS2_
000313ec S __ZN19ofFileLoggerChannel3logE10ofLogLevelRKSsS2_.eh
000027a0 T __ZN19ofFileLoggerChannel5closeEv
000313d0 S __ZN19ofFileLoggerChannel5closeEv.eh
000024d0 T __ZN19ofFileLoggerChannel7setFileERKSsb
00031340 S __ZN19ofFileLoggerChannel7setFileERKSsb.eh
00000360 T __ZN19ofFileLoggerChannelC1ERKSsb
00030d54 S __ZN19ofFileLoggerChannelC1ERKSsb.eh
00002400 T __ZN19ofFileLoggerChannelC1Ev
000312dc S __ZN19ofFileLoggerChannelC1Ev.eh
00002460 T __ZN19ofFileLoggerChannelC2ERKSsb
0003131c S __ZN19ofFileLoggerChannelC2ERKSsb.eh
00002430 T __ZN19ofFileLoggerChannelC2Ev
000312fc S __ZN19ofFileLoggerChannelC2Ev.eh
000026a0 T __ZN19ofFileLoggerChannelD0Ev
00031364 S __ZN19ofFileLoggerChannelD0Ev.eh
00002700 T __ZN19ofFileLoggerChannelD1Ev
00031388 S __ZN19ofFileLoggerChannelD1Ev.eh
00002750 T __ZN19ofFileLoggerChannelD2Ev
000313ac S __ZN19ofFileLoggerChannelD2Ev.eh
000022b0 T __ZN22ofConsoleLoggerChannel3logE10ofLogLevelRKSsPKcPc
000312bc S __ZN22ofConsoleLoggerChannel3logE10ofLogLevelRKSsPKcPc.eh
00002270 T __ZN22ofConsoleLoggerChannel3logE10ofLogLevelRKSsPKcz
000312a0 S __ZN22ofConsoleLoggerChannel3logE10ofLogLevelRKSsPKcz.eh
00002000 T __ZN22ofConsoleLoggerChannel3logE10ofLogLevelRKSsS2_
0003127c S __ZN22ofConsoleLoggerChannel3logE10ofLogLevelRKSsS2_.eh
0002ef00 S __ZN22ofConsoleLoggerChannelD0Ev
0003146c S __ZN22ofConsoleLoggerChannelD0Ev.eh
0002eef0 S __ZN22ofConsoleLoggerChannelD1Ev
00031450 S __ZN22ofConsoleLoggerChannelD1Ev.eh
00032520 S __ZN5ofLog10bAutoSpaceE
000002e0 T __ZN5ofLog10setChannelE5ofPtrI19ofBaseLoggerChannelE
00030d34 S __ZN5ofLog10setChannelE5ofPtrI19ofBaseLoggerChannelE.eh
00001100 T __ZN5ofLog12setAutoSpaceEb
00030ee8 S __ZN5ofLog12setAutoSpaceEb.eh
000009e0 T __ZN5ofLog4_logE10ofLogLevelRKSsS2_
00030e5c S __ZN5ofLog4_logE10ofLogLevelRKSsS2_.eh
00032528 S __ZN5ofLog7channelE
00032524 S __ZN5ofLog7paddingE
00000c60 T __ZN5ofLog8checkLogE10ofLogLevelRKSs
00030ea0 S __ZN5ofLog8checkLogE10ofLogLevelRKSs.eh
000006f0 T __ZN5ofLogC1E10ofLogLevel
00030ddc S __ZN5ofLogC1E10ofLogLevel.eh
00000a30 T __ZN5ofLogC1E10ofLogLevelPKcz
00030e7c S __ZN5ofLogC1E10ofLogLevelPKcz.eh
00000820 T __ZN5ofLogC1E10ofLogLevelRKSs
00030e1c S __ZN5ofLogC1E10ofLogLevelRKSs.eh
000005c0 T __ZN5ofLogC1Ev
00030d9c S __ZN5ofLogC1Ev.eh
00000700 T __ZN5ofLogC2E10ofLogLevel
00030df8 S __ZN5ofLogC2E10ofLogLevel.eh
00000ed0 T __ZN5ofLogC2E10ofLogLevelPKcz
00030ec4 S __ZN5ofLogC2E10ofLogLevelPKcz.eh
00000830 T __ZN5ofLogC2E10ofLogLevelRKSs
00030e38 S __ZN5ofLogC2E10ofLogLevelRKSs.eh
000005d0 T __ZN5ofLogC2Ev
00030db8 S __ZN5ofLogC2Ev.eh
00001160 T __ZN5ofLogD0Ev
00030f04 S __ZN5ofLogD0Ev.eh
00001190 T __ZN5ofLogD1Ev
00030f28 S __ZN5ofLogD1Ev.eh
000011a0 T __ZN5ofLogD2Ev
00030f44 S __ZN5ofLogD2Ev.eh
0002ed40 S __ZN5ofPtrI19ofBaseLoggerChannelED1Ev
00030c50 S __ZN5ofPtrI19ofBaseLoggerChannelED1Ev.eh
         U __ZN6ofFile4openESsNS_4ModeEb
         U __ZN6ofFile5closeEv
         U __ZN6ofFileC1Ev
         U __ZN6ofFileD1Ev
         U __ZNKSs7compareEPKc
         U __ZNKSt15basic_stringbufIcSt11char_traitsIcESaIcEE3strEv
         U __ZNKSt9basic_iosIcSt11char_traitsIcEE5widenEc
         U __ZNSo3putEc
         U __ZNSo5flushEv
         U __ZNSs4_Rep10_M_destroyERKSaIcE
         U __ZNSs4_Rep20_S_empty_rep_storageE
         U __ZNSs6assignEPKcm
         U __ZNSs6assignERKSs
         U __ZNSsC1EPKcRKSaIcE
         U __ZNSsC1ERKSs
         U __ZNSsD1Ev
         U __ZNSt19basic_ostringstreamIcSt11char_traitsIcESaIcEEC1ESt13_Ios_Openmode
0002ed90 S __ZNSt3mapISs10ofLogLevelSt4lessISsESaISt4pairIKSsS0_EEEixERS4_
00030cd0 S __ZNSt3mapISs10ofLogLevelSt4lessISsESaISt4pairIKSsS0_EEEixERS4_.eh
0002f050 S __ZNSt3tr114__shared_countILN9__gnu_cxx12_Lock_policyE2EEC2IP19ofFileLoggerChannelNS_11_Sp_deleterIS5_EEEET_T0_
000315c8 S __ZNSt3tr114__shared_countILN9__gnu_cxx12_Lock_policyE2EEC2IP19ofFileLoggerChannelNS_11_Sp_deleterIS5_EEEET_T0_.eh
0002f110 S __ZNSt3tr116_Sp_counted_baseILN9__gnu_cxx12_Lock_policyE2EE10_M_destroyEv
00031640 S __ZNSt3tr116_Sp_counted_baseILN9__gnu_cxx12_Lock_policyE2EE10_M_destroyEv.eh
0002f0f0 S __ZNSt3tr121_Sp_counted_base_implIP19ofFileLoggerChannelNS_11_Sp_deleterIS1_EELN9__gnu_cxx12_Lock_policyE2EE10_M_disposeEv
00031624 S __ZNSt3tr121_Sp_counted_base_implIP19ofFileLoggerChannelNS_11_Sp_deleterIS1_EELN9__gnu_cxx12_Lock_policyE2EE10_M_disposeEv.eh
0002f130 S __ZNSt3tr121_Sp_counted_base_implIP19ofFileLoggerChannelNS_11_Sp_deleterIS1_EELN9__gnu_cxx12_Lock_policyE2EE14_M_get_deleterERKSt9type_info
0003165c S __ZNSt3tr121_Sp_counted_base_implIP19ofFileLoggerChannelNS_11_Sp_deleterIS1_EELN9__gnu_cxx12_Lock_policyE2EE14_M_get_deleterERKSt9type_info.eh
0002f0e0 S __ZNSt3tr121_Sp_counted_base_implIP19ofFileLoggerChannelNS_11_Sp_deleterIS1_EELN9__gnu_cxx12_Lock_policyE2EED0Ev
00031608 S __ZNSt3tr121_Sp_counted_base_implIP19ofFileLoggerChannelNS_11_Sp_deleterIS1_EELN9__gnu_cxx12_Lock_policyE2EED0Ev.eh
0002f0d0 S __ZNSt3tr121_Sp_counted_base_implIP19ofFileLoggerChannelNS_11_Sp_deleterIS1_EELN9__gnu_cxx12_Lock_policyE2EED1Ev
000315ec S __ZNSt3tr121_Sp_counted_base_implIP19ofFileLoggerChannelNS_11_Sp_deleterIS1_EELN9__gnu_cxx12_Lock_policyE2EED1Ev.eh
0002f720 S __ZNSt3tr121_Sp_counted_base_implIP22ofConsoleLoggerChannelSt25pointer_to_unary_functionIP19ofBaseLoggerChannelvELN9__gnu_cxx12_Lock_policyE2EE10_M_disposeEv
00031714 S __ZNSt3tr121_Sp_counted_base_implIP22ofConsoleLoggerChannelSt25pointer_to_unary_functionIP19ofBaseLoggerChannelvELN9__gnu_cxx12_Lock_policyE2EE10_M_disposeEv.eh
0002f740 S __ZNSt3tr121_Sp_counted_base_implIP22ofConsoleLoggerChannelSt25pointer_to_unary_functionIP19ofBaseLoggerChannelvELN9__gnu_cxx12_Lock_policyE2EE14_M_get_deleterERKSt9type_info
00031730 S __ZNSt3tr121_Sp_counted_base_implIP22ofConsoleLoggerChannelSt25pointer_to_unary_functionIP19ofBaseLoggerChannelvELN9__gnu_cxx12_Lock_policyE2EE14_M_get_deleterERKSt9type_info.eh
0002f710 S __ZNSt3tr121_Sp_counted_base_implIP22ofConsoleLoggerChannelSt25pointer_to_unary_functionIP19ofBaseLoggerChannelvELN9__gnu_cxx12_Lock_policyE2EED0Ev
000316f8 S __ZNSt3tr121_Sp_counted_base_implIP22ofConsoleLoggerChannelSt25pointer_to_unary_functionIP19ofBaseLoggerChannelvELN9__gnu_cxx12_Lock_policyE2EED0Ev.eh
0002f700 S __ZNSt3tr121_Sp_counted_base_implIP22ofConsoleLoggerChannelSt25pointer_to_unary_functionIP19ofBaseLoggerChannelvELN9__gnu_cxx12_Lock_policyE2EED1Ev
000316dc S __ZNSt3tr121_Sp_counted_base_implIP22ofConsoleLoggerChannelSt25pointer_to_unary_functionIP19ofBaseLoggerChannelvELN9__gnu_cxx12_Lock_policyE2EED1Ev.eh
         U __ZNSt6localeD1Ev
0002f690 S __ZNSt8_Rb_treeISsSt4pairIKSs10ofLogLevelESt10_Select1stIS3_ESt4lessISsESaIS3_EE14_M_create_nodeERKS3_
000316b8 S __ZNSt8_Rb_treeISsSt4pairIKSs10ofLogLevelESt10_Select1stIS3_ESt4lessISsESaIS3_EE14_M_create_nodeERKS3_.eh
0002f500 S __ZNSt8_Rb_treeISsSt4pairIKSs10ofLogLevelESt10_Select1stIS3_ESt4lessISsESaIS3_EE16_M_insert_uniqueERKS3_
00031698 S __ZNSt8_Rb_treeISsSt4pairIKSs10ofLogLevelESt10_Select1stIS3_ESt4lessISsESaIS3_EE16_M_insert_uniqueERKS3_.eh
0002f160 S __ZNSt8_Rb_treeISsSt4pairIKSs10ofLogLevelESt10_Select1stIS3_ESt4lessISsESaIS3_EE16_M_insert_uniqueESt17_Rb_tree_iteratorIS3_ERKS3_
00031678 S __ZNSt8_Rb_treeISsSt4pairIKSs10ofLogLevelESt10_Select1stIS3_ESt4lessISsESaIS3_EE16_M_insert_uniqueESt17_Rb_tree_iteratorIS3_ERKS3_.eh
         U __ZNSt8ios_base4InitC1Ev
         U __ZNSt8ios_base4InitD1Ev
         U __ZNSt8ios_baseD2Ev
         U __ZSt16__ostream_insertIcSt11char_traitsIcEERSt13basic_ostreamIT_T0_ES6_PKS3_i
         U __ZSt18_Rb_tree_decrementPSt18_Rb_tree_node_base
         U __ZSt18_Rb_tree_incrementPSt18_Rb_tree_node_base
         U __ZSt29_Rb_tree_insert_and_rebalancebPSt18_Rb_tree_node_baseS0_RS_
         U __ZSt4cerr
         U __ZSt4cout
         U __ZSt9terminatev
00032510 b __ZStL8__ioinit
000308a8 S __ZTI10ofLogError
000308c8 S __ZTI11ofLogNotice
000308d8 S __ZTI12ofLogVerbose
000308b8 S __ZTI12ofLogWarning
00030898 S __ZTI15ofLogFatalError
00030890 S __ZTI19ofBaseLoggerChannel
00030830 S __ZTI19ofFileLoggerChannel
00030820 S __ZTI22ofConsoleLoggerChannel
000307f0 S __ZTI5ofLog
00030910 S __ZTINSt3tr111_Mutex_baseILN9__gnu_cxx12_Lock_policyE2EEE
00030918 S __ZTINSt3tr116_Sp_counted_baseILN9__gnu_cxx12_Lock_policyE2EEE
00030928 S __ZTINSt3tr121_Sp_counted_base_implIP19ofFileLoggerChannelNS_11_Sp_deleterIS1_EELN9__gnu_cxx12_Lock_policyE2EEE
00030960 S __ZTINSt3tr121_Sp_counted_base_implIP22ofConsoleLoggerChannelSt25pointer_to_unary_functionIP19ofBaseLoggerChannelvELN9__gnu_cxx12_Lock_policyE2EEE
000309f2 S __ZTS10ofLogError
00030a0e S __ZTS11ofLogNotice
00030a1c S __ZTS12ofLogVerbose
000309ff S __ZTS12ofLogWarning
000309e0 S __ZTS15ofLogFatalError
000309c0 S __ZTS19ofBaseLoggerChannel
000309a0 S __ZTS19ofFileLoggerChannel
00030980 S __ZTS22ofConsoleLoggerChannel
00030970 S __ZTS5ofLog
00030ae0 S __ZTSNSt3tr111_Mutex_baseILN9__gnu_cxx12_Lock_policyE2EEE
00030b20 S __ZTSNSt3tr111_Sp_deleterI19ofFileLoggerChannelEE
00030aa0 S __ZTSNSt3tr116_Sp_counted_baseILN9__gnu_cxx12_Lock_policyE2EEE
00030a30 S __ZTSNSt3tr121_Sp_counted_base_implIP19ofFileLoggerChannelNS_11_Sp_deleterIS1_EELN9__gnu_cxx12_Lock_policyE2EEE
00030b50 S __ZTSNSt3tr121_Sp_counted_base_implIP22ofConsoleLoggerChannelSt25pointer_to_unary_functionIP19ofBaseLoggerChannelvELN9__gnu_cxx12_Lock_policyE2EEE
00030be0 S __ZTSSt25pointer_to_unary_functionIP19ofBaseLoggerChannelvE
         U __ZTTSt19basic_ostringstreamIcSt11char_traitsIcESaIcEE
00030870 S __ZTV10ofLogError
00030850 S __ZTV11ofLogNotice
00030840 S __ZTV12ofLogVerbose
00030860 S __ZTV12ofLogWarning
00030880 S __ZTV15ofLogFatalError
000307d0 S __ZTV19ofFileLoggerChannel
00030800 S __ZTV22ofConsoleLoggerChannel
000307c0 S __ZTV5ofLog
         U __ZTVN10__cxxabiv117__class_type_infoE
         U __ZTVN10__cxxabiv120__si_class_type_infoE
000308f0 S __ZTVNSt3tr121_Sp_counted_base_implIP19ofFileLoggerChannelNS_11_Sp_deleterIS1_EELN9__gnu_cxx12_Lock_policyE2EEE
00030940 S __ZTVNSt3tr121_Sp_counted_base_implIP22ofConsoleLoggerChannelSt25pointer_to_unary_functionIP19ofBaseLoggerChannelvELN9__gnu_cxx12_Lock_policyE2EEE
         U __ZTVSt15basic_streambufIcSt11char_traitsIcEE
         U __ZTVSt15basic_stringbufIcSt11char_traitsIcESaIcEE
00032514 b __ZZL10getModulesvE7modules
         U __ZdlPv
         U __Znwm
         U ___cxa_atexit
         U ___cxa_begin_catch
         U ___cxa_end_catch
         U ___cxa_guard_abort
         U ___cxa_guard_acquire
         U ___cxa_guard_release
         U ___cxa_rethrow
         U ___dso_handle
         U ___gxx_personality_v0
         U ___stderrp
         U _fprintf
         U _fputc
         U _memcmp
         U _printf
         U _putchar
         U _vfprintf
         U _vprintf

../../../libs/openFrameworksCompiled/lib/osx/openFrameworks.a(ofSystemUtils.o):
         U .objc_class_name_NSAutoreleasePool
0000a1b8 s EH_frame0
0000a1ec s EH_frame1
00009ff4 s GCC_except_table1
0000a014 s GCC_except_table6
0000a05c s GCC_except_table7
         U _AEGetNthPtr
         U _CFRelease
         U _CFStringCreateWithCString
         U _CFStringGetCString
         U _CFURLCopyFileSystemPath
         U _CFURLCreateFromFSRef
         U _CreateStandardAlert
         U _NavCreateChooseFolderDialog
         U _NavCreateGetFileDialog
         U _NavCreatePutFileDialog
         U _NavDialogDispose
         U _NavDialogGetReply
         U _NavDialogGetUserAction
         U _NavDialogRun
         U _NavDisposeReply
         U _NavGetDefaultDialogCreationOptions
         U _RunStandardAlert
0000a100 s __GLOBAL__I_a
0000a2f0 s __GLOBAL__I_a.eh
         U __Unwind_Resume
00000330 T __Z18ofSystemLoadDialogSsb
0000a2a8 S __Z18ofSystemLoadDialogSsb.eh
00000590 T __Z18ofSystemSaveDialogSsSs
0000a2cc S __Z18ofSystemSaveDialogSsSs.eh
000001e0 T __Z19GetOpenFileFromUserb
0000a288 S __Z19GetOpenFileFromUserb.eh
00000120 T __Z19ofSystemAlertDialogSs
0000a268 S __Z19ofSystemAlertDialogSs.eh
         U __ZN10ofFilePath11getFileNameESsb
000000d0 T __ZN18ofFileDialogResult7getNameEv
0000a230 S __ZN18ofFileDialogResult7getNameEv.eh
00000100 T __ZN18ofFileDialogResult7getPathEv
0000a24c S __ZN18ofFileDialogResult7getPathEv.eh
00000000 T __ZN18ofFileDialogResultC1Ev
0000a1d0 S __ZN18ofFileDialogResultC1Ev.eh
00000010 T __ZN18ofFileDialogResultC2Ev
0000a20c S __ZN18ofFileDialogResultC2Ev.eh
         U __ZN5ofLogC1E10ofLogLevelPKcz
         U __ZN5ofLogD1Ev
         U __ZNSs4_Rep10_M_destroyERKSaIcE
         U __ZNSs4_Rep20_S_empty_rep_storageE
         U __ZNSs6appendEPKcm
         U __ZNSs6appendERKSs
         U __ZNSs6assignEPKcm
         U __ZNSs6assignERKSs
         U __ZNSsC1EPKcRKSaIcE
         U __ZNSsC1ERKSs
         U __ZNSt8ios_base4InitC1Ev
         U __ZNSt8ios_base4InitD1Ev
0000a430 b __ZStL8__ioinit
         U ___cxa_atexit
         U ___dso_handle
         U ___gxx_personality_v0
         U ___stack_chk_fail
         U ___stack_chk_guard
         U _kCFAllocatorDefault
         U _objc_msgSend
         U _strlen

../../../libs/openFrameworksCompiled/lib/osx/openFrameworks.a(ofThread.o):
0001a1e4 s EH_frame0
0001a218 s EH_frame1
00019018 s GCC_except_table1
000191c4 s GCC_except_table10
00019210 s GCC_except_table11
00019358 s GCC_except_table12
000195b0 s GCC_except_table13
000196b4 s GCC_except_table14
0001908c s GCC_except_table2
0001983c s GCC_except_table20
000198cc s GCC_except_table21
000199c4 s GCC_except_table24
00019a00 s GCC_except_table25
00019a3c s GCC_except_table26
000190ac s GCC_except_table3
000190f8 s GCC_except_table4
00019118 s GCC_except_table6
00019198 s GCC_except_table7
00019f60 s __GLOBAL__I_a
0001a558 s __GLOBAL__I_a.eh
         U __Unwind_Resume
00019b30 S __Z10ofToStringIiESsRKT_
0001a280 S __Z10ofToStringIiESsRKT_.eh
         U __Z13ofSetLogLevelSs10ofLogLevel
         U __ZN12ofLogVerboseC1ERKSs
         U __ZN12ofLogWarningC1ERKSs
         U __ZN4Poco10ThreadImpl11currentImplEv
         U __ZN4Poco10ThreadImpl9sleepImplEl
         U __ZN4Poco15SystemExceptionC1ERKSsi
         U __ZN4Poco15SystemExceptionD1Ev
         U __ZN4Poco20NullPointerExceptionC1Ei
         U __ZN4Poco20NullPointerExceptionD1Ev
         U __ZN4Poco6Thread4joinEv
         U __ZN4Poco6Thread5startERNS_8RunnableE
         U __ZN4Poco6Thread7setNameERKSs
         U __ZN4Poco6ThreadC1Ev
         U __ZN4Poco6ThreadD1Ev
         U __ZN4Poco8RunnableC2Ev
         U __ZN4Poco8RunnableD2Ev
         U __ZN4Poco9FastMutexC1Ev
         U __ZN4Poco9FastMutexD1Ev
00019cb0 S __ZN4Poco9MutexImpl10unlockImplEv
0001a4ec S __ZN4Poco9MutexImpl10unlockImplEv.eh
00019d90 S __ZN4Poco9MutexImpl11tryLockImplEv
0001a510 S __ZN4Poco9MutexImpl11tryLockImplEv.eh
00019e80 S __ZN4Poco9MutexImpl8lockImplEv
0001a534 S __ZN4Poco9MutexImpl8lockImplEv.eh
         U __ZN5ofLog7paddingE
         U __ZN5ofLogD2Ev
000002c0 T __ZN8ofThread10stopThreadEv
0001a308 S __ZN8ofThread10stopThreadEv.eh
00000360 T __ZN8ofThread11getThreadIdEv
0001a348 S __ZN8ofThread11getThreadIdEv.eh
000003c0 T __ZN8ofThread11startThreadEbb
0001a388 S __ZN8ofThread11startThreadEbb.eh
000013f0 T __ZN8ofThread12isMainThreadEv
0001a488 S __ZN8ofThread12isMainThreadEv.eh
00000370 T __ZN8ofThread13getThreadNameEv
0001a364 S __ZN8ofThread13getThreadNameEv.eh
00000f50 T __ZN8ofThread13waitForThreadEb
0001a3f4 S __ZN8ofThread13waitForThreadEb.eh
000013c0 T __ZN8ofThread15isCurrentThreadEv
0001a450 S __ZN8ofThread15isCurrentThreadEv.eh
00000350 T __ZN8ofThread15isThreadRunningEv
0001a32c S __ZN8ofThread15isThreadRunningEv.eh
000013e0 T __ZN8ofThread16getCurrentThreadEv
0001a46c S __ZN8ofThread16getCurrentThreadEv.eh
00001410 T __ZN8ofThread16threadedFunctionEv
0001a4a4 S __ZN8ofThread16threadedFunctionEv.eh
00001540 T __ZN8ofThread3runEv
0001a4c8 S __ZN8ofThread3runEv.eh
00000700 T __ZN8ofThread4lockEv
0001a3ac S __ZN8ofThread4lockEv.eh
00001390 T __ZN8ofThread5sleepEi
0001a418 S __ZN8ofThread5sleepEi.eh
000013b0 T __ZN8ofThread5yieldEv
0001a434 S __ZN8ofThread5yieldEv.eh
00000cf0 T __ZN8ofThread6unlockEv
0001a3d0 S __ZN8ofThread6unlockEv.eh
00000000 T __ZN8ofThreadC1Ev
0001a1fc S __ZN8ofThreadC1Ev.eh
00000010 T __ZN8ofThreadC2Ev
0001a238 S __ZN8ofThreadC2Ev.eh
000001a0 T __ZN8ofThreadD0Ev
0001a2a4 S __ZN8ofThreadD0Ev.eh
000001d0 T __ZN8ofThreadD1Ev
0001a2c8 S __ZN8ofThreadD1Ev.eh
000001e0 T __ZN8ofThreadD2Ev
0001a2e4 S __ZN8ofThreadD2Ev.eh
         U __ZNKSt15basic_stringbufIcSt11char_traitsIcESaIcEE3strEv
         U __ZNSolsEi
         U __ZNSs4_Rep10_M_destroyERKSaIcE
         U __ZNSs4_Rep20_S_empty_rep_storageE
         U __ZNSs6appendEPKcm
         U __ZNSs6appendERKSs
         U __ZNSs7reserveEm
         U __ZNSsC1EPKcRKSaIcE
         U __ZNSsC1ERKSs
         U __ZNSt19basic_ostringstreamIcSt11char_traitsIcESaIcEEC1ESt13_Ios_Openmode
         U __ZNSt6localeD1Ev
         U __ZNSt8ios_base4InitC1Ev
         U __ZNSt8ios_base4InitD1Ev
         U __ZNSt8ios_baseD2Ev
         U __ZSt16__ostream_insertIcSt11char_traitsIcEERSt13basic_ostreamIT_T0_ES6_PKS3_i
         U __ZSt9terminatev
0001aac7 b __ZStL8__ioinit
00019a80 S __ZStplIcSt11char_traitsIcESaIcEESbIT_T0_T1_EPKS3_RKS6_
0001a25c S __ZStplIcSt11char_traitsIcESaIcEESbIT_T0_T1_EPKS3_RKS6_.eh
00019fc0 S __ZTI8ofThread
         U __ZTIN4Poco15SystemExceptionE
         U __ZTIN4Poco20NullPointerExceptionE
         U __ZTIN4Poco8RunnableE
0001a1d4 S __ZTS8ofThread
         U __ZTTSt19basic_ostringstreamIcSt11char_traitsIcESaIcEE
00019fa0 S __ZTV8ofThread
         U __ZTVN10__cxxabiv121__vmi_class_type_infoE
         U __ZTVSt15basic_streambufIcSt11char_traitsIcEE
         U __ZTVSt15basic_stringbufIcSt11char_traitsIcESaIcEE
         U __ZdlPv
         U ___cxa_allocate_exception
         U ___cxa_atexit
         U ___cxa_free_exception
         U ___cxa_throw
         U ___dso_handle
         U ___gxx_personality_v0
         U _pthread_mutex_lock
         U _pthread_mutex_trylock
         U _pthread_mutex_unlock
         U _sched_yield
         U _strlen

../../../libs/openFrameworksCompiled/lib/osx/openFrameworks.a(ofURLFileLoader.o):
0006b530 s EH_frame0
0006b580 s EH_frame1
00069d08 s GCC_except_table14
00069ee8 s GCC_except_table15
00069f08 s GCC_except_table16
00069f54 s GCC_except_table18
0006a044 s GCC_except_table19
00069874 s GCC_except_table2
0006a0b8 s GCC_except_table20
0006a0e4 s GCC_except_table21
0006a120 s GCC_except_table22
0006a15c s GCC_except_table23
0006a198 s GCC_except_table24
0006a1d4 s GCC_except_table28
0006a1f4 s GCC_except_table29
00069940 s GCC_except_table3
0006a214 s GCC_except_table30
0006a234 s GCC_except_table31
0006a280 s GCC_except_table33
0006a2ac s GCC_except_table36
0006a2e8 s GCC_except_table37
0006a324 s GCC_except_table38
0006a3a8 s GCC_except_table39
000699b0 s GCC_except_table4
0006a3c8 s GCC_except_table40
0006a3e8 s GCC_except_table41
0006a408 s GCC_except_table42
0006a434 s GCC_except_table43
0006a4c8 s GCC_except_table44
0006a510 s GCC_except_table45
0006a558 s GCC_except_table47
0006a584 s GCC_except_table48
0006a5b0 s GCC_except_table49
00069bc4 s GCC_except_table5
0006a6b8 s GCC_except_table50
0006a714 s GCC_except_table51
0006a734 s GCC_except_table52
0006a760 s GCC_except_table53
0006a7bc s GCC_except_table54
0006a824 s GCC_except_table55
00069c18 s GCC_except_table6
0006a850 s GCC_except_table61
0006a8d4 s GCC_except_table62
0006a900 s GCC_except_table63
0006a920 s GCC_except_table64
0006a94c s GCC_except_table65
0006a9a8 s GCC_except_table66
0006aa04 s GCC_except_table67
0006aa50 s GCC_except_table68
0006aa70 s GCC_except_table69
0006aac4 s GCC_except_table70
0006ab20 s GCC_except_table71
0006ab6c s GCC_except_table72
0006ab8c s GCC_except_table73
0006abd0 s GCC_except_table74
0006ac20 s GCC_except_table76
0006ac40 s GCC_except_table77
0006ad64 s GCC_except_table78
0006ad90 s GCC_except_table79
00069c44 s GCC_except_table8
0006adec s GCC_except_table80
0006ae54 s GCC_except_table81
0006aebc s GCC_except_table82
0006af24 s GCC_except_table83
00069cb4 s GCC_except_table9
         U _OSAtomicAdd32
0006af50 s __GLOBAL__I_a
0006c078 s __GLOBAL__I_a.eh
         U __Unwind_Resume
000667e0 S __Z10ofToStringIiESsRKT_
0006b780 S __Z10ofToStringIiESsRKT_.eh
00002fb0 T __Z11ofSaveURLToSsSs
0006b878 S __Z11ofSaveURLToSsSs.eh
         U __Z13ofSleepMillisi
00002e90 T __Z14ofLoadURLAsyncSsSs
0006b854 S __Z14ofLoadURLAsyncSsSs.eh
000030d0 T __Z14ofSaveURLAsyncSsSs
0006b89c S __Z14ofSaveURLAsyncSsSs.eh
000031f0 T __Z18ofRemoveURLRequesti
0006b8c0 S __Z18ofRemoveURLRequesti.eh
00003210 T __Z22ofRemoveAllURLRequestsv
0006b8dc S __Z22ofRemoveAllURLRequestsv.eh
         U __Z8ofEventsv
00002d60 T __Z9ofLoadURLSs
0006b80c S __Z9ofLoadURLSs.eh
0006d0b0 b __ZGVZL13getFileLoadervE10fileLoader
0006d0a9 b __ZL13factoryLoaded.b
00002e10 t __ZL13getFileLoaderv
0006b830 s __ZL13getFileLoaderv.eh
0006d0b8 S __ZN13ofHttpRequest6nextIDE
00069650 S __ZN14ofHttpResponseC2E13ofHttpRequestRK8ofBufferiSs
0006c030 S __ZN14ofHttpResponseC2E13ofHttpRequestRK8ofBufferiSs.eh
00069530 S __ZN14ofHttpResponseC2E13ofHttpRequestiSs
0006c00c S __ZN14ofHttpResponseC2E13ofHttpRequestiSs.eh
00069410 S __ZN14ofHttpResponseC2ERKS_
0006bfe8 S __ZN14ofHttpResponseC2ERKS_.eh
00069770 S __ZN14ofHttpResponseD2Ev
0006c054 S __ZN14ofHttpResponseD2Ev.eh
00000580 T __ZN15ofURLFileLoader13handleRequestE13ofHttpRequest
0006b5e8 S __ZN15ofURLFileLoader13handleRequestE13ofHttpRequest.eh
00001e50 T __ZN15ofURLFileLoader16threadedFunctionEv
0006b738 S __ZN15ofURLFileLoader16threadedFunctionEv.eh
00000210 T __ZN15ofURLFileLoader3getESs
0006b5c4 S __ZN15ofURLFileLoader3getESs.eh
00001e40 T __ZN15ofURLFileLoader4stopEv
0006b71c S __ZN15ofURLFileLoader4stopEv.eh
00001cd0 T __ZN15ofURLFileLoader5clearEv
0006b6fc S __ZN15ofURLFileLoader5clearEv.eh
000014b0 T __ZN15ofURLFileLoader5startEv
0006b654 S __ZN15ofURLFileLoader5startEv.eh
00001b70 T __ZN15ofURLFileLoader6removeEi
0006b6bc S __ZN15ofURLFileLoader6removeEi.eh
00001530 T __ZN15ofURLFileLoader6saveToESsSs
0006b674 S __ZN15ofURLFileLoader6saveToESsSs.eh
00002ab0 T __ZN15ofURLFileLoader6updateER11ofEventArgs
0006b7c4 S __ZN15ofURLFileLoader6updateER11ofEventArgs.eh
000011c0 T __ZN15ofURLFileLoader8getAsyncESsSs
0006b60c S __ZN15ofURLFileLoader8getAsyncESsSs.eh
000018a0 T __ZN15ofURLFileLoader9saveAsyncESsSs
0006b698 S __ZN15ofURLFileLoader9saveAsyncESsSs.eh
00000000 T __ZN15ofURLFileLoaderC1Ev
0006b564 S __ZN15ofURLFileLoaderC1Ev.eh
00000010 T __ZN15ofURLFileLoaderC2Ev
0006b5a0 S __ZN15ofURLFileLoaderC2Ev.eh
00066b10 S __ZN15ofURLFileLoaderD0Ev
0006b914 S __ZN15ofURLFileLoaderD0Ev.eh
00066b00 S __ZN15ofURLFileLoaderD1Ev
0006b8f8 S __ZN15ofURLFileLoaderD1Ev.eh
00069380 S __ZN15ofURLFileLoaderD2Ev
0006bfc4 S __ZN15ofURLFileLoaderD2Ev.eh
00067a90 S __ZN4Poco12FIFOStrategyI14ofHttpResponseNS_16AbstractDelegateIS1_EEED0Ev
0006bc30 S __ZN4Poco12FIFOStrategyI14ofHttpResponseNS_16AbstractDelegateIS1_EEED0Ev.eh
00067050 S __ZN4Poco12FIFOStrategyI14ofHttpResponseNS_16AbstractDelegateIS1_EEED1Ev
0006ba88 S __ZN4Poco12FIFOStrategyI14ofHttpResponseNS_16AbstractDelegateIS1_EEED1Ev.eh
00069180 S __ZN4Poco13AbstractEventI14ofHttpResponseNS_12FIFOStrategyIS1_NS_16AbstractDelegateIS1_EEEES4_NS_9FastMutexEE16executeAsyncImplERKNS7_17NotifyAsyncParamsE
0006bf7c S __ZN4Poco13AbstractEventI14ofHttpResponseNS_12FIFOStrategyIS1_NS_16AbstractDelegateIS1_EEEES4_NS_9FastMutexEE16executeAsyncImplERKNS7_17NotifyAsyncParamsE.eh
00066f00 S __ZN4Poco13AbstractEventI14ofHttpResponseNS_12FIFOStrategyIS1_NS_16AbstractDelegateIS1_EEEES4_NS_9FastMutexEE6notifyEPKvRS1_
0006ba64 S __ZN4Poco13AbstractEventI14ofHttpResponseNS_12FIFOStrategyIS1_NS_16AbstractDelegateIS1_EEEES4_NS_9FastMutexEE6notifyEPKvRS1_.eh
00068f70 S __ZN4Poco13AbstractEventI14ofHttpResponseNS_12FIFOStrategyIS1_NS_16AbstractDelegateIS1_EEEES4_NS_9FastMutexEEC2Ev
0006bef4 S __ZN4Poco13AbstractEventI14ofHttpResponseNS_12FIFOStrategyIS1_NS_16AbstractDelegateIS1_EEEES4_NS_9FastMutexEEC2Ev.eh
00069150 S __ZN4Poco13AbstractEventI14ofHttpResponseNS_12FIFOStrategyIS1_NS_16AbstractDelegateIS1_EEEES4_NS_9FastMutexEED0Ev
0006bf58 S __ZN4Poco13AbstractEventI14ofHttpResponseNS_12FIFOStrategyIS1_NS_16AbstractDelegateIS1_EEEES4_NS_9FastMutexEED0Ev.eh
00069140 S __ZN4Poco13AbstractEventI14ofHttpResponseNS_12FIFOStrategyIS1_NS_16AbstractDelegateIS1_EEEES4_NS_9FastMutexEED1Ev
0006bf3c S __ZN4Poco13AbstractEventI14ofHttpResponseNS_12FIFOStrategyIS1_NS_16AbstractDelegateIS1_EEEES4_NS_9FastMutexEED1Ev.eh
00069060 S __ZN4Poco13AbstractEventI14ofHttpResponseNS_12FIFOStrategyIS1_NS_16AbstractDelegateIS1_EEEES4_NS_9FastMutexEED2Ev
0006bf18 S __ZN4Poco13AbstractEventI14ofHttpResponseNS_12FIFOStrategyIS1_NS_16AbstractDelegateIS1_EEEES4_NS_9FastMutexEED2Ev.eh
         U __ZN4Poco13AtomicCounterC1Ei
         U __ZN4Poco13AtomicCounterD1Ev
00067250 S __ZN4Poco15DefaultStrategyI14ofHttpResponseNS_16AbstractDelegateIS1_EEE3addERKS3_
0006bb18 S __ZN4Poco15DefaultStrategyI14ofHttpResponseNS_16AbstractDelegateIS1_EEE3addERKS3_.eh
000674e0 S __ZN4Poco15DefaultStrategyI14ofHttpResponseNS_16AbstractDelegateIS1_EEE5clearEv
0006bb60 S __ZN4Poco15DefaultStrategyI14ofHttpResponseNS_16AbstractDelegateIS1_EEE5clearEv.eh
000671b0 S __ZN4Poco15DefaultStrategyI14ofHttpResponseNS_16AbstractDelegateIS1_EEE6notifyEPKvRS1_
0006baf4 S __ZN4Poco15DefaultStrategyI14ofHttpResponseNS_16AbstractDelegateIS1_EEE6notifyEPKvRS1_.eh
000673b0 S __ZN4Poco15DefaultStrategyI14ofHttpResponseNS_16AbstractDelegateIS1_EEE6removeERKS3_
0006bb3c S __ZN4Poco15DefaultStrategyI14ofHttpResponseNS_16AbstractDelegateIS1_EEE6removeERKS3_.eh
00067130 S __ZN4Poco15DefaultStrategyI14ofHttpResponseNS_16AbstractDelegateIS1_EEED0Ev
0006bad0 S __ZN4Poco15DefaultStrategyI14ofHttpResponseNS_16AbstractDelegateIS1_EEED0Ev.eh
000670c0 S __ZN4Poco15DefaultStrategyI14ofHttpResponseNS_16AbstractDelegateIS1_EEED1Ev
0006baac S __ZN4Poco15DefaultStrategyI14ofHttpResponseNS_16AbstractDelegateIS1_EEED1Ev.eh
         U __ZN4Poco15SystemExceptionC1ERKS0_
         U __ZN4Poco15SystemExceptionC1ERKSsi
         U __ZN4Poco15SystemExceptionD1Ev
         U __ZN4Poco20NullPointerExceptionC1Ei
         U __ZN4Poco20NullPointerExceptionD1Ev
         U __ZN4Poco3Net11HTTPMessage8HTTP_1_1E
         U __ZN4Poco3Net11HTTPRequest8HTTP_GETE
         U __ZN4Poco3Net11HTTPRequestC1ERKSsS3_S3_
         U __ZN4Poco3Net11HTTPRequestD1Ev
         U __ZN4Poco3Net11HTTPSession10setTimeoutERKNS_8TimespanE
         U __ZN4Poco3Net12HTTPResponseC1Ev
         U __ZN4Poco3Net12HTTPResponseD1Ev
         U __ZN4Poco3Net17HTTPClientSession11sendRequestERNS0_11HTTPRequestE
         U __ZN4Poco3Net17HTTPClientSession15receiveResponseERNS0_12HTTPResponseE
         U __ZN4Poco3Net17HTTPClientSessionC1ERKSst
         U __ZN4Poco3Net17HTTPClientSessionD1Ev
         U __ZN4Poco3Net17HTTPStreamFactory15registerFactoryEv
         U __ZN4Poco3URIC1ERKSs
         U __ZN4Poco3URID1Ev
         U __ZN4Poco5EventC1Eb
         U __ZN4Poco5EventD1Ev
         U __ZN4Poco5MutexC1Ev
         U __ZN4Poco5MutexD1Ev
         U __ZN4Poco8Bugcheck11nullPointerEPKcS2_i
00066bd0 S __ZN4Poco8DelegateI15ofURLFileLoader11ofEventArgsLb0EE6notifyEPKvRS2_
0006b97c S __ZN4Poco8DelegateI15ofURLFileLoader11ofEventArgsLb0EE6notifyEPKvRS2_.eh
00066d00 S __ZN4Poco8DelegateI15ofURLFileLoader11ofEventArgsLb0EE7disableEv
0006b9e0 S __ZN4Poco8DelegateI15ofURLFileLoader11ofEventArgsLb0EE7disableEv.eh
00066b80 S __ZN4Poco8DelegateI15ofURLFileLoader11ofEventArgsLb0EED0Ev
0006b958 S __ZN4Poco8DelegateI15ofURLFileLoader11ofEventArgsLb0EED0Ev.eh
00066b40 S __ZN4Poco8DelegateI15ofURLFileLoader11ofEventArgsLb0EED1Ev
0006b938 S __ZN4Poco8DelegateI15ofURLFileLoader11ofEventArgsLb0EED1Ev.eh
         U __ZN4Poco8TimespanC1Ell
         U __ZN4Poco8TimespanD1Ev
00066a60 S __ZN4Poco9Condition4waitINS_9FastMutexEEEvRT_
0006b7e8 S __ZN4Poco9Condition4waitINS_9FastMutexEEEvRT_.eh
         U __ZN4Poco9Condition6signalEv
         U __ZN4Poco9Condition7enqueueERNS_5EventE
         U __ZN4Poco9ConditionC1Ev
         U __ZN4Poco9ConditionD1Ev
         U __ZN4Poco9EventImpl8waitImplEv
         U __ZN4Poco9FastMutexC1Ev
         U __ZN4Poco9FastMutexD1Ev
00066d40 S __ZN4Poco9MutexImpl10unlockImplEv
0006ba1c S __ZN4Poco9MutexImpl10unlockImplEv.eh
00066e20 S __ZN4Poco9MutexImpl8lockImplEv
0006ba40 S __ZN4Poco9MutexImpl8lockImplEv.eh
00069310 S __ZN4Poco9SharedPtrINS_12FIFOStrategyI14ofHttpResponseNS_16AbstractDelegateIS2_EEEENS_16ReferenceCounterENS_13ReleasePolicyIS5_EEE7releaseEv
0006bfa0 S __ZN4Poco9SharedPtrINS_12FIFOStrategyI14ofHttpResponseNS_16AbstractDelegateIS2_EEEENS_16ReferenceCounterENS_13ReleasePolicyIS5_EEE7releaseEv.eh
00067640 S __ZN4Poco9SharedPtrINS_16AbstractDelegateI14ofHttpResponseEENS_16ReferenceCounterENS_13ReleasePolicyIS3_EEE6assignERKS7_
0006bbc4 S __ZN4Poco9SharedPtrINS_16AbstractDelegateI14ofHttpResponseEENS_16ReferenceCounterENS_13ReleasePolicyIS3_EEE6assignERKS7_.eh
000675d0 S __ZN4Poco9SharedPtrINS_16AbstractDelegateI14ofHttpResponseEENS_16ReferenceCounterENS_13ReleasePolicyIS3_EEE7releaseEv
0006bba0 S __ZN4Poco9SharedPtrINS_16AbstractDelegateI14ofHttpResponseEENS_16ReferenceCounterENS_13ReleasePolicyIS3_EEE7releaseEv.eh
         U __ZN5ofLogC1E10ofLogLevelPKcz
         U __ZN5ofLogC1E10ofLogLevelRKSs
         U __ZN5ofLogD1Ev
         U __ZN6ofFileC1ESsNS_4ModeEb
         U __ZN6ofFileD1Ev
00068f40 S __ZN7ofEventI14ofHttpResponseED0Ev
0006bed0 S __ZN7ofEventI14ofHttpResponseED0Ev.eh
00066400 S __ZN7ofEventI14ofHttpResponseED1Ev
0006b548 S __ZN7ofEventI14ofHttpResponseED1Ev.eh
         U __ZN8ofBufferC1ERKS_
         U __ZN8ofBufferC1ERSi
         U __ZN8ofBufferC1Ev
         U __ZN8ofBufferD1Ev
         U __ZN8ofThread10stopThreadEv
         U __ZN8ofThread11startThreadEbb
         U __ZN8ofThread15isThreadRunningEv
         U __ZN8ofThread3runEv
         U __ZN8ofThread4lockEv
         U __ZN8ofThread6unlockEv
         U __ZN8ofThreadC2Ev
         U __ZN8ofThreadD2Ev
000675b0 S __ZNK4Poco15DefaultStrategyI14ofHttpResponseNS_16AbstractDelegateIS1_EEE5emptyEv
0006bb84 S __ZNK4Poco15DefaultStrategyI14ofHttpResponseNS_16AbstractDelegateIS1_EEE5emptyEv.eh
00066d30 S __ZNK4Poco16AbstractDelegateI11ofEventArgsE6unwrapEv
0006ba00 S __ZNK4Poco16AbstractDelegateI11ofEventArgsE6unwrapEv.eh
         U __ZNK4Poco3URI15getPathAndQueryEv
         U __ZNK4Poco3URI7getPortEv
00066c90 S __ZNK4Poco8DelegateI15ofURLFileLoader11ofEventArgsLb0EE5cloneEv
0006b9bc S __ZNK4Poco8DelegateI15ofURLFileLoader11ofEventArgsLb0EE5cloneEv.eh
00066c40 S __ZNK4Poco8DelegateI15ofURLFileLoader11ofEventArgsLb0EE6equalsERKNS_16AbstractDelegateIS2_EE
0006b9a0 S __ZNK4Poco8DelegateI15ofURLFileLoader11ofEventArgsLb0EE6equalsERKNS_16AbstractDelegateIS2_EE.eh
         U __ZNK4Poco9Exception11displayTextEv
         U __ZNKSs7compareEPKc
         U __ZNKSt15basic_stringbufIcSt11char_traitsIcESaIcEE3strEv
         U __ZNSi4readEPci
         U __ZNSo5writeEPKci
         U __ZNSolsEi
         U __ZNSs4_Rep10_M_destroyERKSaIcE
         U __ZNSs4_Rep20_S_empty_rep_storageE
         U __ZNSs6appendEPKcm
         U __ZNSs6appendERKSs
         U __ZNSs6assignEPKcm
         U __ZNSs6assignERKSs
         U __ZNSs7reserveEm
         U __ZNSsC1EPKcRKSaIcE
         U __ZNSsC1ERKSs
00068eb0 S __ZNSt11_Deque_baseI13ofHttpRequestSaIS0_EE15_M_create_nodesEPPS0_S4_
0006beac S __ZNSt11_Deque_baseI13ofHttpRequestSaIS0_EE15_M_create_nodesEPPS0_S4_.eh
00068db0 S __ZNSt11_Deque_baseI13ofHttpRequestSaIS0_EE17_M_initialize_mapEm
0006be88 S __ZNSt11_Deque_baseI13ofHttpRequestSaIS0_EE17_M_initialize_mapEm.eh
00068b50 S __ZNSt11_Deque_baseI14ofHttpResponseSaIS0_EE15_M_create_nodesEPPS0_S4_
0006be1c S __ZNSt11_Deque_baseI14ofHttpResponseSaIS0_EE15_M_create_nodesEPPS0_S4_.eh
00068a30 S __ZNSt11_Deque_baseI14ofHttpResponseSaIS0_EE17_M_initialize_mapEm
0006bdf8 S __ZNSt11_Deque_baseI14ofHttpResponseSaIS0_EE17_M_initialize_mapEm.eh
         U __ZNSt19basic_ostringstreamIcSt11char_traitsIcESaIcEEC1ESt13_Ios_Openmode
000682f0 S __ZNSt5dequeI13ofHttpRequestSaIS0_EE16_M_push_back_auxERKS0_
0006bd44 S __ZNSt5dequeI13ofHttpRequestSaIS0_EE16_M_push_back_auxERKS0_.eh
00068520 S __ZNSt5dequeI13ofHttpRequestSaIS0_EE17_M_reallocate_mapEmb
0006bd68 S __ZNSt5dequeI13ofHttpRequestSaIS0_EE17_M_reallocate_mapEmb.eh
00067e90 S __ZNSt5dequeI13ofHttpRequestSaIS0_EE19_M_destroy_data_auxESt15_Deque_iteratorIS0_RS0_PS0_ES6_
0006bce4 S __ZNSt5dequeI13ofHttpRequestSaIS0_EE19_M_destroy_data_auxESt15_Deque_iteratorIS0_RS0_PS0_ES6_.eh
000664c0 S __ZNSt5dequeI13ofHttpRequestSaIS0_EE5eraseESt15_Deque_iteratorIS0_RS0_PS0_E
0006b6dc S __ZNSt5dequeI13ofHttpRequestSaIS0_EE5eraseESt15_Deque_iteratorIS0_RS0_PS0_E.eh
000680d0 S __ZNSt5dequeI13ofHttpRequestSaIS0_EE8pop_backEv
0006bd04 S __ZNSt5dequeI13ofHttpRequestSaIS0_EE8pop_backEv.eh
00066960 S __ZNSt5dequeI13ofHttpRequestSaIS0_EE9pop_frontEv
0006b7a4 S __ZNSt5dequeI13ofHttpRequestSaIS0_EE9pop_frontEv.eh
00066410 S __ZNSt5dequeI13ofHttpRequestSaIS0_EE9push_backERKS0_
0006b630 S __ZNSt5dequeI13ofHttpRequestSaIS0_EE9push_backERKS0_.eh
00068660 S __ZNSt5dequeI13ofHttpRequestSaIS0_EED2Ev
0006bd8c S __ZNSt5dequeI13ofHttpRequestSaIS0_EED2Ev.eh
00067c70 S __ZNSt5dequeI14ofHttpResponseSaIS0_EE16_M_push_back_auxERKS0_
0006bc9c S __ZNSt5dequeI14ofHttpResponseSaIS0_EE16_M_push_back_auxERKS0_.eh
00067d50 S __ZNSt5dequeI14ofHttpResponseSaIS0_EE17_M_reallocate_mapEmb
0006bcc0 S __ZNSt5dequeI14ofHttpResponseSaIS0_EE17_M_reallocate_mapEmb.eh
00068cd0 S __ZNSt5dequeI14ofHttpResponseSaIS0_EE19_M_destroy_data_auxESt15_Deque_iteratorIS0_RS0_PS0_ES6_
0006be64 S __ZNSt5dequeI14ofHttpResponseSaIS0_EE19_M_destroy_data_auxESt15_Deque_iteratorIS0_RS0_PS0_ES6_.eh
00068750 S __ZNSt5dequeI14ofHttpResponseSaIS0_EEC2ERKS2_
0006bdb0 S __ZNSt5dequeI14ofHttpResponseSaIS0_EEC2ERKS2_.eh
00068be0 S __ZNSt5dequeI14ofHttpResponseSaIS0_EED2Ev
0006be40 S __ZNSt5dequeI14ofHttpResponseSaIS0_EED2Ev.eh
000681e0 S __ZNSt6__copyILb0ESt26random_access_iterator_tagE4copyISt15_Deque_iteratorI13ofHttpRequestRS4_PS4_ES7_EET0_T_S9_S8_
0006bd24 S __ZNSt6__copyILb0ESt26random_access_iterator_tagE4copyISt15_Deque_iteratorI13ofHttpRequestRS4_PS4_ES7_EET0_T_S9_S8_.eh
         U __ZNSt6localeD1Ev
000676d0 S __ZNSt6vectorIN4Poco9SharedPtrINS0_16AbstractDelegateI14ofHttpResponseEENS0_16ReferenceCounterENS0_13ReleasePolicyIS4_EEEESaIS8_EE13_M_insert_auxEN9__gnu_cxx17__normal_iteratorIPS8_SA_EERKS8_
0006bbe8 S __ZNSt6vectorIN4Poco9SharedPtrINS0_16AbstractDelegateI14ofHttpResponseEENS0_16ReferenceCounterENS0_13ReleasePolicyIS4_EEEESaIS8_EE13_M_insert_auxEN9__gnu_cxx17__normal_iteratorIPS8_SA_EERKS8_.eh
00067b10 S __ZNSt6vectorIN4Poco9SharedPtrINS0_16AbstractDelegateI14ofHttpResponseEENS0_16ReferenceCounterENS0_13ReleasePolicyIS4_EEEESaIS8_EEC2ERKSA_
0006bc54 S __ZNSt6vectorIN4Poco9SharedPtrINS0_16AbstractDelegateI14ofHttpResponseEENS0_16ReferenceCounterENS0_13ReleasePolicyIS4_EEEESaIS8_EEC2ERKSA_.eh
         U __ZNSt8ios_base4InitC1Ev
         U __ZNSt8ios_base4InitD1Ev
         U __ZNSt8ios_baseD2Ev
         U __ZSt17__throw_bad_allocv
         U __ZSt20__throw_length_errorPKc
00067bc0 S __ZSt24__uninitialized_copy_auxIN9__gnu_cxx17__normal_iteratorIPKN4Poco9SharedPtrINS2_16AbstractDelegateI14ofHttpResponseEENS2_16ReferenceCounterENS2_13ReleasePolicyIS6_EEEESt6vectorISA_SaISA_EEEEPSA_ET0_T_SJ_SI_St12__false_type
0006bc78 S __ZSt24__uninitialized_copy_auxIN9__gnu_cxx17__normal_iteratorIPKN4Poco9SharedPtrINS2_16AbstractDelegateI14ofHttpResponseEENS2_16ReferenceCounterENS2_13ReleasePolicyIS6_EEEESt6vectorISA_SaISA_EEEEPSA_ET0_T_SJ_SI_St12__false_type.eh
000679e0 S __ZSt24__uninitialized_copy_auxIPN4Poco9SharedPtrINS0_16AbstractDelegateI14ofHttpResponseEENS0_16ReferenceCounterENS0_13ReleasePolicyIS4_EEEES9_ET0_T_SB_SA_St12__false_type
0006bc0c S __ZSt24__uninitialized_copy_auxIPN4Poco9SharedPtrINS0_16AbstractDelegateI14ofHttpResponseEENS0_16ReferenceCounterENS0_13ReleasePolicyIS4_EEEES9_ET0_T_SB_SA_St12__false_type.eh
00068910 S __ZSt24__uninitialized_copy_auxISt15_Deque_iteratorI14ofHttpResponseRKS1_PS2_ES0_IS1_RS1_PS1_EET0_T_SA_S9_St12__false_type
0006bdd4 S __ZSt24__uninitialized_copy_auxISt15_Deque_iteratorI14ofHttpResponseRKS1_PS2_ES0_IS1_RS1_PS1_EET0_T_SA_S9_St12__false_type.eh
         U __ZSt9terminatev
0006d0a8 b __ZStL8__ioinit
00066730 S __ZStplIcSt11char_traitsIcESaIcEESbIT_T0_T1_EPKS3_RKS6_
0006b75c S __ZStplIcSt11char_traitsIcESaIcEESbIT_T0_T1_EPKS3_RKS6_.eh
0006afe8 S __ZTI15ofURLFileLoader
0006b2e0 S __ZTI7ofEventI14ofHttpResponseE
         U __ZTI8ofThread
0006b2a8 S __ZTIN4Poco12FIFOStrategyI14ofHttpResponseNS_16AbstractDelegateIS1_EEEE
0006b2c8 S __ZTIN4Poco13AbstractEventI14ofHttpResponseNS_12FIFOStrategyIS1_NS_16AbstractDelegateIS1_EEEES4_NS_9FastMutexEEE
0006b270 S __ZTIN4Poco15DefaultStrategyI14ofHttpResponseNS_16AbstractDelegateIS1_EEEE
         U __ZTIN4Poco15SystemExceptionE
0006b228 S __ZTIN4Poco16AbstractDelegateI11ofEventArgsEE
0006b268 S __ZTIN4Poco20NotificationStrategyI14ofHttpResponseNS_16AbstractDelegateIS1_EEEE
         U __ZTIN4Poco20NullPointerExceptionE
0006b230 S __ZTIN4Poco8DelegateI15ofURLFileLoader11ofEventArgsLb0EEE
         U __ZTIN4Poco9ExceptionE
0006b2d0 S __ZTIN4Poco9FIFOEventI14ofHttpResponseNS_9FastMutexEEE
0006b1e0 S __ZTS15ofURLFileLoader
0006b460 S __ZTS7ofEventI14ofHttpResponseE
0006b410 S __ZTSN4Poco12FIFOStrategyI14ofHttpResponseNS_16AbstractDelegateIS1_EEEE
0006b4c0 S __ZTSN4Poco13AbstractEventI14ofHttpResponseNS_12FIFOStrategyIS1_NS_16AbstractDelegateIS1_EEEES4_NS_9FastMutexEEE
0006b370 S __ZTSN4Poco15DefaultStrategyI14ofHttpResponseNS_16AbstractDelegateIS1_EEEE
0006b340 S __ZTSN4Poco16AbstractDelegateI11ofEventArgsEE
0006b3c0 S __ZTSN4Poco20NotificationStrategyI14ofHttpResponseNS_16AbstractDelegateIS1_EEEE
0006b300 S __ZTSN4Poco8DelegateI15ofURLFileLoader11ofEventArgsLb0EEE
0006b480 S __ZTSN4Poco9FIFOEventI14ofHttpResponseNS_9FastMutexEEE
         U __ZTTSt19basic_ostringstreamIcSt11char_traitsIcESaIcEE
0006afd0 S __ZTV15ofURLFileLoader
0006b2b4 S __ZTV7ofEventI14ofHttpResponseE
         U __ZTVN10__cxxabiv117__class_type_infoE
         U __ZTVN10__cxxabiv120__si_class_type_infoE
0006b280 S __ZTVN4Poco12FIFOStrategyI14ofHttpResponseNS_16AbstractDelegateIS1_EEEE
0006b2ec S __ZTVN4Poco13AbstractEventI14ofHttpResponseNS_12FIFOStrategyIS1_NS_16AbstractDelegateIS1_EEEES4_NS_9FastMutexEEE
0006b240 S __ZTVN4Poco15DefaultStrategyI14ofHttpResponseNS_16AbstractDelegateIS1_EEEE
0006b200 S __ZTVN4Poco8DelegateI15ofURLFileLoader11ofEventArgsLb0EEE
         U __ZTVSt15basic_streambufIcSt11char_traitsIcEE
         U __ZTVSt15basic_stringbufIcSt11char_traitsIcESaIcEE
0006d0ac b __ZZL13getFileLoadervE10fileLoader
         U __ZdlPv
         U __Znwm
         U ___cxa_allocate_exception
         U ___cxa_atexit
         U ___cxa_begin_catch
         U ___cxa_end_catch
         U ___cxa_free_exception
         U ___cxa_get_exception_ptr
         U ___cxa_guard_abort
         U ___cxa_guard_acquire
         U ___cxa_guard_release
         U ___cxa_rethrow
         U ___cxa_throw
         U ___dso_handle
         U ___gxx_personality_v0
         U ___stack_chk_fail
         U ___stack_chk_guard
         U _memmove
0006d0bc S _ofURLResponseEvent
         U _pthread_mutex_lock
         U _pthread_mutex_unlock
         U _strlen

../../../libs/openFrameworksCompiled/lib/osx/openFrameworks.a(ofUtils.o):
00038f24 s EH_frame0
00039000 s EH_frame1
000372b0 s GCC_except_table19
00037360 s GCC_except_table20
000373a8 s GCC_except_table21
000373e4 s GCC_except_table22
000374d8 s GCC_except_table23
000374f8 s GCC_except_table24
00037554 s GCC_except_table26
00037580 s GCC_except_table27
000375cc s GCC_except_table29
00037618 s GCC_except_table30
00037664 s GCC_except_table31
000376b0 s GCC_except_table32
0003774c s GCC_except_table35
00037798 s GCC_except_table36
00037834 s GCC_except_table37
00037860 s GCC_except_table38
000378ac s GCC_except_table39
00037908 s GCC_except_table40
00037944 s GCC_except_table41
00037970 s GCC_except_table45
000379f0 s GCC_except_table46
00037a80 s GCC_except_table49
00037ae0 s GCC_except_table52
00037b1c s GCC_except_table53
00037b58 s GCC_except_table54
00037ba0 s GCC_except_table55
00037bcc s GCC_except_table56
00037c14 s GCC_except_table57
00037c60 s GCC_except_table58
00037cbc s GCC_except_table59
00037d30 s GCC_except_table60
00037da0 s GCC_except_table61
00037dec s GCC_except_table62
00037e60 s GCC_except_table65
00037f0c s GCC_except_table66
00037208 s GCC_except_table7
00037264 s GCC_except_table9
00038d40 s __GLOBAL__I_a
00039768 s __GLOBAL__I_a.eh
         U __NSGetExecutablePath
         U __Unwind_Resume
00000420 T __Z10ofGetHoursv
000390a0 S __Z10ofGetHoursv.eh
00000480 T __Z10ofGetMonthv
000390d8 S __Z10ofGetMonthv.eh
         U __Z10ofGetWidthv
00001880 T __Z10ofHexToIntRKSs
00039284 S __Z10ofHexToIntRKSs.eh
00002bb0 T __Z10ofToBinaryISsESsRKT_
000393a4 S __Z10ofToBinaryISsESsRKT_.eh
00002dc0 T __Z10ofToBinaryPKc
000393ec S __Z10ofToBinaryPKc.eh
00038760 S __Z10ofToStringIiESsRKT_
0003969c S __Z10ofToStringIiESsRKT_.eh
         U __Z11ofGetHeightv
00001a50 T __Z11ofHexToCharRKSs
000392a8 S __Z11ofHexToCharRKSs.eh
00003f40 T __Z11ofSaveFrameb
00039678 S __Z11ofSaveFrameb.eh
000003f0 T __Z12ofGetMinutesv
00039084 S __Z12ofGetMinutesv.eh
000003c0 T __Z12ofGetSecondsv
00039068 S __Z12ofGetSecondsv.eh
000004e0 T __Z12ofGetWeekdayv
00039110 S __Z12ofGetWeekdayv.eh
00001c20 T __Z12ofHexToFloatRKSs
000392cc S __Z12ofHexToFloatRKSs.eh
00003370 T __Z12ofJoinStringSt6vectorISsSaISsEERKSs
000394f8 S __Z12ofJoinStringSt6vectorISsSaISsEERKSs.eh
00003ca0 T __Z12ofSaveScreenSs
00039630 S __Z12ofSaveScreenSs.eh
00000d60 T __Z12ofToDataPathSsb
000391d0 S __Z12ofToDataPathSsb.eh
00002e70 T __Z13ofBinaryToIntRKSs
00039410 S __Z13ofBinaryToIntRKSs.eh
000001b0 T __Z13ofGetUnixTimev
00038fe4 S __Z13ofGetUnixTimev.eh
00001e00 T __Z13ofHexToStringRKSs
000392f0 S __Z13ofHexToStringRKSs.eh
00000a40 T __Z13ofSplitStringRKSsS0_bb
00039188 S __Z13ofSplitStringRKSsS0_bb.eh
00002ef0 T __Z14ofBinaryToCharRKSs
00039430 S __Z14ofBinaryToCharRKSs.eh
00003dd0 T __Z14ofSaveViewportSs
00039654 S __Z14ofSaveViewportSs.eh
00002f70 T __Z15ofBinaryToFloatRKSs
00039450 S __Z15ofBinaryToFloatRKSs.eh
00000000 T __Z15ofGetSystemTimev
00038f3c S __Z15ofGetSystemTimev.eh
00003910 T __Z15ofLaunchBrowserSs
000395e8 S __Z15ofLaunchBrowserSs.eh
00003500 T __Z15ofStringReplaceRSsSsSs
0003951c S __Z15ofStringReplaceRSsSsSs.eh
00003000 T __Z16ofBinaryToStringRKSs
00039470 S __Z16ofBinaryToStringRKSs.eh
00000510 T __Z16ofEnableDataPathv
0003912c S __Z16ofEnableDataPathv.eh
00003a80 T __Z16ofGetVersionInfov
0003960c S __Z16ofGetVersionInfov.eh
00003830 T __Z16ofVAArgsToStringPKcPc
000395c4 S __Z16ofVAArgsToStringPKcPc.eh
00003720 T __Z16ofVAArgsToStringPKcz
000395a0 S __Z16ofVAArgsToStringPKcz.eh
00000530 T __Z17ofDisableDataPathv
00039148 S __Z17ofDisableDataPathv.eh
00000100 T __Z17ofGetElapsedTimefv
00038fac S __Z17ofGetElapsedTimefv.eh
00000550 T __Z17ofSetDataPathRootSs
00039164 S __Z17ofSetDataPathRootSs.eh
00003590 T __Z18ofIsStringInStringSsSs
0003953c S __Z18ofIsStringInStringSsSs.eh
00004380 T __Z19ofGetTargetPlatformv
000396e4 S __Z19ofGetTargetPlatformv.eh
         U __Z20ofGetCurrentViewportv
00000310 T __Z20ofGetTimestampStringSs
00039044 S __Z20ofGetTimestampStringSs.eh
000001d0 T __Z20ofGetTimestampStringv
00039020 S __Z20ofGetTimestampStringv.eh
00000040 T __Z21ofGetSystemTimeMicrosv
00038f58 S __Z21ofGetSystemTimeMicrosv.eh
000000c0 T __Z22ofGetElapsedTimeMicrosv
00038f90 S __Z22ofGetElapsedTimeMicrosv.eh
00000070 T __Z22ofGetElapsedTimeMillisv
00038f74 S __Z22ofGetElapsedTimeMillisv.eh
00000160 T __Z25ofResetElapsedTimeCounterv
00038fc8 S __Z25ofResetElapsedTimeCounterv.eh
00001400 T __Z7ofToHexISsESsRKT_
00039218 S __Z7ofToHexISsESsRKT_.eh
00001620 T __Z7ofToHexPKc
0003923c S __Z7ofToHexPKc.eh
000016d0 T __Z7ofToIntRKSs
00039260 S __Z7ofToIntRKSs.eh
000004b0 T __Z8ofGetDayv
000390f4 S __Z8ofGetDayv.eh
00004170 T __Z8ofSystemSs
000396c0 S __Z8ofSystemSs.eh
00002660 T __Z8ofToBoolRKSs
00039338 S __Z8ofToBoolRKSs.eh
00002a00 T __Z8ofToCharRKSs
00039380 S __Z8ofToCharRKSs.eh
00000450 T __Z9ofGetYearv
000390bc S __Z9ofGetYearv.eh
00002490 T __Z9ofToFloatRKSs
00039314 S __Z9ofToFloatRKSs.eh
000035c0 T __Z9ofToLowerRKSs
00039558 S __Z9ofToLowerRKSs.eh
00003670 T __Z9ofToUpperRKSs
0003957c S __Z9ofToUpperRKSs.eh
0003a878 b __ZGVZ8ofToBoolRKSsE10trueString
0003a888 b __ZGVZ8ofToBoolRKSsE11falseString
0003cfb8 b __ZGVZL12dataPathRootvE12dataPathRoot
0003cfa8 b __ZGVZL13isDataPathSetvE11dataPathSet
00038f18 S __ZGVZStrsIcSt11char_traitsIcELm8EERSt13basic_istreamIT_T0_ES6_RSt6bitsetIXT1_EEE5__eof
00000cd0 t __ZL12dataPathRootv
000391ac s __ZL12dataPathRootv.eh
0003a869 b __ZL14enableDataPath.b
0003a870 b __ZL15startTimeMicros
0003a86c b __ZL9startTime
         U __ZN10ofLogErrorC1ERKSs
         U __ZN11ofRectangleD1Ev
00038680 S __ZN4Poco11trimInPlaceISsEERT_S2_
000394d8 S __ZN4Poco11trimInPlaceISsEERT_S2_.eh
         U __ZN4Poco13LocalDateTimeC1Ev
         U __ZN4Poco13LocalDateTimeD1Ev
         U __ZN4Poco17DateTimeFormatter6appendERSsRKNS_8DateTimeERKSsi
         U __ZN4Poco5Ascii20CHARACTER_PROPERTIESE
00038010 S __ZN4Poco7toLowerISsEET_RKS1_
0003935c S __ZN4Poco7toLowerISsEET_RKS1_.eh
         U __ZN5ofLog7paddingE
         U __ZN5ofLogC1E10ofLogLevelPKcz
         U __ZN5ofLogD1Ev
         U __ZN5ofLogD2Ev
         U __ZN8ofImage_IhE10grabScreenEiiii
         U __ZN8ofImage_IhE8allocateEii11ofImageType
         U __ZN8ofImage_IhE9saveImageESs18ofImageQualityType
         U __ZN8ofImage_IhEC1Ev
         U __ZN8ofImage_IhED1Ev
         U __ZNKSs4findEPKcmm
         U __ZNKSs7compareEPKc
         U __ZNKSt15basic_stringbufIcSt11char_traitsIcESaIcEE3strEv
         U __ZNKSt9basic_iosIcSt11char_traitsIcEE5widenEc
         U __ZNSi10_M_extractIbEERSiRT_
         U __ZNSi10_M_extractIfEERSiRT_
         U __ZNSi6sentryC1ERSib
         U __ZNSirsERi
         U __ZNSo3putEc
         U __ZNSo5flushEv
         U __ZNSo9_M_insertImEERSoT_
         U __ZNSolsEi
         U __ZNSs12_M_leak_hardEv
         U __ZNSs14_M_replace_auxEmmmc
         U __ZNSs4_Rep10_M_destroyERKSaIcE
         U __ZNSs4_Rep11_S_terminalE
         U __ZNSs4_Rep20_S_empty_rep_storageE
         U __ZNSs4_Rep9_S_createEmmRKSaIcE
         U __ZNSs6appendEPKcm
         U __ZNSs6appendERKSs
         U __ZNSs6assignEPKcm
         U __ZNSs6assignERKSs
         U __ZNSs6resizeEmc
         U __ZNSs7replaceEmmPKcm
         U __ZNSs7reserveEm
         U __ZNSs9_M_mutateEmmm
         U __ZNSsC1EPKcRKSaIcE
         U __ZNSsC1ERKSs
         U __ZNSsC1ERKSsmm
         U __ZNSsD1Ev
         U __ZNSt18basic_stringstreamIcSt11char_traitsIcESaIcEEC1ERKSsSt13_Ios_Openmode
         U __ZNSt18basic_stringstreamIcSt11char_traitsIcESaIcEEC1ESt13_Ios_Openmode
         U __ZNSt19basic_istringstreamIcSt11char_traitsIcESaIcEEC1ERKSsSt13_Ios_Openmode
         U __ZNSt19basic_ostringstreamIcSt11char_traitsIcESaIcEEC1ESt13_Ios_Openmode
         U __ZNSt6localeD1Ev
000389b0 S __ZNSt6vectorISsSaISsEE13_M_insert_auxEN9__gnu_cxx17__normal_iteratorIPSsS1_EERKSs
00039720 S __ZNSt6vectorISsSaISsEE13_M_insert_auxEN9__gnu_cxx17__normal_iteratorIPSsS1_EERKSs.eh
         U __ZNSt8ios_base4InitC1Ev
         U __ZNSt8ios_base4InitD1Ev
         U __ZNSt8ios_baseD2Ev
         U __ZNSt9basic_iosIcSt11char_traitsIcEE5clearESt12_Ios_Iostate
         U __ZSt16__ostream_insertIcSt11char_traitsIcEERSt13basic_ostreamIT_T0_ES6_PKS3_i
         U __ZSt17__throw_bad_allocv
         U __ZSt20__throw_length_errorPKc
         U __ZSt20__throw_out_of_rangePKc
         U __ZSt24__throw_invalid_argumentPKc
00038c80 S __ZSt24__uninitialized_copy_auxIPSsS0_ET0_T_S2_S1_St12__false_type
00039744 S __ZSt24__uninitialized_copy_auxIPSsS0_ET0_T_S2_S1_St12__false_type.eh
000388e0 S __ZSt6__findIN9__gnu_cxx17__normal_iteratorIPKcSsEEcET_S5_S5_RKT0_St26random_access_iterator_tag
00039700 S __ZSt6__findIN9__gnu_cxx17__normal_iteratorIPKcSsEEcET_S5_S5_RKT0_St26random_access_iterator_tag.eh
00038580 S __ZSt6searchIN9__gnu_cxx17__normal_iteratorIPKcSsEES4_ET_S5_S5_T0_S6_
000394b8 S __ZSt6searchIN9__gnu_cxx17__normal_iteratorIPKcSsEES4_ET_S5_S5_T0_S6_.eh
         U __ZSt9terminatev
0003a868 b __ZStL8__ioinit
00038130 S __ZStlsIcSt11char_traitsIcELm8EERSt13basic_ostreamIT_T0_ES6_RKSt6bitsetIXT1_EE
000393c8 S __ZStlsIcSt11char_traitsIcELm8EERSt13basic_ostreamIT_T0_ES6_RKSt6bitsetIXT1_EE.eh
00037f60 S __ZStplIcSt11char_traitsIcESaIcEESbIT_T0_T1_EPKS3_RKS6_
000391f4 S __ZStplIcSt11char_traitsIcESaIcEESbIT_T0_T1_EPKS3_RKS6_.eh
         U __ZStrsIcSt11char_traitsIcEERSt13basic_istreamIT_T0_ES6_RS3_
00038240 S __ZStrsIcSt11char_traitsIcELm8EERSt13basic_istreamIT_T0_ES6_RSt6bitsetIXT1_EE
00039494 S __ZStrsIcSt11char_traitsIcELm8EERSt13basic_istreamIT_T0_ES6_RSt6bitsetIXT1_EE.eh
         U __ZStrsIcSt11char_traitsIcESaIcEERSt13basic_istreamIT_T0_ES7_RSbIS4_S5_T1_E
         U __ZTTSt18basic_stringstreamIcSt11char_traitsIcESaIcEE
         U __ZTTSt19basic_istringstreamIcSt11char_traitsIcESaIcEE
         U __ZTTSt19basic_ostringstreamIcSt11char_traitsIcESaIcEE
         U __ZTVSt15basic_streambufIcSt11char_traitsIcEE
         U __ZTVSt15basic_stringbufIcSt11char_traitsIcESaIcEE
0003a890 b __ZZ16ofVAArgsToStringPKczE10aux_buffer
0003a874 b __ZZ8ofToBoolRKSsE10trueString
0003a880 b __ZZ8ofToBoolRKSsE11falseString
0003cfb0 b __ZZL12dataPathRootvE12dataPathRoot
0003cfa0 b __ZZL13isDataPathSetvE11dataPathSet
00038f10 S __ZZStrsIcSt11char_traitsIcELm8EERSt13basic_istreamIT_T0_ES6_RSt6bitsetIXT1_EEE5__eof
         U __ZdlPv
         U __Znwm
         U ___bzero
         U ___cxa_atexit
         U ___cxa_begin_catch
         U ___cxa_end_catch
         U ___cxa_guard_abort
         U ___cxa_guard_acquire
         U ___cxa_guard_release
         U ___cxa_rethrow
         U ___dso_handle
         U ___gxx_personality_v0
         U ___stack_chk_fail
         U ___stack_chk_guard
         U ___tolower
         U ___toupper
         U _chdir
         U _fclose
         U _fgetc
         U _getcwd
         U _gettimeofday
         U _localtime
         U _memcmp
         U _memcpy
         U _popen$UNIX2003
0003cfc0 S _saveImageCounter
         U _strlen
         U _strstr
         U _system$UNIX2003
         U _time
         U _vsprintf

../../../libs/openFrameworksCompiled/lib/osx/openFrameworks.a(ofBitmapFont.o):
00013c3c s EH_frame0
00013cec s EH_frame1
00012a2c s GCC_except_table5
00012a50 s __GLOBAL__I_a
00013d30 s __GLOBAL__I_a.eh
         U __Unwind_Resume
00000000 T __Z21ofDrawBitmapCharacteriii
00013c70 S __Z21ofDrawBitmapCharacteriii.eh
000004a0 T __Z24ofDrawBitmapCharacterEndv
00013cd0 S __Z24ofDrawBitmapCharacterEndv.eh
00000390 T __Z26ofDrawBitmapCharacterStarti
00013cb0 S __Z26ofDrawBitmapCharacterStarti.eh
00012b23 s __ZL16bmpChar_8x13_000
00012b32 s __ZL16bmpChar_8x13_001
00012b41 s __ZL16bmpChar_8x13_002
00012b50 s __ZL16bmpChar_8x13_003
00012b5f s __ZL16bmpChar_8x13_004
00012b6e s __ZL16bmpChar_8x13_005
00012b7d s __ZL16bmpChar_8x13_006
00012b8c s __ZL16bmpChar_8x13_007
00012b9b s __ZL16bmpChar_8x13_008
00012baa s __ZL16bmpChar_8x13_009
00012bb9 s __ZL16bmpChar_8x13_010
00012bc8 s __ZL16bmpChar_8x13_011
00012bd7 s __ZL16bmpChar_8x13_012
00012be6 s __ZL16bmpChar_8x13_013
00012bf5 s __ZL16bmpChar_8x13_014
00012c04 s __ZL16bmpChar_8x13_015
00012c13 s __ZL16bmpChar_8x13_016
00012c22 s __ZL16bmpChar_8x13_017
00012c31 s __ZL16bmpChar_8x13_018
00012c40 s __ZL16bmpChar_8x13_019
00012c4f s __ZL16bmpChar_8x13_020
00012c5e s __ZL16bmpChar_8x13_021
00012c6d s __ZL16bmpChar_8x13_022
00012c7c s __ZL16bmpChar_8x13_023
00012c8b s __ZL16bmpChar_8x13_024
00012c9a s __ZL16bmpChar_8x13_025
00012ca9 s __ZL16bmpChar_8x13_026
00012cb8 s __ZL16bmpChar_8x13_027
00012cc7 s __ZL16bmpChar_8x13_028
00012cd6 s __ZL16bmpChar_8x13_029
00012ce5 s __ZL16bmpChar_8x13_030
00012cf4 s __ZL16bmpChar_8x13_031
00012d03 s __ZL16bmpChar_8x13_032
00012d12 s __ZL16bmpChar_8x13_033
00012d21 s __ZL16bmpChar_8x13_034
00012d30 s __ZL16bmpChar_8x13_035
00012d3f s __ZL16bmpChar_8x13_036
00012d4e s __ZL16bmpChar_8x13_037
00012d5d s __ZL16bmpChar_8x13_038
00012d6c s __ZL16bmpChar_8x13_039
00012d7b s __ZL16bmpChar_8x13_040
00012d8a s __ZL16bmpChar_8x13_041
00012d99 s __ZL16bmpChar_8x13_042
00012da8 s __ZL16bmpChar_8x13_043
00012db7 s __ZL16bmpChar_8x13_044
00012dc6 s __ZL16bmpChar_8x13_045
00012dd5 s __ZL16bmpChar_8x13_046
00012de4 s __ZL16bmpChar_8x13_047
00012df3 s __ZL16bmpChar_8x13_048
00012e02 s __ZL16bmpChar_8x13_049
00012e11 s __ZL16bmpChar_8x13_050
00012e20 s __ZL16bmpChar_8x13_051
00012e2f s __ZL16bmpChar_8x13_052
00012e3e s __ZL16bmpChar_8x13_053
00012e4d s __ZL16bmpChar_8x13_054
00012e5c s __ZL16bmpChar_8x13_055
00012e6b s __ZL16bmpChar_8x13_056
00012e7a s __ZL16bmpChar_8x13_057
00012e89 s __ZL16bmpChar_8x13_058
00012e98 s __ZL16bmpChar_8x13_059
00012ea7 s __ZL16bmpChar_8x13_060
00012eb6 s __ZL16bmpChar_8x13_061
00012ec5 s __ZL16bmpChar_8x13_062
00012ed4 s __ZL16bmpChar_8x13_063
00012ee3 s __ZL16bmpChar_8x13_064
00012ef2 s __ZL16bmpChar_8x13_065
00012f01 s __ZL16bmpChar_8x13_066
00012f10 s __ZL16bmpChar_8x13_067
00012f1f s __ZL16bmpChar_8x13_068
00012f2e s __ZL16bmpChar_8x13_069
00012f3d s __ZL16bmpChar_8x13_070
00012f4c s __ZL16bmpChar_8x13_071
00012f5b s __ZL16bmpChar_8x13_072
00012f6a s __ZL16bmpChar_8x13_073
00012f79 s __ZL16bmpChar_8x13_074
00012f88 s __ZL16bmpChar_8x13_075
00012f97 s __ZL16bmpChar_8x13_076
00012fa6 s __ZL16bmpChar_8x13_077
00012fb5 s __ZL16bmpChar_8x13_078
00012fc4 s __ZL16bmpChar_8x13_079
00012fd3 s __ZL16bmpChar_8x13_080
00012fe2 s __ZL16bmpChar_8x13_081
00012ff1 s __ZL16bmpChar_8x13_082
00013000 s __ZL16bmpChar_8x13_083
0001300f s __ZL16bmpChar_8x13_084
0001301e s __ZL16bmpChar_8x13_085
0001302d s __ZL16bmpChar_8x13_086
0001303c s __ZL16bmpChar_8x13_087
0001304b s __ZL16bmpChar_8x13_088
0001305a s __ZL16bmpChar_8x13_089
00013069 s __ZL16bmpChar_8x13_090
00013078 s __ZL16bmpChar_8x13_091
00013087 s __ZL16bmpChar_8x13_092
00013096 s __ZL16bmpChar_8x13_093
000130a5 s __ZL16bmpChar_8x13_094
000130b4 s __ZL16bmpChar_8x13_095
000130c3 s __ZL16bmpChar_8x13_096
000130d2 s __ZL16bmpChar_8x13_097
000130e1 s __ZL16bmpChar_8x13_098
000130f0 s __ZL16bmpChar_8x13_099
000130ff s __ZL16bmpChar_8x13_100
0001310e s __ZL16bmpChar_8x13_101
0001311d s __ZL16bmpChar_8x13_102
0001312c s __ZL16bmpChar_8x13_103
0001313b s __ZL16bmpChar_8x13_104
0001314a s __ZL16bmpChar_8x13_105
00013159 s __ZL16bmpChar_8x13_106
00013168 s __ZL16bmpChar_8x13_107
00013177 s __ZL16bmpChar_8x13_108
00013186 s __ZL16bmpChar_8x13_109
00013195 s __ZL16bmpChar_8x13_110
000131a4 s __ZL16bmpChar_8x13_111
000131b3 s __ZL16bmpChar_8x13_112
000131c2 s __ZL16bmpChar_8x13_113
000131d1 s __ZL16bmpChar_8x13_114
000131e0 s __ZL16bmpChar_8x13_115
000131ef s __ZL16bmpChar_8x13_116
000131fe s __ZL16bmpChar_8x13_117
0001320d s __ZL16bmpChar_8x13_118
0001321c s __ZL16bmpChar_8x13_119
0001322b s __ZL16bmpChar_8x13_120
0001323a s __ZL16bmpChar_8x13_121
00013249 s __ZL16bmpChar_8x13_122
00013258 s __ZL16bmpChar_8x13_123
00013267 s __ZL16bmpChar_8x13_124
00013276 s __ZL16bmpChar_8x13_125
00013285 s __ZL16bmpChar_8x13_126
00013294 s __ZL16bmpChar_8x13_160
000132a3 s __ZL16bmpChar_8x13_161
000132b2 s __ZL16bmpChar_8x13_162
000132c1 s __ZL16bmpChar_8x13_163
000132d0 s __ZL16bmpChar_8x13_164
000132df s __ZL16bmpChar_8x13_165
000132ee s __ZL16bmpChar_8x13_166
000132fd s __ZL16bmpChar_8x13_167
0001330c s __ZL16bmpChar_8x13_168
0001331b s __ZL16bmpChar_8x13_169
0001332a s __ZL16bmpChar_8x13_170
00013339 s __ZL16bmpChar_8x13_171
00013348 s __ZL16bmpChar_8x13_172
00013357 s __ZL16bmpChar_8x13_173
00013366 s __ZL16bmpChar_8x13_174
00013375 s __ZL16bmpChar_8x13_175
00013384 s __ZL16bmpChar_8x13_176
00013393 s __ZL16bmpChar_8x13_177
000133a2 s __ZL16bmpChar_8x13_178
000133b1 s __ZL16bmpChar_8x13_179
000133c0 s __ZL16bmpChar_8x13_180
000133cf s __ZL16bmpChar_8x13_181
000133de s __ZL16bmpChar_8x13_182
000133ed s __ZL16bmpChar_8x13_183
000133fc s __ZL16bmpChar_8x13_184
0001340b s __ZL16bmpChar_8x13_185
0001341a s __ZL16bmpChar_8x13_186
00013429 s __ZL16bmpChar_8x13_187
00013438 s __ZL16bmpChar_8x13_188
00013447 s __ZL16bmpChar_8x13_189
00013456 s __ZL16bmpChar_8x13_190
00013465 s __ZL16bmpChar_8x13_191
00013474 s __ZL16bmpChar_8x13_192
00013483 s __ZL16bmpChar_8x13_193
00013492 s __ZL16bmpChar_8x13_194
000134a1 s __ZL16bmpChar_8x13_195
000134b0 s __ZL16bmpChar_8x13_196
000134bf s __ZL16bmpChar_8x13_197
000134ce s __ZL16bmpChar_8x13_198
000134dd s __ZL16bmpChar_8x13_199
000134ec s __ZL16bmpChar_8x13_200
000134fb s __ZL16bmpChar_8x13_201
0001350a s __ZL16bmpChar_8x13_202
00013519 s __ZL16bmpChar_8x13_203
00013528 s __ZL16bmpChar_8x13_204
00013537 s __ZL16bmpChar_8x13_205
00013546 s __ZL16bmpChar_8x13_206
00013555 s __ZL16bmpChar_8x13_207
00013564 s __ZL16bmpChar_8x13_208
00013573 s __ZL16bmpChar_8x13_209
00013582 s __ZL16bmpChar_8x13_210
00013591 s __ZL16bmpChar_8x13_211
000135a0 s __ZL16bmpChar_8x13_212
000135af s __ZL16bmpChar_8x13_213
000135be s __ZL16bmpChar_8x13_214
000135cd s __ZL16bmpChar_8x13_215
000135dc s __ZL16bmpChar_8x13_216
000135eb s __ZL16bmpChar_8x13_217
000135fa s __ZL16bmpChar_8x13_218
00013609 s __ZL16bmpChar_8x13_219
00013618 s __ZL16bmpChar_8x13_220
00013627 s __ZL16bmpChar_8x13_221
00013636 s __ZL16bmpChar_8x13_222
00013645 s __ZL16bmpChar_8x13_223
00013654 s __ZL16bmpChar_8x13_224
00013663 s __ZL16bmpChar_8x13_225
00013672 s __ZL16bmpChar_8x13_226
00013681 s __ZL16bmpChar_8x13_227
00013690 s __ZL16bmpChar_8x13_228
0001369f s __ZL16bmpChar_8x13_229
000136ae s __ZL16bmpChar_8x13_230
000136bd s __ZL16bmpChar_8x13_231
000136cc s __ZL16bmpChar_8x13_232
000136db s __ZL16bmpChar_8x13_233
000136ea s __ZL16bmpChar_8x13_234
000136f9 s __ZL16bmpChar_8x13_235
00013708 s __ZL16bmpChar_8x13_236
00013717 s __ZL16bmpChar_8x13_237
00013726 s __ZL16bmpChar_8x13_238
00013735 s __ZL16bmpChar_8x13_239
00013744 s __ZL16bmpChar_8x13_240
00013753 s __ZL16bmpChar_8x13_241
00013762 s __ZL16bmpChar_8x13_242
00013771 s __ZL16bmpChar_8x13_243
00013780 s __ZL16bmpChar_8x13_244
0001378f s __ZL16bmpChar_8x13_245
0001379e s __ZL16bmpChar_8x13_246
000137ad s __ZL16bmpChar_8x13_247
000137bc s __ZL16bmpChar_8x13_248
000137cb s __ZL16bmpChar_8x13_249
000137da s __ZL16bmpChar_8x13_250
000137e9 s __ZL16bmpChar_8x13_251
000137f8 s __ZL16bmpChar_8x13_252
00013807 s __ZL16bmpChar_8x13_253
00013816 s __ZL16bmpChar_8x13_254
00013825 s __ZL16bmpChar_8x13_255
00013834 s __ZL16bmpChar_8x13_Map
00000250 t __ZL20prepareBitmapTexturev
00013c90 s __ZL20prepareBitmapTexturev.eh
00013ff1 b __ZL22bBitmapTexturePrepared.b
00013ff4 b __ZL2vC
         U __ZN9ofTexture14getTextureDataEv
         U __ZN9ofTexture4bindEv
         U __ZN9ofTexture6unbindEv
         U __ZN9ofTexture8allocateEiiib
         U __ZN9ofTexture8loadDataEPKhiii
         U __ZN9ofTextureC1Ev
         U __ZN9ofTextureD1Ev
000128f0 S __ZNSt6vectorIfSaIfEE14_M_fill_assignEmRKf
00013d0c S __ZNSt6vectorIfSaIfEE14_M_fill_assignEmRKf.eh
000128d0 S __ZNSt6vectorIfSaIfEED1Ev
00013c54 S __ZNSt6vectorIfSaIfEED1Ev.eh
         U __ZNSt8ios_base4InitC1Ev
         U __ZNSt8ios_base4InitD1Ev
         U __ZSt17__throw_bad_allocv
00013ff0 b __ZStL8__ioinit
         U __ZdlPv
         U __Znwm
         U ___cxa_atexit
         U ___dso_handle
         U ___gxx_personality_v0
00034044 S _coords
         U _glAlphaFunc
         U _glDisableClientState
         U _glDrawArrays
         U _glEnable
         U _glEnableClientState
         U _glPopAttrib
         U _glPushAttrib
         U _glTexCoordPointer
         U _glTexParameterf
         U _glVertexPointer
00013ff8 S _glesBitmappedFontTexture
00014044 S _myLetterPixels
00034050 S _verts

../../../libs/openFrameworksCompiled/lib/osx/openFrameworks.a(ofGraphics.o):
0006a010 s EH_frame0
0006a054 s EH_frame1
000688b4 s GCC_except_table0
00068a04 s GCC_except_table10
00068f8c s GCC_except_table126
00068a24 s GCC_except_table13
0006901c s GCC_except_table130
00069090 s GCC_except_table131
000690bc s GCC_except_table132
000690e8 s GCC_except_table133
00069114 s GCC_except_table134
00069140 s GCC_except_table135
000691b0 s GCC_except_table136
000692c8 s GCC_except_table137
000692f4 s GCC_except_table138
00068b50 s GCC_except_table14
00069350 s GCC_except_table140
0006939c s GCC_except_table146
000693e8 s GCC_except_table151
00069444 s GCC_except_table152
00069490 s GCC_except_table153
000694b0 s GCC_except_table154
00069504 s GCC_except_table155
00069560 s GCC_except_table156
000695ac s GCC_except_table157
000695cc s GCC_except_table158
00069620 s GCC_except_table159
00069640 s GCC_except_table160
00069660 s GCC_except_table161
00069680 s GCC_except_table173
000696cc s GCC_except_table211
000696f8 s GCC_except_table227
00069724 s GCC_except_table229
00069744 s GCC_except_table230
00069788 s GCC_except_table231
00069828 s GCC_except_table233
00069874 s GCC_except_table234
00068b9c s GCC_except_table27
00068c3c s GCC_except_table49
000688f4 s GCC_except_table5
00068e44 s GCC_except_table79
00068e84 s GCC_except_table80
00068ec4 s GCC_except_table81
000689bc s GCC_except_table9
000698f0 s __GLOBAL__I_a
0006bc68 s __GLOBAL__I_a.eh
         U __Unwind_Resume
00004a60 T __Z10ofEndShapeb
0006adec S __Z10ofEndShapeb.eh
00003580 T __Z10ofGetStylev
0006a988 S __Z10ofGetStylev.eh
         U __Z10ofGetWidthv
00003820 T __Z10ofPopStylev
0006a9d0 S __Z10ofPopStylev.eh
00000fa0 T __Z10ofPushViewv
0006a230 S __Z10ofPushViewv.eh
000030e0 T __Z10ofSetColorRK8ofColor_IhE
0006a7ac S __Z10ofSetColorRK8ofColor_IhE.eh
000031b0 T __Z10ofSetColorRK8ofColor_IhEi
0006a7ec S __Z10ofSetColorRK8ofColor_IhEi.eh
00003280 T __Z10ofSetColori
0006a82c S __Z10ofSetColori.eh
00003220 T __Z10ofSetColoriii
0006a80c S __Z10ofSetColoriii.eh
00003150 T __Z10ofSetColoriiii
0006a7cc S __Z10ofSetColoriiii.eh
00000280 T __Z10ofSetStyle7ofStyle
0006a104 S __Z10ofSetStyle7ofStyle.eh
00003a00 T __Z10ofTriangleRK7ofVec3fS1_S1_
0006a9f4 S __Z10ofTriangleRK7ofVec3fS1_S1_.eh
00003b30 T __Z10ofTriangleffffff
0006aa2c S __Z10ofTriangleffffff.eh
00003aa0 T __Z10ofTrianglefffffffff
0006aa10 S __Z10ofTrianglefffffffff.eh
00004790 T __Z10ofVertexesRKSt6vectorI7ofVec3fSaIS0_EE
0006ad04 S __Z10ofVertexesRKSt6vectorI7ofVec3fSaIS0_EE.eh
00000fe0 T __Z10ofViewport11ofRectangle
0006a268 S __Z10ofViewport11ofRectangle.eh
00001040 T __Z10ofViewportffffb
0006a284 S __Z10ofViewportffffb.eh
000016c0 T __Z10ofbClearBgv
0006a568 S __Z10ofbClearBgv.eh
         U __Z11ofGetHeightv
00001370 T __Z11ofPopMatrixv
0006a3dc S __Z11ofPopMatrixv.eh
00003650 T __Z11ofPushStylev
0006a9ac S __Z11ofPushStylev.eh
00001390 T __Z11ofTranslateRK7ofVec3f
0006a3f8 S __Z11ofTranslateRK7ofVec3f.eh
000013c0 T __Z11ofTranslatefff
0006a414 S __Z11ofTranslatefff.eh
00000510 T __Z12ofBackgroundRK8ofColor_IhE
0006a124 S __Z12ofBackgroundRK8ofColor_IhE.eh
00001720 T __Z12ofBackgroundii
0006a5a0 S __Z12ofBackgroundii.eh
00001790 T __Z12ofBackgroundiiii
0006a5c0 S __Z12ofBackgroundiiii.eh
000046c0 T __Z12ofBeginShapev
0006ac94 S __Z12ofBeginShapev.eh
000016f0 T __Z12ofBgColorPtrv
0006a584 S __Z12ofBgColorPtrv.eh
00001660 T __Z12ofClearAlphav
0006a530 S __Z12ofClearAlphav.eh
00001350 T __Z12ofPushMatrixv
0006a3c0 S __Z12ofPushMatrixv.eh
000048b0 T __Z13ofCurveVertexR7ofVec3f
0006ad60 S __Z13ofCurveVertexR7ofVec3f.eh
00004800 T __Z13ofCurveVertexff
0006ad24 S __Z13ofCurveVertexff.eh
00002ea0 T __Z13ofGetRectModev
0006a6b8 S __Z13ofGetRectModev.eh
00004a20 T __Z13ofNextContourb
0006add0 S __Z13ofNextContourb.eh
00004080 T __Z13ofRectRoundedRK11ofRectanglef
0006abb4 S __Z13ofRectRoundedRK11ofRectanglef.eh
00004330 T __Z13ofRectRoundedRK7ofVec3ffff
0006abec S __Z13ofRectRoundedRK7ofVec3ffff.eh
00004390 T __Z13ofRectRoundedfffff
0006ac08 S __Z13ofRectRoundedfffff.eh
000040e0 T __Z13ofRectRoundedffffff
0006abd0 S __Z13ofRectRoundedffffff.eh
00003310 T __Z13ofSetHexColori
0006a84c S __Z13ofSetHexColori.eh
00003530 T __Z13ofSetPolyMode17ofPolyWindingMode
0006a94c S __Z13ofSetPolyMode17ofPolyWindingMode.eh
00002e60 T __Z13ofSetRectMode10ofRectMode
0006a698 S __Z13ofSetRectMode10ofRectMode.eh
00001320 T __Z13ofSetupScreenv
0006a3a4 S __Z13ofSetupScreenv.eh
         U __Z13ofSplitStringRKSsS0_bb
00004950 T __Z14ofBezierVertexRK7ofVec3fS1_S1_
0006ad98 S __Z14ofBezierVertexRK7ofVec3fS1_S1_.eh
000048e0 T __Z14ofBezierVertexffffff
0006ad7c S __Z14ofBezierVertexffffff.eh
00004990 T __Z14ofBezierVertexfffffffff
0006adb4 S __Z14ofBezierVertexfffffffff.eh
00002fd0 T __Z14ofSetLineWidthf
0006a730 S __Z14ofSetLineWidthf.eh
00001810 T __Z15ofBackgroundHexii
0006a5e0 S __Z15ofBackgroundHexii.eh
00004840 T __Z15ofCurveVertexesRKSt6vectorI7ofVec3fSaIS0_EE
0006ad40 S __Z15ofCurveVertexesRKSt6vectorI7ofVec3fSaIS0_EE.eh
000005c0 T __Z15ofGetGLRendererv
0006a160 S __Z15ofGetGLRendererv.eh
00003380 T __Z17ofEnableBlendMode11ofBlendMode
0006a86c S __Z17ofEnableBlendMode11ofBlendMode.eh
000034b0 T __Z17ofEnableSmoothingv
0006a914 S __Z17ofEnableSmoothingv.eh
00003410 T __Z18ofDisableBlendModev
0006a8c0 S __Z18ofDisableBlendModev.eh
000034f0 T __Z18ofDisableSmoothingv
0006a930 S __Z18ofDisableSmoothingv.eh
00005d00 T __Z18ofDrawBitmapStringSsRK7ofVec3f
0006af68 S __Z18ofDrawBitmapStringSsRK7ofVec3f.eh
00005e90 T __Z18ofDrawBitmapStringSsff
0006afb0 S __Z18ofDrawBitmapStringSsff.eh
00005dc0 T __Z18ofDrawBitmapStringSsfff
0006af8c S __Z18ofDrawBitmapStringSsfff.eh
000010d0 T __Z18ofGetViewportWidthv
0006a2bc S __Z18ofGetViewportWidthv.eh
00001200 T __Z18ofSetupScreenOrthoff13ofOrientationbff
0006a364 S __Z18ofSetupScreenOrthoff13ofOrientationbff.eh
000010f0 T __Z19ofGetViewportHeightv
0006a2d8 S __Z19ofGetViewportHeightv.eh
00001690 T __Z19ofSetBackgroundAutob
0006a54c S __Z19ofSetBackgroundAutob.eh
00003560 T __Z19ofSetDrawBitmapMode16ofDrawBitmapMode
0006a96c S __Z19ofSetDrawBitmapMode16ofDrawBitmapMode.eh
000018a0 T __Z20ofBackgroundGradientRK8ofColor_IhES2_14ofGradientMode
0006a600 S __Z20ofBackgroundGradientRK8ofColor_IhES2_14ofGradientMode.eh
000033b0 T __Z20ofEnablePointSpritesv
0006a888 S __Z20ofEnablePointSpritesv.eh
00000dd0 T __Z20ofEndSaveScreenAsPDFv
0006a20c S __Z20ofEndSaveScreenAsPDFv.eh
00001170 T __Z20ofGetCoordHandednessv
0006a32c S __Z20ofGetCoordHandednessv.eh
000005a0 T __Z20ofGetCurrentRendererv
0006a144 S __Z20ofGetCurrentRendererv.eh
000010a0 T __Z20ofGetCurrentViewportv
0006a2a0 S __Z20ofGetCurrentViewportv.eh
00002da0 T __Z20ofSetBackgroundColorRK8ofColor_IhE
0006a65c S __Z20ofSetBackgroundColorRK8ofColor_IhE.eh
00002d00 T __Z20ofSetBackgroundColorii
0006a624 S __Z20ofSetBackgroundColorii.eh
00002d50 T __Z20ofSetBackgroundColoriiii
0006a640 S __Z20ofSetBackgroundColoriiii.eh
00001140 T __Z20ofSetCoordHandedness16ofHandednessType
0006a310 S __Z20ofSetCoordHandedness16ofHandednessType.eh
00000000 T __Z20ofSetCurrentRenderer5ofPtrI14ofBaseRendererE
0006a0e0 S __Z20ofSetCurrentRenderer5ofPtrI14ofBaseRendererE.eh
00003030 T __Z20ofSetCurveResolutioni
0006a74c S __Z20ofSetCurveResolutioni.eh
000033e0 T __Z21ofDisablePointSpritesv
0006a8a4 S __Z21ofDisablePointSpritesv.eh
00003440 T __Z21ofEnableAlphaBlendingv
0006a8dc S __Z21ofEnableAlphaBlendingv.eh
000030a0 T __Z21ofSetCircleResolutioni
0006a78c S __Z21ofSetCircleResolutioni.eh
00003060 T __Z21ofSetSphereResolutioni
0006a76c S __Z21ofSetSphereResolutioni.eh
00000740 T __Z22ofBeginSaveScreenAsPDFSsbb11ofRectangle
0006a1e8 S __Z22ofBeginSaveScreenAsPDFSsbb11ofRectangle.eh
00003480 T __Z22ofDisableAlphaBlendingv
0006a8f8 S __Z22ofDisableAlphaBlendingv.eh
00001110 T __Z22ofOrientationToDegrees13ofOrientation
0006a2f4 S __Z22ofOrientationToDegrees13ofOrientation.eh
00001260 T __Z22ofSetupGraphicDefaultsv
0006a380 S __Z22ofSetupGraphicDefaultsv.eh
00002e00 T __Z23ofSetBackgroundColorHexii
0006a67c S __Z23ofSetBackgroundColorHexii.eh
00001190 T __Z24ofSetupScreenPerspectiveff13ofOrientationbfff
0006a348 S __Z24ofSetupScreenPerspectiveff13ofOrientationbfff.eh
00005f40 T __Z27ofDrawBitmapStringHighlightSsRK7ofVec3fRK8ofColor_IhES5_
0006afd4 S __Z27ofDrawBitmapStringHighlightSsRK7ofVec3fRK8ofColor_IhES5_.eh
00006000 T __Z27ofDrawBitmapStringHighlightSsiiRK8ofColor_IhES2_
0006aff8 S __Z27ofDrawBitmapStringHighlightSsiiRK8ofColor_IhES2_.eh
00004d60 T __Z5ofBoxRK7ofVec3ff
0006ae94 S __Z5ofBoxRK7ofVec3ff.eh
00004e30 T __Z5ofBoxf
0006aecc S __Z5ofBoxf.eh
00004dc0 T __Z5ofBoxfff
0006aeb0 S __Z5ofBoxfff.eh
00004ce0 T __Z5ofBoxffff
0006ae78 S __Z5ofBoxffff.eh
00005ad0 T __Z6ofConeRK7ofVec3fff
0006af0c S __Z6ofConeRK7ofVec3fff.eh
00005bb0 T __Z6ofConeff
0006af44 S __Z6ofConeff.eh
00005b30 T __Z6ofConeffff
0006af28 S __Z6ofConeffff.eh
00005a50 T __Z6ofConefffff
0006aef0 S __Z6ofConefffff.eh
         U __Z6ofDistffff
00002f40 T __Z6ofFillv
0006a6f4 S __Z6ofFillv.eh
00003dc0 T __Z6ofLineRK7ofVec3fS1_
0006aaf0 S __Z6ofLineRK7ofVec3fS1_.eh
00003ea0 T __Z6ofLineffff
0006ab28 S __Z6ofLineffff.eh
00003e30 T __Z6ofLineffffff
0006ab0c S __Z6ofLineffffff.eh
00003f00 T __Z6ofRectRK11ofRectangle
0006ab44 S __Z6ofRectRK11ofRectangle.eh
00003fc0 T __Z6ofRectRK7ofVec3fff
0006ab7c S __Z6ofRectRK7ofVec3fff.eh
00004020 T __Z6ofRectffff
0006ab98 S __Z6ofRectffff.eh
00003f60 T __Z6ofRectfffff
0006ab60 S __Z6ofRectfffff.eh
000015f0 T __Z7ofClearRK8ofColor_IhE
0006a510 S __Z7ofClearRK8ofColor_IhE.eh
000015a0 T __Z7ofClearff
0006a4f4 S __Z7ofClearff.eh
00001550 T __Z7ofClearffff
0006a4d8 S __Z7ofClearffff.eh
000043e0 T __Z7ofCurveffffffff
0006ac24 S __Z7ofCurveffffffff.eh
00004490 T __Z7ofCurveffffffffffff
0006ac40 S __Z7ofCurveffffffffffff.eh
00001400 T __Z7ofScalefff
0006a430 S __Z7ofScalefff.eh
00004560 T __Z8ofBezierffffffff
0006ac5c S __Z8ofBezierffffffff.eh
00004600 T __Z8ofBezierffffffffffff
0006ac78 S __Z8ofBezierffffffffffff.eh
00003bb0 T __Z8ofCircleRK7ofVec3ff
0006aa48 S __Z8ofCircleRK7ofVec3ff.eh
00003c50 T __Z8ofCirclefff
0006aa80 S __Z8ofCirclefff.eh
00003c00 T __Z8ofCircleffff
0006aa64 S __Z8ofCircleffff.eh
00002ed0 T __Z8ofNoFillv
0006a6d4 S __Z8ofNoFillv.eh
00001520 T __Z8ofRotatef
0006a4bc S __Z8ofRotatef.eh
00001440 T __Z8ofRotateffff
0006a44c S __Z8ofRotateffff.eh
00004c20 T __Z8ofSphereRK7ofVec3ff
0006ae5c S __Z8ofSphereRK7ofVec3ff.eh
00004b40 T __Z8ofSpheref
0006ae24 S __Z8ofSpheref.eh
00004b90 T __Z8ofSpherefff
0006ae40 S __Z8ofSpherefff.eh
00004aa0 T __Z8ofSphereffff
0006ae08 S __Z8ofSphereffff.eh
00004760 T __Z8ofVertexR7ofVec3f
0006ace8 S __Z8ofVertexR7ofVec3f.eh
000046e0 T __Z8ofVertexff
0006acb0 S __Z8ofVertexff.eh
00004720 T __Z8ofVertexfff
0006accc S __Z8ofVertexfff.eh
00003ca0 T __Z9ofEllipseRK7ofVec3fff
0006aa9c S __Z9ofEllipseRK7ofVec3fff.eh
00003d60 T __Z9ofEllipseffff
0006aad4 S __Z9ofEllipseffff.eh
00003d00 T __Z9ofEllipsefffff
0006aab8 S __Z9ofEllipsefffff.eh
00002fa0 T __Z9ofGetFillv
0006a714 S __Z9ofGetFillv.eh
00000fc0 T __Z9ofPopViewv
0006a24c S __Z9ofPopViewv.eh
00001490 T __Z9ofRotateXf
0006a468 S __Z9ofRotateXf.eh
000014c0 T __Z9ofRotateYf
0006a484 S __Z9ofRotateYf.eh
000014f0 T __Z9ofRotateZf
0006a4a0 S __Z9ofRotateZf.eh
0006db28 b __ZGVZ5ofBoxfE1n
0006db18 b __ZGVZ5ofBoxfE3tex
0006da50 b __ZGVZ5ofBoxfE7normals
0006db90 b __ZGVZ5ofBoxfE7normals13
00069de8 S __ZGVZN20ofRendererCollection10getBgColorEvE1c
0006d8b4 b __ZL10vertexData
0006d78c b __ZL12currentStyle
0006d7c0 b __ZL12styleHistory
0006d918 b __ZL14storedRenderer
0006d910 b __ZL15cairoScreenshot
0006d7e8 b __ZL15viewportHistory
0006d928 b __ZL18bScreenShotStarted.b
0006d920 b __ZL18rendererCollection
0006d810 b __ZL5shape
0006d908 b __ZL8renderer
         U __ZN11ofRectangleC1ERKS_
         U __ZN11ofRectangleC1Ev
         U __ZN11ofRectangleD1Ev
000679d0 S __ZN14ofBaseRenderer19setSphereResolutionEi
0006b85c S __ZN14ofBaseRenderer19setSphereResolutionEi.eh
         U __ZN15ofCairoRenderer5closeEv
         U __ZN15ofCairoRenderer5setupESsNS_4TypeEbb11ofRectangle
         U __ZN15ofCairoRendererC1Ev
00067d60 S __ZN20ofRendererCollection10backgroundERK8ofColor_IhE
0006b9b8 S __ZN20ofRendererCollection10backgroundERK8ofColor_IhE.eh
00067db0 S __ZN20ofRendererCollection10backgroundEf
0006b9d8 S __ZN20ofRendererCollection10backgroundEf.eh
00067e00 S __ZN20ofRendererCollection10backgroundEif
0006b9f8 S __ZN20ofRendererCollection10backgroundEif.eh
00067e60 S __ZN20ofRendererCollection10backgroundEiiii
0006ba18 S __ZN20ofRendererCollection10backgroundEiiii.eh
00067ff0 S __ZN20ofRendererCollection10clearAlphaEv
0006ba98 S __ZN20ofRendererCollection10clearAlphaEv.eh
00068200 S __ZN20ofRendererCollection10drawCircleEffff
0006bb18 S __ZN20ofRendererCollection10drawCircleEffff.eh
00068280 S __ZN20ofRendererCollection10drawSphereEffff
0006bb38 S __ZN20ofRendererCollection10drawSphereEffff.eh
00068380 S __ZN20ofRendererCollection10drawStringESsfff16ofDrawBitmapMode
0006bb78 S __ZN20ofRendererCollection10drawStringESsfff16ofDrawBitmapMode.eh
00067c90 S __ZN20ofRendererCollection10getBgColorEv
0006b978 S __ZN20ofRendererCollection10getBgColorEv.eh
00067370 S __ZN20ofRendererCollection10pushMatrixEv
0006b5e4 S __ZN20ofRendererCollection10pushMatrixEv.eh
00068300 S __ZN20ofRendererCollection11drawEllipseEfffff
0006bb58 S __ZN20ofRendererCollection11drawEllipseEfffff.eh
00067860 S __ZN20ofRendererCollection11getFillModeEv
0006b7c0 S __ZN20ofRendererCollection11getFillModeEv.eh
000677e0 S __ZN20ofRendererCollection11getRectModeEv
0006b784 S __ZN20ofRendererCollection11getRectModeEv.eh
00067810 S __ZN20ofRendererCollection11setFillModeE10ofFillFlag
0006b7a0 S __ZN20ofRendererCollection11setFillModeE10ofFillFlag.eh
00067c40 S __ZN20ofRendererCollection11setHexColorEi
0006b958 S __ZN20ofRendererCollection11setHexColorEi.eh
00067790 S __ZN20ofRendererCollection11setRectModeE10ofRectMode
0006b764 S __ZN20ofRendererCollection11setRectModeE10ofRectMode.eh
00067740 S __ZN20ofRendererCollection11setupScreenEv
0006b744 S __ZN20ofRendererCollection11setupScreenEv.eh
00068150 S __ZN20ofRendererCollection12drawTriangleEfffffffff
0006baf8 S __ZN20ofRendererCollection12drawTriangleEfffffffff.eh
000678e0 S __ZN20ofRendererCollection12setBlendModeE11ofBlendMode
0006b7fc S __ZN20ofRendererCollection12setBlendModeE11ofBlendMode.eh
00067890 S __ZN20ofRendererCollection12setLineWidthEf
0006b7dc S __ZN20ofRendererCollection12setLineWidthEf.eh
000680d0 S __ZN20ofRendererCollection13drawRectangleEfffff
0006bad8 S __ZN20ofRendererCollection13drawRectangleEfffff.eh
00065850 S __ZN20ofRendererCollection13getGLRendererEv
0006a184 S __ZN20ofRendererCollection13getGLRendererEv.eh
00067290 S __ZN20ofRendererCollection16getViewportWidthEv
0006b570 S __ZN20ofRendererCollection16getViewportWidthEv.eh
00067930 S __ZN20ofRendererCollection16setLineSmoothingEb
0006b81c S __ZN20ofRendererCollection16setLineSmoothingEb.eh
000671d0 S __ZN20ofRendererCollection16setupScreenOrthoEff13ofOrientationbff
0006b534 S __ZN20ofRendererCollection16setupScreenOrthoEff13ofOrientationbff.eh
000672c0 S __ZN20ofRendererCollection17getViewportHeightEv
0006b58c S __ZN20ofRendererCollection17getViewportHeightEv.eh
00067ec0 S __ZN20ofRendererCollection17setBackgroundAutoEb
0006ba38 S __ZN20ofRendererCollection17setBackgroundAutoEb.eh
000679e0 S __ZN20ofRendererCollection18enablePointSpritesEv
0006b878 S __ZN20ofRendererCollection18enablePointSpritesEv.eh
00067340 S __ZN20ofRendererCollection18getCoordHandednessEv
0006b5c8 S __ZN20ofRendererCollection18getCoordHandednessEv.eh
00067250 S __ZN20ofRendererCollection18getCurrentViewportEv
0006b554 S __ZN20ofRendererCollection18getCurrentViewportEv.eh
000672f0 S __ZN20ofRendererCollection18setCoordHandednessE16ofHandednessType
0006b5a8 S __ZN20ofRendererCollection18setCoordHandednessE16ofHandednessType.eh
00067a30 S __ZN20ofRendererCollection19disablePointSpritesEv
0006b898 S __ZN20ofRendererCollection19disablePointSpritesEv.eh
00067980 S __ZN20ofRendererCollection19setCircleResolutionEi
0006b83c S __ZN20ofRendererCollection19setCircleResolutionEi.eh
000676f0 S __ZN20ofRendererCollection20setupGraphicDefaultsEv
0006b724 S __ZN20ofRendererCollection20setupGraphicDefaultsEv.eh
00068480 S __ZN20ofRendererCollection21rendersPathPrimitivesEv
0006bb9c S __ZN20ofRendererCollection21rendersPathPrimitivesEv.eh
00067140 S __ZN20ofRendererCollection22setupScreenPerspectiveEff13ofOrientationbfff
0006b514 S __ZN20ofRendererCollection22setupScreenPerspectiveEff13ofOrientationbfff.eh
00066b70 S __ZN20ofRendererCollection4drawER10ofPolyline
0006b390 S __ZN20ofRendererCollection4drawER10ofPolyline.eh
00066c90 S __ZN20ofRendererCollection4drawER6ofMesh16ofPolyRenderModebbb
0006b3f0 S __ZN20ofRendererCollection4drawER6ofMesh16ofPolyRenderModebbb.eh
00066c10 S __ZN20ofRendererCollection4drawER6ofMeshbbb
0006b3d0 S __ZN20ofRendererCollection4drawER6ofMeshbbb.eh
00066bc0 S __ZN20ofRendererCollection4drawER6ofPath
0006b3b0 S __ZN20ofRendererCollection4drawER6ofPath.eh
00066e30 S __ZN20ofRendererCollection4drawER8ofImage_IfEfffffffff
0006b450 S __ZN20ofRendererCollection4drawER8ofImage_IfEfffffffff.eh
00066d70 S __ZN20ofRendererCollection4drawER8ofImage_IhEfffffffff
0006b430 S __ZN20ofRendererCollection4drawER8ofImage_IhEfffffffff.eh
00066ef0 S __ZN20ofRendererCollection4drawER8ofImage_ItEfffffffff
0006b470 S __ZN20ofRendererCollection4drawER8ofImage_ItEfffffffff.eh
00066d20 S __ZN20ofRendererCollection4drawERSt6vectorI7ofVec3fSaIS1_EE15ofPrimitiveMode
0006b410 S __ZN20ofRendererCollection4drawERSt6vectorI7ofVec3fSaIS1_EE15ofPrimitiveMode.eh
00067f90 S __ZN20ofRendererCollection5clearEff
0006ba78 S __ZN20ofRendererCollection5clearEff.eh
00067f10 S __ZN20ofRendererCollection5clearEffff
0006ba58 S __ZN20ofRendererCollection5clearEffff.eh
000674d0 S __ZN20ofRendererCollection5scaleEfff
0006b664 S __ZN20ofRendererCollection5scaleEfff.eh
000676a0 S __ZN20ofRendererCollection6rotateEf
0006b704 S __ZN20ofRendererCollection6rotateEf.eh
00067540 S __ZN20ofRendererCollection6rotateEffff
0006b684 S __ZN20ofRendererCollection6rotateEffff.eh
00066b20 S __ZN20ofRendererCollection6updateEv
0006b370 S __ZN20ofRendererCollection6updateEv.eh
00066ae0 S __ZN20ofRendererCollection7getTypeEv
0006b350 S __ZN20ofRendererCollection7getTypeEv.eh
00067000 S __ZN20ofRendererCollection7popViewEv
0006b4b0 S __ZN20ofRendererCollection7popViewEv.eh
000675b0 S __ZN20ofRendererCollection7rotateXEf
0006b6a4 S __ZN20ofRendererCollection7rotateXEf.eh
00067600 S __ZN20ofRendererCollection7rotateYEf
0006b6c4 S __ZN20ofRendererCollection7rotateYEf.eh
00067650 S __ZN20ofRendererCollection7rotateZEf
0006b6e4 S __ZN20ofRendererCollection7rotateZEf.eh
00067d30 S __ZN20ofRendererCollection8bClearBgEv
0006b99c S __ZN20ofRendererCollection8bClearBgEv.eh
00068040 S __ZN20ofRendererCollection8drawLineEffffff
0006bab8 S __ZN20ofRendererCollection8drawLineEffffff.eh
00066fb0 S __ZN20ofRendererCollection8pushViewEv
0006b490 S __ZN20ofRendererCollection8pushViewEv.eh
00067b40 S __ZN20ofRendererCollection8setColorERK8ofColor_IhE
0006b8f8 S __ZN20ofRendererCollection8setColorERK8ofColor_IhE.eh
00067b90 S __ZN20ofRendererCollection8setColorERK8ofColor_IhEi
0006b918 S __ZN20ofRendererCollection8setColorERK8ofColor_IhEi.eh
00067bf0 S __ZN20ofRendererCollection8setColorEi
0006b938 S __ZN20ofRendererCollection8setColorEi.eh
00067a80 S __ZN20ofRendererCollection8setColorEiii
0006b8b8 S __ZN20ofRendererCollection8setColorEiii.eh
00067ae0 S __ZN20ofRendererCollection8setColorEiiii
0006b8d8 S __ZN20ofRendererCollection8setColorEiiii.eh
00067050 S __ZN20ofRendererCollection8viewportE11ofRectangle
0006b4d0 S __ZN20ofRendererCollection8viewportE11ofRectangle.eh
000670c0 S __ZN20ofRendererCollection8viewportEffffb
0006b4f4 S __ZN20ofRendererCollection8viewportEffffb.eh
000673c0 S __ZN20ofRendererCollection9popMatrixEv
0006b604 S __ZN20ofRendererCollection9popMatrixEv.eh
00067480 S __ZN20ofRendererCollection9translateERK7ofVec3f
0006b644 S __ZN20ofRendererCollection9translateERK7ofVec3f.eh
00067410 S __ZN20ofRendererCollection9translateEfff
0006b624 S __ZN20ofRendererCollection9translateEfff.eh
00066a90 S __ZN20ofRendererCollectionD0Ev
0006b32c S __ZN20ofRendererCollectionD0Ev.eh
00066a50 S __ZN20ofRendererCollectionD1Ev
0006b30c S __ZN20ofRendererCollectionD1Ev.eh
         U __ZN5ofLogC1E10ofLogLevelPKcz
         U __ZN5ofLogD1Ev
00065800 S __ZN5ofPtrI14ofBaseRendererED1Ev
0006a0c0 S __ZN5ofPtrI14ofBaseRendererED1Ev.eh
00065960 S __ZN5ofPtrI15ofCairoRendererED1Ev
0006a1a8 S __ZN5ofPtrI15ofCairoRendererED1Ev.eh
000659b0 S __ZN5ofPtrI20ofRendererCollectionED1Ev
0006a1c8 S __ZN5ofPtrI20ofRendererCollectionED1Ev.eh
         U __ZN6ofMesh10addIndicesEPKji
         U __ZN6ofMesh10addNormalsEPK7ofVec3fi
         U __ZN6ofMesh11addVerticesEPK7ofVec3fi
         U __ZN6ofMesh11usingColorsEv
         U __ZN6ofMesh12addTexCoordsEPK7ofVec2fi
         U __ZN6ofMesh12usingNormalsEv
         U __ZN6ofMesh13usingTexturesEv
         U __ZN6ofMesh4drawEv
         U __ZN6ofMesh5clearEv
         U __ZN6ofMesh7setModeE15ofPrimitiveMode
         U __ZN6ofMesh8addColorERK8ofColor_IfE
         U __ZN6ofMesh9addVertexERK7ofVec3f
         U __ZN6ofMeshC1Ev
         U __ZN6ofMeshD1Ev
         U __ZN6ofPath10newSubPathEv
         U __ZN6ofPath14setStrokeWidthEf
         U __ZN6ofPath16setUseShapeColorEb
         U __ZN6ofPath18setCurveResolutionEi
         U __ZN6ofPath18setPolyWindingModeE17ofPolyWindingMode
         U __ZN6ofPath4drawEv
         U __ZN6ofPath5clearEv
         U __ZN6ofPath5closeEv
         U __ZN6ofPath6lineToERK7ofVec3f
         U __ZN6ofPath6lineToEff
         U __ZN6ofPath6lineToEfff
         U __ZN6ofPath6moveToEfff
         U __ZN6ofPath7curveToERK7ofVec3f
         U __ZN6ofPath7curveToEff
         U __ZN6ofPath7curveToEfff
         U __ZN6ofPath7setModeENS_4ModeE
         U __ZN6ofPath8bezierToERK7ofVec3fS2_S2_
         U __ZN6ofPath8bezierToEffffff
         U __ZN6ofPath8bezierToEfffffffff
         U __ZN6ofPath9setFilledEb
         U __ZN6ofPathC1Ev
000657f0 S __ZN6ofPathD1Ev
0006a0a4 S __ZN6ofPathD1Ev.eh
000685a0 S __ZN6ofPathD2Ev
0006bc00 S __ZN6ofPathD2Ev.eh
000687e0 S __ZN7ofStyleC2Ev
0006bc44 S __ZN7ofStyleC2Ev.eh
00068530 S __ZN7ofStyleD0Ev
0006bbdc S __ZN7ofStyleD0Ev.eh
00065770 S __ZN7ofStyleD1Ev
0006a030 S __ZN7ofStyleD1Ev.eh
         U __ZN8ofColor_IfE5limitEv
         U __ZN8ofColor_IfEC1Ev
         U __ZN8ofColor_IfED1Ev
         U __ZN8ofColor_IhE3setEffff
         U __ZN8ofColor_IhE5limitEv
         U __ZN8ofColor_IhEC1ERKS0_
         U __ZN8ofColor_IhEC1Ev
         U __ZN8ofColor_IhED1Ev
         U __ZNK8ofColor_IhEixEi
         U __ZNKSs7compareEPKc
         U __ZNSs12_M_leak_hardEv
         U __ZNSs4_Rep10_M_destroyERKSaIcE
         U __ZNSs4_Rep20_S_empty_rep_storageE
         U __ZNSsC1EPKcRKSaIcE
         U __ZNSsC1ERKSs
00066480 S __ZNSt11_Deque_baseI11ofRectangleSaIS0_EE15_M_create_nodesEPPS0_S4_
0006b210 S __ZNSt11_Deque_baseI11ofRectangleSaIS0_EE15_M_create_nodesEPPS0_S4_.eh
00066360 S __ZNSt11_Deque_baseI11ofRectangleSaIS0_EE17_M_initialize_mapEm
0006b1ec S __ZNSt11_Deque_baseI11ofRectangleSaIS0_EE17_M_initialize_mapEm.eh
000667f0 S __ZNSt11_Deque_baseI7ofStyleSaIS0_EE15_M_create_nodesEPPS0_S4_
0006b2a0 S __ZNSt11_Deque_baseI7ofStyleSaIS0_EE15_M_create_nodesEPPS0_S4_.eh
000666e0 S __ZNSt11_Deque_baseI7ofStyleSaIS0_EE17_M_initialize_mapEm
0006b27c S __ZNSt11_Deque_baseI7ofStyleSaIS0_EE17_M_initialize_mapEm.eh
000660a0 S __ZNSt15__copy_backwardILb0ESt26random_access_iterator_tagE8__copy_bIP5ofPtrI14ofBaseRendererES6_EET0_T_S8_S7_
0006b088 S __ZNSt15__copy_backwardILb0ESt26random_access_iterator_tagE8__copy_bIP5ofPtrI14ofBaseRendererES6_EET0_T_S8_S7_.eh
00066270 S __ZNSt3tr114__shared_countILN9__gnu_cxx12_Lock_policyE2EEC2IP15ofCairoRendererNS_11_Sp_deleterIS5_EEEET_T0_
0006b158 S __ZNSt3tr114__shared_countILN9__gnu_cxx12_Lock_policyE2EEC2IP15ofCairoRendererNS_11_Sp_deleterIS5_EEEET_T0_.eh
00066160 S __ZNSt3tr114__shared_countILN9__gnu_cxx12_Lock_policyE2EEC2IP20ofRendererCollectionNS_11_Sp_deleterIS5_EEEET_T0_
0006b0a8 S __ZNSt3tr114__shared_countILN9__gnu_cxx12_Lock_policyE2EEC2IP20ofRendererCollectionNS_11_Sp_deleterIS5_EEEET_T0_.eh
00066220 S __ZNSt3tr116_Sp_counted_baseILN9__gnu_cxx12_Lock_policyE2EE10_M_destroyEv
0006b120 S __ZNSt3tr116_Sp_counted_baseILN9__gnu_cxx12_Lock_policyE2EE10_M_destroyEv.eh
00066310 S __ZNSt3tr121_Sp_counted_base_implIP15ofCairoRendererNS_11_Sp_deleterIS1_EELN9__gnu_cxx12_Lock_policyE2EE10_M_disposeEv
0006b1b4 S __ZNSt3tr121_Sp_counted_base_implIP15ofCairoRendererNS_11_Sp_deleterIS1_EELN9__gnu_cxx12_Lock_policyE2EE10_M_disposeEv.eh
00066330 S __ZNSt3tr121_Sp_counted_base_implIP15ofCairoRendererNS_11_Sp_deleterIS1_EELN9__gnu_cxx12_Lock_policyE2EE14_M_get_deleterERKSt9type_info
0006b1d0 S __ZNSt3tr121_Sp_counted_base_implIP15ofCairoRendererNS_11_Sp_deleterIS1_EELN9__gnu_cxx12_Lock_policyE2EE14_M_get_deleterERKSt9type_info.eh
00066300 S __ZNSt3tr121_Sp_counted_base_implIP15ofCairoRendererNS_11_Sp_deleterIS1_EELN9__gnu_cxx12_Lock_policyE2EED0Ev
0006b198 S __ZNSt3tr121_Sp_counted_base_implIP15ofCairoRendererNS_11_Sp_deleterIS1_EELN9__gnu_cxx12_Lock_policyE2EED0Ev.eh
000662f0 S __ZNSt3tr121_Sp_counted_base_implIP15ofCairoRendererNS_11_Sp_deleterIS1_EELN9__gnu_cxx12_Lock_policyE2EED1Ev
0006b17c S __ZNSt3tr121_Sp_counted_base_implIP15ofCairoRendererNS_11_Sp_deleterIS1_EELN9__gnu_cxx12_Lock_policyE2EED1Ev.eh
00066200 S __ZNSt3tr121_Sp_counted_base_implIP20ofRendererCollectionNS_11_Sp_deleterIS1_EELN9__gnu_cxx12_Lock_policyE2EE10_M_disposeEv
0006b104 S __ZNSt3tr121_Sp_counted_base_implIP20ofRendererCollectionNS_11_Sp_deleterIS1_EELN9__gnu_cxx12_Lock_policyE2EE10_M_disposeEv.eh
00066240 S __ZNSt3tr121_Sp_counted_base_implIP20ofRendererCollectionNS_11_Sp_deleterIS1_EELN9__gnu_cxx12_Lock_policyE2EE14_M_get_deleterERKSt9type_info
0006b13c S __ZNSt3tr121_Sp_counted_base_implIP20ofRendererCollectionNS_11_Sp_deleterIS1_EELN9__gnu_cxx12_Lock_policyE2EE14_M_get_deleterERKSt9type_info.eh
000661f0 S __ZNSt3tr121_Sp_counted_base_implIP20ofRendererCollectionNS_11_Sp_deleterIS1_EELN9__gnu_cxx12_Lock_policyE2EED0Ev
0006b0e8 S __ZNSt3tr121_Sp_counted_base_implIP20ofRendererCollectionNS_11_Sp_deleterIS1_EELN9__gnu_cxx12_Lock_policyE2EED0Ev.eh
000661e0 S __ZNSt3tr121_Sp_counted_base_implIP20ofRendererCollectionNS_11_Sp_deleterIS1_EELN9__gnu_cxx12_Lock_policyE2EED1Ev
0006b0cc S __ZNSt3tr121_Sp_counted_base_implIP20ofRendererCollectionNS_11_Sp_deleterIS1_EELN9__gnu_cxx12_Lock_policyE2EED1Ev.eh
00066970 S __ZNSt5dequeI11ofRectangleSaIS0_EE19_M_destroy_data_auxESt15_Deque_iteratorIS0_RS0_PS0_ES6_
0006b2e8 S __ZNSt5dequeI11ofRectangleSaIS0_EE19_M_destroy_data_auxESt15_Deque_iteratorIS0_RS0_PS0_ES6_.eh
000657e0 S __ZNSt5dequeI11ofRectangleSaIS0_EED1Ev
0006a088 S __ZNSt5dequeI11ofRectangleSaIS0_EED1Ev.eh
00066880 S __ZNSt5dequeI11ofRectangleSaIS0_EED2Ev
0006b2c4 S __ZNSt5dequeI11ofRectangleSaIS0_EED2Ev.eh
00065a00 S __ZNSt5dequeI7ofStyleSaIS0_EE17_M_push_front_auxERKS0_
0006b01c S __ZNSt5dequeI7ofStyleSaIS0_EE17_M_push_front_auxERKS0_.eh
00065c70 S __ZNSt5dequeI7ofStyleSaIS0_EE17_M_reallocate_mapEmb
0006b040 S __ZNSt5dequeI7ofStyleSaIS0_EE17_M_reallocate_mapEmb.eh
00066600 S __ZNSt5dequeI7ofStyleSaIS0_EE19_M_destroy_data_auxESt15_Deque_iteratorIS0_RS0_PS0_ES6_
0006b258 S __ZNSt5dequeI7ofStyleSaIS0_EE19_M_destroy_data_auxESt15_Deque_iteratorIS0_RS0_PS0_ES6_.eh
000657d0 S __ZNSt5dequeI7ofStyleSaIS0_EED1Ev
0006a06c S __ZNSt5dequeI7ofStyleSaIS0_EED1Ev.eh
00066510 S __ZNSt5dequeI7ofStyleSaIS0_EED2Ev
0006b234 S __ZNSt5dequeI7ofStyleSaIS0_EED2Ev.eh
00065db0 S __ZNSt6vectorI5ofPtrI14ofBaseRendererESaIS2_EE13_M_insert_auxEN9__gnu_cxx17__normal_iteratorIPS2_S4_EERKS2_
0006b064 S __ZNSt6vectorI5ofPtrI14ofBaseRendererESaIS2_EE13_M_insert_auxEN9__gnu_cxx17__normal_iteratorIPS2_S4_EERKS2_.eh
00068490 S __ZNSt6vectorI5ofPtrI14ofBaseRendererESaIS2_EED2Ev
0006bbb8 S __ZNSt6vectorI5ofPtrI14ofBaseRendererESaIS2_EED2Ev.eh
         U __ZNSt8ios_base4InitC1Ev
         U __ZNSt8ios_base4InitD1Ev
00068740 S __ZSt13__destroy_auxIP10ofPolylineEvT_S2_St12__false_type
0006bc24 S __ZSt13__destroy_auxIP10ofPolylineEvT_S2_St12__false_type.eh
         U __ZSt17__throw_bad_allocv
         U __ZSt20__throw_length_errorPKc
         U __ZSt9terminatev
0006d788 b __ZStL8__ioinit
00069dc0 S __ZTI14ofBaseRenderer
00069dc8 S __ZTI20ofRendererCollection
00069e00 S __ZTI7ofStyle
00069c40 S __ZTINSt3tr111_Mutex_baseILN9__gnu_cxx12_Lock_policyE2EEE
00069c48 S __ZTINSt3tr116_Sp_counted_baseILN9__gnu_cxx12_Lock_policyE2EEE
00069c90 S __ZTINSt3tr121_Sp_counted_base_implIP15ofCairoRendererNS_11_Sp_deleterIS1_EELN9__gnu_cxx12_Lock_policyE2EEE
00069c58 S __ZTINSt3tr121_Sp_counted_base_implIP20ofRendererCollectionNS_11_Sp_deleterIS1_EELN9__gnu_cxx12_Lock_policyE2EEE
00069ff0 S __ZTS14ofBaseRenderer
00069fd0 S __ZTS20ofRendererCollection
0006a001 S __ZTS7ofStyle
00069ec0 S __ZTSNSt3tr111_Mutex_baseILN9__gnu_cxx12_Lock_policyE2EEE
00069fa0 S __ZTSNSt3tr111_Sp_deleterI15ofCairoRendererEE
00069f00 S __ZTSNSt3tr111_Sp_deleterI20ofRendererCollectionEE
00069e80 S __ZTSNSt3tr116_Sp_counted_baseILN9__gnu_cxx12_Lock_policyE2EEE
00069f30 S __ZTSNSt3tr121_Sp_counted_base_implIP15ofCairoRendererNS_11_Sp_deleterIS1_EELN9__gnu_cxx12_Lock_policyE2EEE
00069e10 S __ZTSNSt3tr121_Sp_counted_base_implIP20ofRendererCollectionNS_11_Sp_deleterIS1_EELN9__gnu_cxx12_Lock_policyE2EEE
00069ca0 S __ZTV20ofRendererCollection
00069df0 S __ZTV7ofStyle
         U __ZTVN10__cxxabiv117__class_type_infoE
         U __ZTVN10__cxxabiv120__si_class_type_infoE
00069c70 S __ZTVNSt3tr121_Sp_counted_base_implIP15ofCairoRendererNS_11_Sp_deleterIS1_EELN9__gnu_cxx12_Lock_policyE2EEE
00069c20 S __ZTVNSt3tr121_Sp_counted_base_implIP20ofRendererCollectionNS_11_Sp_deleterIS1_EELN9__gnu_cxx12_Lock_policyE2EEE
0006db20 b __ZZ5ofBoxfE1n
0006da58 b __ZZ5ofBoxfE3tex
00065680 d __ZZ5ofBoxfE7indices
00065710 d __ZZ5ofBoxfE7indices14
0006d92c b __ZZ5ofBoxfE7normals
0006db30 b __ZZ5ofBoxfE7normals12
00069dd4 S __ZZN20ofRendererCollection10getBgColorEvE1c
         U __ZdlPv
         U __Znwm
         U ___cxa_atexit
         U ___cxa_begin_catch
         U ___cxa_end_catch
         U ___cxa_guard_abort
         U ___cxa_guard_acquire
         U ___cxa_guard_release
         U ___cxa_rethrow
         U ___dso_handle
         U ___gxx_personality_v0
         U _cosf
         U _glDepthMask
         U _glDisable
         U _glutSolidCone
         U _glutWireCone
         U _memmove
         U _sinf
         U _sqrtf

../../../libs/openFrameworksCompiled/lib/osx/openFrameworks.a(ofImage.o):
0004efcc s EH_frame0
0004f010 s EH_frame1
000447cc s GCC_except_table0
00044b38 s GCC_except_table10
000456f0 s GCC_except_table100
00045710 s GCC_except_table101
00045730 s GCC_except_table103
0004578c s GCC_except_table105
000457e8 s GCC_except_table106
00045844 s GCC_except_table107
00045870 s GCC_except_table108
000458cc s GCC_except_table109
00044ba0 s GCC_except_table11
00045934 s GCC_except_table110
0004597c s GCC_except_table111
000459e4 s GCC_except_table113
00045a40 s GCC_except_table116
00044bec s GCC_except_table12
00045a9c s GCC_except_table126
00045ac8 s GCC_except_table127
00045af4 s GCC_except_table128
00044ca4 s GCC_except_table13
00045b20 s GCC_except_table136
00044d5c s GCC_except_table14
00045b6c s GCC_except_table164
00045be0 s GCC_except_table165
00045c54 s GCC_except_table166
00045cb0 s GCC_except_table167
00045d0c s GCC_except_table168
00045d2c s GCC_except_table169
00045d4c s GCC_except_table170
00045d6c s GCC_except_table171
00045d8c s GCC_except_table172
00045e00 s GCC_except_table173
00045e20 s GCC_except_table174
00045e40 s GCC_except_table176
00045e9c s GCC_except_table178
00045ef8 s GCC_except_table179
00045f54 s GCC_except_table180
00045f80 s GCC_except_table181
00045fdc s GCC_except_table182
00046044 s GCC_except_table183
0004608c s GCC_except_table184
000460f4 s GCC_except_table186
00046150 s GCC_except_table189
00044e14 s GCC_except_table19
000461ac s GCC_except_table199
000447f8 s GCC_except_table2
00044e70 s GCC_except_table20
000461d8 s GCC_except_table200
00046204 s GCC_except_table201
00046230 s GCC_except_table209
00044ecc s GCC_except_table21
00044eec s GCC_except_table22
00044f0c s GCC_except_table23
0004627c s GCC_except_table237
000462f0 s GCC_except_table238
00044f2c s GCC_except_table24
00044f4c s GCC_except_table25
00044fc0 s GCC_except_table26
00046364 s GCC_except_table261
00044fe0 s GCC_except_table27
00045000 s GCC_except_table29
0004486c s GCC_except_table3
0004505c s GCC_except_table31
000450b8 s GCC_except_table32
00045114 s GCC_except_table33
00045140 s GCC_except_table34
0004519c s GCC_except_table35
00045204 s GCC_except_table36
0004524c s GCC_except_table37
000452b4 s GCC_except_table39
000448e0 s GCC_except_table4
00045310 s GCC_except_table42
0004536c s GCC_except_table51
0004538c s GCC_except_table53
000453b8 s GCC_except_table54
000453e4 s GCC_except_table55
000449a8 s GCC_except_table6
00045410 s GCC_except_table63
00044a70 s GCC_except_table8
0004545c s GCC_except_table91
000454d0 s GCC_except_table92
00045544 s GCC_except_table93
000455a0 s GCC_except_table94
000455fc s GCC_except_table95
0004561c s GCC_except_table96
0004563c s GCC_except_table97
0004565c s GCC_except_table98
0004567c s GCC_except_table99
         U _FreeImage_AcquireMemory
         U _FreeImage_AllocateT
         U _FreeImage_CloseMemory
         U _FreeImage_ColorQuantize
         U _FreeImage_ConvertTo24Bits
         U _FreeImage_ConvertTo32Bits
         U _FreeImage_ConvertTo8Bits
         U _FreeImage_ConvertToGreyscale
         U _FreeImage_DeInitialise
         U _FreeImage_FIFSupportsReading
         U _FreeImage_FlipVertical
         U _FreeImage_GetBPP
         U _FreeImage_GetBits
         U _FreeImage_GetColorType
         U _FreeImage_GetFIFFromFilename
         U _FreeImage_GetFileType
         U _FreeImage_GetFileTypeFromMemory
         U _FreeImage_GetHeight
         U _FreeImage_GetPitch
         U _FreeImage_GetWidth
         U _FreeImage_Initialise
         U _FreeImage_IsTransparent
         U _FreeImage_Load
         U _FreeImage_LoadFromMemory
         U _FreeImage_OpenMemory
         U _FreeImage_Rescale
         U _FreeImage_Save
         U _FreeImage_SaveToMemory
         U _FreeImage_Unload
0004e680 s __GLOBAL__I_a
000510b0 s __GLOBAL__I_a.eh
         U __Unwind_Resume
00000c60 T __Z11ofLoadImageR9ofPixels_IfERK8ofBuffer
0004f0f4 S __Z11ofLoadImageR9ofPixels_IfERK8ofBuffer.eh
000008d0 T __Z11ofLoadImageR9ofPixels_IfESs
0004f0d0 S __Z11ofLoadImageR9ofPixels_IfESs.eh
000007d0 T __Z11ofLoadImageR9ofPixels_IhERK8ofBuffer
0004f0b0 S __Z11ofLoadImageR9ofPixels_IhERK8ofBuffer.eh
00000440 T __Z11ofLoadImageR9ofPixels_IhESs
0004f08c S __Z11ofLoadImageR9ofPixels_IhESs.eh
000010f0 T __Z11ofLoadImageR9ofPixels_ItERK8ofBuffer
0004f138 S __Z11ofLoadImageR9ofPixels_ItERK8ofBuffer.eh
00000d60 T __Z11ofLoadImageR9ofPixels_ItESs
0004f114 S __Z11ofLoadImageR9ofPixels_ItESs.eh
00001300 T __Z11ofLoadImageR9ofTextureRK8ofBuffer
0004f17c S __Z11ofLoadImageR9ofTextureRK8ofBuffer.eh
000011f0 T __Z11ofLoadImageR9ofTextureSs
0004f158 S __Z11ofLoadImageR9ofTextureSs.eh
000023a0 T __Z11ofSaveImageR9ofPixels_IfER8ofBuffer13ofImageFormat18ofImageQualityType
0004f22c S __Z11ofSaveImageR9ofPixels_IfER8ofBuffer13ofImageFormat18ofImageQualityType.eh
00001860 T __Z11ofSaveImageR9ofPixels_IfESs18ofImageQualityType
0004f1c4 S __Z11ofSaveImageR9ofPixels_IfESs18ofImageQualityType.eh
000021c0 T __Z11ofSaveImageR9ofPixels_IhER8ofBuffer13ofImageFormat18ofImageQualityType
0004f20c S __Z11ofSaveImageR9ofPixels_IhER8ofBuffer13ofImageFormat18ofImageQualityType.eh
000013a0 T __Z11ofSaveImageR9ofPixels_IhESs18ofImageQualityType
0004f1a0 S __Z11ofSaveImageR9ofPixels_IhESs18ofImageQualityType.eh
00002570 T __Z11ofSaveImageR9ofPixels_ItER8ofBuffer13ofImageFormat18ofImageQualityType
0004f24c S __Z11ofSaveImageR9ofPixels_ItER8ofBuffer13ofImageFormat18ofImageQualityType.eh
00001d10 T __Z11ofSaveImageR9ofPixels_ItESs18ofImageQualityType
0004f1e8 S __Z11ofSaveImageR9ofPixels_ItESs18ofImageQualityType.eh
         U __Z12ofToDataPathSsb
00000000 T __Z15ofInitFreeImageb
0004efec S __Z15ofInitFreeImageb.eh
0004b450 S __Z16getBmpFromPixelsIfEP8FIBITMAPR9ofPixels_IT_E
00050444 S __Z16getBmpFromPixelsIfEP8FIBITMAPR9ofPixels_IT_E.eh
00048a30 S __Z16getBmpFromPixelsIhEP8FIBITMAPR9ofPixels_IT_E
0004fb54 S __Z16getBmpFromPixelsIhEP8FIBITMAPR9ofPixels_IT_E.eh
0004de60 S __Z16getBmpFromPixelsItEP8FIBITMAPR9ofPixels_IT_E
00050d34 S __Z16getBmpFromPixelsItEP8FIBITMAPR9ofPixels_IT_E.eh
00000280 T __Z16getFreeImageTypeIfE15FREE_IMAGE_TYPER9ofPixels_IT_E
0004f068 S __Z16getFreeImageTypeIfE15FREE_IMAGE_TYPER9ofPixels_IT_E.eh
000000b0 T __Z16getFreeImageTypeIhE15FREE_IMAGE_TYPER9ofPixels_IT_E
0004f028 S __Z16getFreeImageTypeIhE15FREE_IMAGE_TYPER9ofPixels_IT_E.eh
000000c0 T __Z16getFreeImageTypeItE15FREE_IMAGE_TYPER9ofPixels_IT_E
0004f044 S __Z16getFreeImageTypeItE15FREE_IMAGE_TYPER9ofPixels_IT_E.eh
00002740 T __Z16ofCloseFreeImagev
0004f26c S __Z16ofCloseFreeImagev.eh
0004b680 S __Z16putBmpIntoPixelsIfEvP8FIBITMAPR9ofPixels_IT_Eb
00050468 S __Z16putBmpIntoPixelsIfEvP8FIBITMAPR9ofPixels_IT_Eb.eh
00048c50 S __Z16putBmpIntoPixelsIhEvP8FIBITMAPR9ofPixels_IT_Eb
0004fb78 S __Z16putBmpIntoPixelsIhEvP8FIBITMAPR9ofPixels_IT_Eb.eh
0004e090 S __Z16putBmpIntoPixelsItEvP8FIBITMAPR9ofPixels_IT_Eb
00050d58 S __Z16putBmpIntoPixelsItEvP8FIBITMAPR9ofPixels_IT_Eb.eh
         U __Z18ofGetViewportWidthv
         U __Z19ofGetViewportHeightv
         U __Z20ofGetCurrentRendererv
         U __Z21ofGetGlInternalFormatRK9ofPixels_IfE
         U __Z21ofGetGlInternalFormatRK9ofPixels_IhE
         U __Z21ofGetGlInternalFormatRK9ofPixels_ItE
         U __Z7ofClampfff
         U __Z9ofLoadURLSs
000519b8 b __ZGVZ15ofInitFreeImagebE16bFreeImageInited
         U __ZN10ofLogErrorC1ERKSs
0004e3b0 S __ZN11ofBaseDraws11resetAnchorEv
00050e40 S __ZN11ofBaseDraws11resetAnchorEv.eh
0004e3a0 S __ZN11ofBaseDraws14setAnchorPointEff
00050e24 S __ZN11ofBaseDraws14setAnchorPointEff.eh
0004e390 S __ZN11ofBaseDraws16setAnchorPercentEff
00050e08 S __ZN11ofBaseDraws16setAnchorPercentEff.eh
0004e2d0 S __ZN11ofBaseDraws4drawERK11ofRectangle
00050d98 S __ZN11ofBaseDraws4drawERK11ofRectangle.eh
0004e2a0 S __ZN11ofBaseDraws4drawERK7ofVec3f
00050d7c S __ZN11ofBaseDraws4drawERK7ofVec3f.eh
0004e320 S __ZN11ofBaseDraws4drawERK7ofVec3fff
00050db4 S __ZN11ofBaseDraws4drawERK7ofVec3fff.eh
0004e400 S __ZN12ofBaseImage_IfED0Ev
00050eb0 S __ZN12ofBaseImage_IfED0Ev.eh
0004e3f0 S __ZN12ofBaseImage_IfED1Ev
00050e94 S __ZN12ofBaseImage_IfED1Ev.eh
0004e380 S __ZN12ofBaseImage_IhED0Ev
00050dec S __ZN12ofBaseImage_IhED0Ev.eh
0004e370 S __ZN12ofBaseImage_IhED1Ev
00050dd0 S __ZN12ofBaseImage_IhED1Ev.eh
0004e450 S __ZN12ofBaseImage_ItED0Ev
00050f20 S __ZN12ofBaseImage_ItED0Ev.eh
0004e440 S __ZN12ofBaseImage_ItED1Ev
00050f04 S __ZN12ofBaseImage_ItED1Ev.eh
         U __ZN12ofLogWarningC1ERKSs
0004e4f0 S __ZN14ofHttpResponseD2Ev
00050fe4 S __ZN14ofHttpResponseD2Ev.eh
0004e640 S __ZN15ofAbstractImageD0Ev
0005105c S __ZN15ofAbstractImageD0Ev.eh
0004e630 S __ZN15ofAbstractImageD1Ev
00051040 S __ZN15ofAbstractImageD1Ev.eh
         U __ZN5ofLog7paddingE
         U __ZN5ofLogC1E10ofLogLevelPKcz
         U __ZN5ofLogC1E10ofLogLevelRKSs
         U __ZN5ofLogD1Ev
         U __ZN5ofLogD2Ev
         U __ZN8ofBuffer3setEPKci
         U __ZN8ofBufferD1Ev
         U __ZN8ofColor_IfEC1ERKS0_
         U __ZN8ofColor_IfED1Ev
         U __ZN8ofColor_IhEC1ERKS0_
         U __ZN8ofColor_IhED1Ev
         U __ZN8ofColor_ItEC1ERKS0_
         U __ZN8ofColor_ItED1Ev
0004b300 S __ZN8ofImage_IfE10bAllocatedEv
000503cc S __ZN8ofImage_IfE10bAllocatedEv.eh
0004a8f0 S __ZN8ofImage_IfE10grabScreenEiiii
000501c8 S __ZN8ofImage_IfE10grabScreenEiiii.eh
0004b320 S __ZN8ofImage_IfE11isAllocatedEv
000503e8 S __ZN8ofImage_IfE11isAllocatedEv.eh
0004ae20 S __ZN8ofImage_IfE11resetAnchorEv
00050298 S __ZN8ofImage_IfE11resetAnchorEv.eh
0004a510 S __ZN8ofImage_IfE12getPixelsRefEv
00050098 S __ZN8ofImage_IfE12getPixelsRefEv.eh
0004a880 S __ZN8ofImage_IfE12resizePixelsER9ofPixels_IfEii
000501a8 S __ZN8ofImage_IfE12resizePixelsER9ofPixels_IfEii.eh
0004a640 S __ZN8ofImage_IfE12setImageTypeE11ofImageType
0005014c S __ZN8ofImage_IfE12setImageTypeE11ofImageType.eh
0004b340 S __ZN8ofImage_IfE13reloadTextureEv
00050404 S __ZN8ofImage_IfE13reloadTextureEv.eh
0004a5e0 S __ZN8ofImage_IfE13setFromPixelsEPKfii11ofImageTypeb
0005012c S __ZN8ofImage_IfE13setFromPixelsEPKfii11ofImageTypeb.eh
000493b0 S __ZN8ofImage_IfE13setFromPixelsERK9ofPixels_IfE
0004fd14 S __ZN8ofImage_IfE13setFromPixelsERK9ofPixels_IfE.eh
0004a0e0 S __ZN8ofImage_IfE13setUseTextureEb
0004fef4 S __ZN8ofImage_IfE13setUseTextureEb.eh
0004b130 S __ZN8ofImage_IfE14drawSubsectionEffffff
00050340 S __ZN8ofImage_IfE14drawSubsectionEffffff.eh
0004b1b0 S __ZN8ofImage_IfE14drawSubsectionEfffffff
0005035c S __ZN8ofImage_IfE14drawSubsectionEfffffff.eh
0004b230 S __ZN8ofImage_IfE14drawSubsectionEffffffff
00050378 S __ZN8ofImage_IfE14drawSubsectionEffffffff.eh
0004b0a0 S __ZN8ofImage_IfE14drawSubsectionEfffffffff
00050324 S __ZN8ofImage_IfE14drawSubsectionEfffffffff.eh
0004a100 S __ZN8ofImage_IfE14isUsingTextureEv
0004ff2c S __ZN8ofImage_IfE14isUsingTextureEv.eh
0004ade0 S __ZN8ofImage_IfE14setAnchorPointEff
0005027c S __ZN8ofImage_IfE14setAnchorPointEff.eh
0004a4a0 S __ZN8ofImage_IfE14setCompressionE16ofTexCompression
00050044 S __ZN8ofImage_IfE14setCompressionE16ofTexCompression.eh
0004ada0 S __ZN8ofImage_IfE16setAnchorPercentEff
00050260 S __ZN8ofImage_IfE16setAnchorPercentEff.eh
0004a670 S __ZN8ofImage_IfE18changeTypeOfPixelsER9ofPixels_IfE11ofImageType
00050168 S __ZN8ofImage_IfE18changeTypeOfPixelsER9ofPixels_IfE11ofImageType.eh
0004a110 S __ZN8ofImage_IfE19getTextureReferenceEv
0004ff48 S __ZN8ofImage_IfE19getTextureReferenceEv.eh
0004a130 S __ZN8ofImage_IfE4bindEv
0004ff80 S __ZN8ofImage_IfE4bindEv.eh
0004aae0 S __ZN8ofImage_IfE4cropEiiii
000501e8 S __ZN8ofImage_IfE4cropEiiii.eh
0004ae40 S __ZN8ofImage_IfE4drawEff
000502b4 S __ZN8ofImage_IfE4drawEff.eh
0004af70 S __ZN8ofImage_IfE4drawEfff
000502ec S __ZN8ofImage_IfE4drawEfff.eh
0004b010 S __ZN8ofImage_IfE4drawEffff
00050308 S __ZN8ofImage_IfE4drawEffff.eh
0004aee0 S __ZN8ofImage_IfE4drawEfffff
000502d0 S __ZN8ofImage_IfE4drawEfffff.eh
00049240 S __ZN8ofImage_IfE5clearEv
0004fcd4 S __ZN8ofImage_IfE5clearEv.eh
00049de0 S __ZN8ofImage_IfE5cloneIfEEvRKS_IT_E
0004fe74 S __ZN8ofImage_IfE5cloneIfEEvRKS_IT_E.eh
0004ad60 S __ZN8ofImage_IfE6mirrorEbb
00050244 S __ZN8ofImage_IfE6mirrorEbb.eh
0004a7a0 S __ZN8ofImage_IfE6resizeEii
00050188 S __ZN8ofImage_IfE6resizeEii.eh
0004a160 S __ZN8ofImage_IfE6unbindEv
0004ff9c S __ZN8ofImage_IfE6unbindEv.eh
00049e70 S __ZN8ofImage_IfE6updateEv
0004fe94 S __ZN8ofImage_IfE6updateEv.eh
00049c40 S __ZN8ofImage_IfE8allocateEii11ofImageType
0004fe30 S __ZN8ofImage_IfE8allocateEii11ofImageType.eh
0004ab80 S __ZN8ofImage_IfE8cropFromERS0_iiii
00050204 S __ZN8ofImage_IfE8cropFromERS0_iiii.eh
0004b2e0 S __ZN8ofImage_IfE8getWidthEv
000503b0 S __ZN8ofImage_IfE8getWidthEv.eh
0004acb0 S __ZN8ofImage_IfE8rotate90Ei
00050224 S __ZN8ofImage_IfE8rotate90Ei.eh
0004a580 S __ZN8ofImage_IfE8setColorEii8ofColor_IfE
00050108 S __ZN8ofImage_IfE8setColorEii8ofColor_IfE.eh
0004b2c0 S __ZN8ofImage_IfE9getHeightEv
00050394 S __ZN8ofImage_IfE9getHeightEv.eh
0004a4d0 S __ZN8ofImage_IfE9getPixelsEv
00050060 S __ZN8ofImage_IfE9getPixelsEv.eh
00049630 S __ZN8ofImage_IfE9loadImageERK6ofFile
0004fd7c S __ZN8ofImage_IfE9loadImageERK6ofFile.eh
0004a190 S __ZN8ofImage_IfE9loadImageERK8ofBuffer
0004ffb8 S __ZN8ofImage_IfE9loadImageERK8ofBuffer.eh
000498e0 S __ZN8ofImage_IfE9loadImageESs
0004fde8 S __ZN8ofImage_IfE9loadImageESs.eh
0004a340 S __ZN8ofImage_IfE9saveImageER8ofBuffer18ofImageQualityType
0004fffc S __ZN8ofImage_IfE9saveImageER8ofBuffer18ofImageQualityType.eh
0004a3f0 S __ZN8ofImage_IfE9saveImageERK6ofFile18ofImageQualityType
00050020 S __ZN8ofImage_IfE9saveImageERK6ofFile18ofImageQualityType.eh
0004a2a0 S __ZN8ofImage_IfE9saveImageESs18ofImageQualityType
0004ffd8 S __ZN8ofImage_IfE9saveImageESs18ofImageQualityType.eh
00049580 S __ZN8ofImage_IfEC1ERK6ofFile
0004fd58 S __ZN8ofImage_IfEC1ERK6ofFile.eh
00049290 S __ZN8ofImage_IfEC1ERK9ofPixels_IfE
0004fcf0 S __ZN8ofImage_IfEC1ERK9ofPixels_IfE.eh
00049d10 S __ZN8ofImage_IfEC1ERKS0_
0004fe50 S __ZN8ofImage_IfEC1ERKS0_.eh
000497b0 S __ZN8ofImage_IfEC1ERKSs
0004fdc4 S __ZN8ofImage_IfEC1ERKSs.eh
00048e70 S __ZN8ofImage_IfEC1Ev
0004fb9c S __ZN8ofImage_IfEC1Ev.eh
000496d0 S __ZN8ofImage_IfEC2ERK6ofFile
0004fda0 S __ZN8ofImage_IfEC2ERK6ofFile.eh
00049430 S __ZN8ofImage_IfEC2ERK9ofPixels_IfE
0004fd34 S __ZN8ofImage_IfEC2ERK9ofPixels_IfE.eh
00049fb0 S __ZN8ofImage_IfEC2ERKS0_
0004feb4 S __ZN8ofImage_IfEC2ERKS0_.eh
00049ae0 S __ZN8ofImage_IfEC2ERKSs
0004fe0c S __ZN8ofImage_IfEC2ERKSs.eh
00048f10 S __ZN8ofImage_IfEC2Ev
0004fbc0 S __ZN8ofImage_IfEC2Ev.eh
00048fe0 S __ZN8ofImage_IfED0Ev
0004fbe4 S __ZN8ofImage_IfED0Ev.eh
00049020 S __ZN8ofImage_IfED1Ev
0004fc08 S __ZN8ofImage_IfED1Ev.eh
000490f0 S __ZN8ofImage_IfED2Ev
0004fc70 S __ZN8ofImage_IfED2Ev.eh
0004b3c0 S __ZN8ofImage_IfEaSER9ofPixels_IfE
00050424 S __ZN8ofImage_IfEaSER9ofPixels_IfE.eh
0004a0b0 S __ZN8ofImage_IfEaSERKS0_
0004fed8 S __ZN8ofImage_IfEaSERKS0_.eh
0004a540 S __ZN8ofImage_IfEcvR9ofPixels_IfEEv
000500d0 S __ZN8ofImage_IfEcvR9ofPixels_IfEEv.eh
000488e0 S __ZN8ofImage_IhE10bAllocatedEv
0004fadc S __ZN8ofImage_IhE10bAllocatedEv.eh
00047ed0 S __ZN8ofImage_IhE10grabScreenEiiii
0004f8d8 S __ZN8ofImage_IhE10grabScreenEiiii.eh
00048900 S __ZN8ofImage_IhE11isAllocatedEv
0004faf8 S __ZN8ofImage_IhE11isAllocatedEv.eh
00048400 S __ZN8ofImage_IhE11resetAnchorEv
0004f9a8 S __ZN8ofImage_IhE11resetAnchorEv.eh
00047ae0 S __ZN8ofImage_IhE12getPixelsRefEv
0004f7a8 S __ZN8ofImage_IhE12getPixelsRefEv.eh
00047e60 S __ZN8ofImage_IhE12resizePixelsER9ofPixels_IhEii
0004f8b8 S __ZN8ofImage_IhE12resizePixelsER9ofPixels_IhEii.eh
00047c20 S __ZN8ofImage_IhE12setImageTypeE11ofImageType
0004f85c S __ZN8ofImage_IhE12setImageTypeE11ofImageType.eh
00048920 S __ZN8ofImage_IhE13reloadTextureEv
0004fb14 S __ZN8ofImage_IhE13reloadTextureEv.eh
00047bb0 S __ZN8ofImage_IhE13setFromPixelsEPKhii11ofImageTypeb
0004f83c S __ZN8ofImage_IhE13setFromPixelsEPKhii11ofImageTypeb.eh
000468d0 S __ZN8ofImage_IhE13setFromPixelsERK9ofPixels_IhE
0004f400 S __ZN8ofImage_IhE13setFromPixelsERK9ofPixels_IhE.eh
00047600 S __ZN8ofImage_IhE13setUseTextureEb
0004f5e0 S __ZN8ofImage_IhE13setUseTextureEb.eh
00048710 S __ZN8ofImage_IhE14drawSubsectionEffffff
0004fa50 S __ZN8ofImage_IhE14drawSubsectionEffffff.eh
00048790 S __ZN8ofImage_IhE14drawSubsectionEfffffff
0004fa6c S __ZN8ofImage_IhE14drawSubsectionEfffffff.eh
00048810 S __ZN8ofImage_IhE14drawSubsectionEffffffff
0004fa88 S __ZN8ofImage_IhE14drawSubsectionEffffffff.eh
00048680 S __ZN8ofImage_IhE14drawSubsectionEfffffffff
0004fa34 S __ZN8ofImage_IhE14drawSubsectionEfffffffff.eh
00047620 S __ZN8ofImage_IhE14isUsingTextureEv
0004f618 S __ZN8ofImage_IhE14isUsingTextureEv.eh
000483c0 S __ZN8ofImage_IhE14setAnchorPointEff
0004f98c S __ZN8ofImage_IhE14setAnchorPointEff.eh
00047a70 S __ZN8ofImage_IhE14setCompressionE16ofTexCompression
0004f754 S __ZN8ofImage_IhE14setCompressionE16ofTexCompression.eh
00048380 S __ZN8ofImage_IhE16setAnchorPercentEff
0004f970 S __ZN8ofImage_IhE16setAnchorPercentEff.eh
00047c50 S __ZN8ofImage_IhE18changeTypeOfPixelsER9ofPixels_IhE11ofImageType
0004f878 S __ZN8ofImage_IhE18changeTypeOfPixelsER9ofPixels_IhE11ofImageType.eh
00047630 S __ZN8ofImage_IhE19getTextureReferenceEv
0004f634 S __ZN8ofImage_IhE19getTextureReferenceEv.eh
00047650 S __ZN8ofImage_IhE4bindEv
0004f66c S __ZN8ofImage_IhE4bindEv.eh
000480c0 S __ZN8ofImage_IhE4cropEiiii
0004f8f8 S __ZN8ofImage_IhE4cropEiiii.eh
00048420 S __ZN8ofImage_IhE4drawEff
0004f9c4 S __ZN8ofImage_IhE4drawEff.eh
00048550 S __ZN8ofImage_IhE4drawEfff
0004f9fc S __ZN8ofImage_IhE4drawEfff.eh
000485f0 S __ZN8ofImage_IhE4drawEffff
0004fa18 S __ZN8ofImage_IhE4drawEffff.eh
000484c0 S __ZN8ofImage_IhE4drawEfffff
0004f9e0 S __ZN8ofImage_IhE4drawEfffff.eh
00046760 S __ZN8ofImage_IhE5clearEv
0004f3c0 S __ZN8ofImage_IhE5clearEv.eh
00047300 S __ZN8ofImage_IhE5cloneIhEEvRKS_IT_E
0004f560 S __ZN8ofImage_IhE5cloneIhEEvRKS_IT_E.eh
00048340 S __ZN8ofImage_IhE6mirrorEbb
0004f954 S __ZN8ofImage_IhE6mirrorEbb.eh
00047d80 S __ZN8ofImage_IhE6resizeEii
0004f898 S __ZN8ofImage_IhE6resizeEii.eh
00047680 S __ZN8ofImage_IhE6unbindEv
0004f688 S __ZN8ofImage_IhE6unbindEv.eh
00047390 S __ZN8ofImage_IhE6updateEv
0004f580 S __ZN8ofImage_IhE6updateEv.eh
00047160 S __ZN8ofImage_IhE8allocateEii11ofImageType
0004f51c S __ZN8ofImage_IhE8allocateEii11ofImageType.eh
00048160 S __ZN8ofImage_IhE8cropFromERS0_iiii
0004f914 S __ZN8ofImage_IhE8cropFromERS0_iiii.eh
000488c0 S __ZN8ofImage_IhE8getWidthEv
0004fac0 S __ZN8ofImage_IhE8getWidthEv.eh
00048290 S __ZN8ofImage_IhE8rotate90Ei
0004f934 S __ZN8ofImage_IhE8rotate90Ei.eh
00047b50 S __ZN8ofImage_IhE8setColorEii8ofColor_IhE
0004f818 S __ZN8ofImage_IhE8setColorEii8ofColor_IhE.eh
000488a0 S __ZN8ofImage_IhE9getHeightEv
0004faa4 S __ZN8ofImage_IhE9getHeightEv.eh
00047aa0 S __ZN8ofImage_IhE9getPixelsEv
0004f770 S __ZN8ofImage_IhE9getPixelsEv.eh
00046b50 S __ZN8ofImage_IhE9loadImageERK6ofFile
0004f468 S __ZN8ofImage_IhE9loadImageERK6ofFile.eh
00047760 S __ZN8ofImage_IhE9loadImageERK8ofBuffer
0004f6c8 S __ZN8ofImage_IhE9loadImageERK8ofBuffer.eh
00046e00 S __ZN8ofImage_IhE9loadImageESs
0004f4d4 S __ZN8ofImage_IhE9loadImageESs.eh
00047910 S __ZN8ofImage_IhE9saveImageER8ofBuffer18ofImageQualityType
0004f70c S __ZN8ofImage_IhE9saveImageER8ofBuffer18ofImageQualityType.eh
000479c0 S __ZN8ofImage_IhE9saveImageERK6ofFile18ofImageQualityType
0004f730 S __ZN8ofImage_IhE9saveImageERK6ofFile18ofImageQualityType.eh
00047870 S __ZN8ofImage_IhE9saveImageESs18ofImageQualityType
0004f6e8 S __ZN8ofImage_IhE9saveImageESs18ofImageQualityType.eh
00046aa0 S __ZN8ofImage_IhEC1ERK6ofFile
0004f444 S __ZN8ofImage_IhEC1ERK6ofFile.eh
000467b0 S __ZN8ofImage_IhEC1ERK9ofPixels_IhE
0004f3dc S __ZN8ofImage_IhEC1ERK9ofPixels_IhE.eh
00047230 S __ZN8ofImage_IhEC1ERKS0_
0004f53c S __ZN8ofImage_IhEC1ERKS0_.eh
00046cd0 S __ZN8ofImage_IhEC1ERKSs
0004f4b0 S __ZN8ofImage_IhEC1ERKSs.eh
00046390 S __ZN8ofImage_IhEC1Ev
0004f288 S __ZN8ofImage_IhEC1Ev.eh
00046bf0 S __ZN8ofImage_IhEC2ERK6ofFile
0004f48c S __ZN8ofImage_IhEC2ERK6ofFile.eh
00046950 S __ZN8ofImage_IhEC2ERK9ofPixels_IhE
0004f420 S __ZN8ofImage_IhEC2ERK9ofPixels_IhE.eh
000474d0 S __ZN8ofImage_IhEC2ERKS0_
0004f5a0 S __ZN8ofImage_IhEC2ERKS0_.eh
00047000 S __ZN8ofImage_IhEC2ERKSs
0004f4f8 S __ZN8ofImage_IhEC2ERKSs.eh
00046430 S __ZN8ofImage_IhEC2Ev
0004f2ac S __ZN8ofImage_IhEC2Ev.eh
00046500 S __ZN8ofImage_IhED0Ev
0004f2d0 S __ZN8ofImage_IhED0Ev.eh
00046540 S __ZN8ofImage_IhED1Ev
0004f2f4 S __ZN8ofImage_IhED1Ev.eh
00046610 S __ZN8ofImage_IhED2Ev
0004f35c S __ZN8ofImage_IhED2Ev.eh
000489a0 S __ZN8ofImage_IhEaSER9ofPixels_IhE
0004fb34 S __ZN8ofImage_IhEaSER9ofPixels_IhE.eh
000475d0 S __ZN8ofImage_IhEaSERKS0_
0004f5c4 S __ZN8ofImage_IhEaSERKS0_.eh
00047b10 S __ZN8ofImage_IhEcvR9ofPixels_IhEEv
0004f7e0 S __ZN8ofImage_IhEcvR9ofPixels_IhEEv.eh
0004dd10 S __ZN8ofImage_ItE10bAllocatedEv
00050cbc S __ZN8ofImage_ItE10bAllocatedEv.eh
0004d310 S __ZN8ofImage_ItE10grabScreenEiiii
00050ab8 S __ZN8ofImage_ItE10grabScreenEiiii.eh
0004dd30 S __ZN8ofImage_ItE11isAllocatedEv
00050cd8 S __ZN8ofImage_ItE11isAllocatedEv.eh
0004d830 S __ZN8ofImage_ItE11resetAnchorEv
00050b88 S __ZN8ofImage_ItE11resetAnchorEv.eh
0004cf30 S __ZN8ofImage_ItE12getPixelsRefEv
00050988 S __ZN8ofImage_ItE12getPixelsRefEv.eh
0004d2a0 S __ZN8ofImage_ItE12resizePixelsER9ofPixels_ItEii
00050a98 S __ZN8ofImage_ItE12resizePixelsER9ofPixels_ItEii.eh
0004d060 S __ZN8ofImage_ItE12setImageTypeE11ofImageType
00050a3c S __ZN8ofImage_ItE12setImageTypeE11ofImageType.eh
0004dd50 S __ZN8ofImage_ItE13reloadTextureEv
00050cf4 S __ZN8ofImage_ItE13reloadTextureEv.eh
0004d000 S __ZN8ofImage_ItE13setFromPixelsEPKtii11ofImageTypeb
00050a1c S __ZN8ofImage_ItE13setFromPixelsEPKtii11ofImageTypeb.eh
0004bdd0 S __ZN8ofImage_ItE13setFromPixelsERK9ofPixels_ItE
00050604 S __ZN8ofImage_ItE13setFromPixelsERK9ofPixels_ItE.eh
0004cb00 S __ZN8ofImage_ItE13setUseTextureEb
000507e4 S __ZN8ofImage_ItE13setUseTextureEb.eh
0004db40 S __ZN8ofImage_ItE14drawSubsectionEffffff
00050c30 S __ZN8ofImage_ItE14drawSubsectionEffffff.eh
0004dbc0 S __ZN8ofImage_ItE14drawSubsectionEfffffff
00050c4c S __ZN8ofImage_ItE14drawSubsectionEfffffff.eh
0004dc40 S __ZN8ofImage_ItE14drawSubsectionEffffffff
00050c68 S __ZN8ofImage_ItE14drawSubsectionEffffffff.eh
0004dab0 S __ZN8ofImage_ItE14drawSubsectionEfffffffff
00050c14 S __ZN8ofImage_ItE14drawSubsectionEfffffffff.eh
0004cb20 S __ZN8ofImage_ItE14isUsingTextureEv
0005081c S __ZN8ofImage_ItE14isUsingTextureEv.eh
0004d7f0 S __ZN8ofImage_ItE14setAnchorPointEff
00050b6c S __ZN8ofImage_ItE14setAnchorPointEff.eh
0004cec0 S __ZN8ofImage_ItE14setCompressionE16ofTexCompression
00050934 S __ZN8ofImage_ItE14setCompressionE16ofTexCompression.eh
0004d7b0 S __ZN8ofImage_ItE16setAnchorPercentEff
00050b50 S __ZN8ofImage_ItE16setAnchorPercentEff.eh
0004d090 S __ZN8ofImage_ItE18changeTypeOfPixelsER9ofPixels_ItE11ofImageType
00050a58 S __ZN8ofImage_ItE18changeTypeOfPixelsER9ofPixels_ItE11ofImageType.eh
0004cb30 S __ZN8ofImage_ItE19getTextureReferenceEv
00050838 S __ZN8ofImage_ItE19getTextureReferenceEv.eh
0004cb50 S __ZN8ofImage_ItE4bindEv
00050870 S __ZN8ofImage_ItE4bindEv.eh
0004d4f0 S __ZN8ofImage_ItE4cropEiiii
00050ad8 S __ZN8ofImage_ItE4cropEiiii.eh
0004d850 S __ZN8ofImage_ItE4drawEff
00050ba4 S __ZN8ofImage_ItE4drawEff.eh
0004d980 S __ZN8ofImage_ItE4drawEfff
00050bdc S __ZN8ofImage_ItE4drawEfff.eh
0004da20 S __ZN8ofImage_ItE4drawEffff
00050bf8 S __ZN8ofImage_ItE4drawEffff.eh
0004d8f0 S __ZN8ofImage_ItE4drawEfffff
00050bc0 S __ZN8ofImage_ItE4drawEfffff.eh
0004bc60 S __ZN8ofImage_ItE5clearEv
000505c4 S __ZN8ofImage_ItE5clearEv.eh
0004c800 S __ZN8ofImage_ItE5cloneItEEvRKS_IT_E
00050764 S __ZN8ofImage_ItE5cloneItEEvRKS_IT_E.eh
0004d770 S __ZN8ofImage_ItE6mirrorEbb
00050b34 S __ZN8ofImage_ItE6mirrorEbb.eh
0004d1c0 S __ZN8ofImage_ItE6resizeEii
00050a78 S __ZN8ofImage_ItE6resizeEii.eh
0004cb80 S __ZN8ofImage_ItE6unbindEv
0005088c S __ZN8ofImage_ItE6unbindEv.eh
0004c890 S __ZN8ofImage_ItE6updateEv
00050784 S __ZN8ofImage_ItE6updateEv.eh
0004c660 S __ZN8ofImage_ItE8allocateEii11ofImageType
00050720 S __ZN8ofImage_ItE8allocateEii11ofImageType.eh
0004d590 S __ZN8ofImage_ItE8cropFromERS0_iiii
00050af4 S __ZN8ofImage_ItE8cropFromERS0_iiii.eh
0004dcf0 S __ZN8ofImage_ItE8getWidthEv
00050ca0 S __ZN8ofImage_ItE8getWidthEv.eh
0004d6c0 S __ZN8ofImage_ItE8rotate90Ei
00050b14 S __ZN8ofImage_ItE8rotate90Ei.eh
0004cfa0 S __ZN8ofImage_ItE8setColorEii8ofColor_ItE
000509f8 S __ZN8ofImage_ItE8setColorEii8ofColor_ItE.eh
0004dcd0 S __ZN8ofImage_ItE9getHeightEv
00050c84 S __ZN8ofImage_ItE9getHeightEv.eh
0004cef0 S __ZN8ofImage_ItE9getPixelsEv
00050950 S __ZN8ofImage_ItE9getPixelsEv.eh
0004c050 S __ZN8ofImage_ItE9loadImageERK6ofFile
0005066c S __ZN8ofImage_ItE9loadImageERK6ofFile.eh
0004cbb0 S __ZN8ofImage_ItE9loadImageERK8ofBuffer
000508a8 S __ZN8ofImage_ItE9loadImageERK8ofBuffer.eh
0004c300 S __ZN8ofImage_ItE9loadImageESs
000506d8 S __ZN8ofImage_ItE9loadImageESs.eh
0004cd60 S __ZN8ofImage_ItE9saveImageER8ofBuffer18ofImageQualityType
000508ec S __ZN8ofImage_ItE9saveImageER8ofBuffer18ofImageQualityType.eh
0004ce10 S __ZN8ofImage_ItE9saveImageERK6ofFile18ofImageQualityType
00050910 S __ZN8ofImage_ItE9saveImageERK6ofFile18ofImageQualityType.eh
0004ccc0 S __ZN8ofImage_ItE9saveImageESs18ofImageQualityType
000508c8 S __ZN8ofImage_ItE9saveImageESs18ofImageQualityType.eh
0004bfa0 S __ZN8ofImage_ItEC1ERK6ofFile
00050648 S __ZN8ofImage_ItEC1ERK6ofFile.eh
0004bcb0 S __ZN8ofImage_ItEC1ERK9ofPixels_ItE
000505e0 S __ZN8ofImage_ItEC1ERK9ofPixels_ItE.eh
0004c730 S __ZN8ofImage_ItEC1ERKS0_
00050740 S __ZN8ofImage_ItEC1ERKS0_.eh
0004c1d0 S __ZN8ofImage_ItEC1ERKSs
000506b4 S __ZN8ofImage_ItEC1ERKSs.eh
0004b890 S __ZN8ofImage_ItEC1Ev
0005048c S __ZN8ofImage_ItEC1Ev.eh
0004c0f0 S __ZN8ofImage_ItEC2ERK6ofFile
00050690 S __ZN8ofImage_ItEC2ERK6ofFile.eh
0004be50 S __ZN8ofImage_ItEC2ERK9ofPixels_ItE
00050624 S __ZN8ofImage_ItEC2ERK9ofPixels_ItE.eh
0004c9d0 S __ZN8ofImage_ItEC2ERKS0_
000507a4 S __ZN8ofImage_ItEC2ERKS0_.eh
0004c500 S __ZN8ofImage_ItEC2ERKSs
000506fc S __ZN8ofImage_ItEC2ERKSs.eh
0004b930 S __ZN8ofImage_ItEC2Ev
000504b0 S __ZN8ofImage_ItEC2Ev.eh
0004ba00 S __ZN8ofImage_ItED0Ev
000504d4 S __ZN8ofImage_ItED0Ev.eh
0004ba40 S __ZN8ofImage_ItED1Ev
000504f8 S __ZN8ofImage_ItED1Ev.eh
0004bb10 S __ZN8ofImage_ItED2Ev
00050560 S __ZN8ofImage_ItED2Ev.eh
0004ddd0 S __ZN8ofImage_ItEaSER9ofPixels_ItE
00050d14 S __ZN8ofImage_ItEaSER9ofPixels_ItE.eh
0004cad0 S __ZN8ofImage_ItEaSERKS0_
000507c8 S __ZN8ofImage_ItEaSERKS0_.eh
0004cf60 S __ZN8ofImage_ItEcvR9ofPixels_ItEEv
000509c0 S __ZN8ofImage_ItEcvR9ofPixels_ItEEv.eh
         U __ZN9ofPixels_IfE13setFromPixelsEPKfii11ofImageType
         U __ZN9ofPixels_IfE20setFromAlignedPixelsEPKfiiii
         U __ZN9ofPixels_IfE4cropEiiii
         U __ZN9ofPixels_IfE5clearEv
         U __ZN9ofPixels_IfE6cropToERS0_iiii
         U __ZN9ofPixels_IfE6mirrorEbb
         U __ZN9ofPixels_IfE8allocateEii11ofImageType
         U __ZN9ofPixels_IfE8rotate90Ei
         U __ZN9ofPixels_IfE8setColorEii8ofColor_IfE
         U __ZN9ofPixels_IfE9getPixelsEv
         U __ZN9ofPixels_IfEC1Ev
         U __ZN9ofPixels_IfED1Ev
         U __ZN9ofPixels_IfEaSERKS0_
         U __ZN9ofPixels_IhE13setFromPixelsEPKhii11ofImageType
         U __ZN9ofPixels_IhE20setFromAlignedPixelsEPKhiiii
         U __ZN9ofPixels_IhE4cropEiiii
         U __ZN9ofPixels_IhE5clearEv
         U __ZN9ofPixels_IhE6cropToERS0_iiii
         U __ZN9ofPixels_IhE6mirrorEbb
         U __ZN9ofPixels_IhE7swapRgbEv
         U __ZN9ofPixels_IhE8allocateEii11ofImageType
         U __ZN9ofPixels_IhE8rotate90Ei
         U __ZN9ofPixels_IhE8setColorEii8ofColor_IhE
         U __ZN9ofPixels_IhE9getPixelsEv
         U __ZN9ofPixels_IhEC1Ev
         U __ZN9ofPixels_IhED1Ev
         U __ZN9ofPixels_IhEaSERKS0_
         U __ZN9ofPixels_ItE13setFromPixelsEPKtii11ofImageType
         U __ZN9ofPixels_ItE20setFromAlignedPixelsEPKtiiii
         U __ZN9ofPixels_ItE4cropEiiii
         U __ZN9ofPixels_ItE5clearEv
         U __ZN9ofPixels_ItE6cropToERS0_iiii
         U __ZN9ofPixels_ItE6mirrorEbb
         U __ZN9ofPixels_ItE8allocateEii11ofImageType
         U __ZN9ofPixels_ItE8rotate90Ei
         U __ZN9ofPixels_ItE8setColorEii8ofColor_ItE
         U __ZN9ofPixels_ItE9getPixelsEv
         U __ZN9ofPixels_ItEC1Ev
         U __ZN9ofPixels_ItED1Ev
         U __ZN9ofPixels_ItEaSERKS0_
         U __ZN9ofTexture10bAllocatedEv
         U __ZN9ofTexture11isAllocatedEv
         U __ZN9ofTexture14getTextureDataEv
         U __ZN9ofTexture14setCompressionE16ofTexCompression
         U __ZN9ofTexture4bindEv
         U __ZN9ofTexture5clearEv
         U __ZN9ofTexture6unbindEv
         U __ZN9ofTexture8loadDataERK9ofPixels_IfE
         U __ZN9ofTexture8loadDataERK9ofPixels_IhE
         U __ZN9ofTexture8loadDataERK9ofPixels_ItE
         U __ZN9ofTextureC1Ev
         U __ZN9ofTextureD1Ev
         U __ZNK6ofFile15getAbsolutePathEv
         U __ZNK8ofBuffer15getBinaryBufferEv
         U __ZNK8ofBuffer4sizeEv
         U __ZNK8ofBuffercvSsEv
0004a550 S __ZNK8ofImage_IfE8getColorEii
000500ec S __ZNK8ofImage_IfE8getColorEii.eh
00047b20 S __ZNK8ofImage_IhE8getColorEii
0004f7fc S __ZNK8ofImage_IhE8getColorEii.eh
0004cf70 S __ZNK8ofImage_ItE8getColorEii
000509dc S __ZNK8ofImage_ItE8getColorEii.eh
         U __ZNK9ofPixels_IfE11isAllocatedEv
         U __ZNK9ofPixels_IfE12getImageTypeEv
         U __ZNK9ofPixels_IfE14getNumChannelsEv
         U __ZNK9ofPixels_IfE15getBitsPerPixelEv
         U __ZNK9ofPixels_IfE16getBytesPerPixelEv
         U __ZNK9ofPixels_IfE8getColorEii
         U __ZNK9ofPixels_IfE8getWidthEv
         U __ZNK9ofPixels_IfE9getHeightEv
         U __ZNK9ofPixels_IfE9getPixelsEv
         U __ZNK9ofPixels_IhE11isAllocatedEv
         U __ZNK9ofPixels_IhE12getImageTypeEv
         U __ZNK9ofPixels_IhE14getNumChannelsEv
         U __ZNK9ofPixels_IhE15getBitsPerPixelEv
         U __ZNK9ofPixels_IhE16getBytesPerPixelEv
         U __ZNK9ofPixels_IhE8getColorEii
         U __ZNK9ofPixels_IhE8getWidthEv
         U __ZNK9ofPixels_IhE9getHeightEv
         U __ZNK9ofPixels_IhE9getPixelsEv
         U __ZNK9ofPixels_ItE11isAllocatedEv
         U __ZNK9ofPixels_ItE12getImageTypeEv
         U __ZNK9ofPixels_ItE14getNumChannelsEv
         U __ZNK9ofPixels_ItE15getBitsPerPixelEv
         U __ZNK9ofPixels_ItE16getBytesPerPixelEv
         U __ZNK9ofPixels_ItE8getColorEii
         U __ZNK9ofPixels_ItE8getWidthEv
         U __ZNK9ofPixels_ItE9getHeightEv
         U __ZNK9ofPixels_ItE9getPixelsEv
         U __ZNKSs7compareEPKc
         U __ZNKSt9basic_iosIcSt11char_traitsIcEE5widenEc
         U __ZNSo3putEc
         U __ZNSo5flushEv
         U __ZNSolsEi
         U __ZNSs4_Rep10_M_destroyERKSaIcE
         U __ZNSs4_Rep20_S_empty_rep_storageE
         U __ZNSs6appendEPKcm
         U __ZNSs6appendERKSs
         U __ZNSs6assignERKSs
         U __ZNSs7reserveEm
         U __ZNSsC1EPKcRKSaIcE
         U __ZNSsC1ERKSs
         U __ZNSsC1ERKSsmm
         U __ZNSt8ios_base4InitC1Ev
         U __ZNSt8ios_base4InitD1Ev
         U __ZSt16__ostream_insertIcSt11char_traitsIcEERSt13basic_ostreamIT_T0_ES6_PKS3_i
         U __ZSt4cout
         U __ZSt9terminatev
000519b0 b __ZStL8__ioinit
000476b0 S __ZStplIcSt11char_traitsIcESaIcEESbIT_T0_T1_EPKS3_RKS6_
0004f6a4 S __ZStplIcSt11char_traitsIcESaIcEESbIT_T0_T1_EPKS3_RKS6_.eh
0004ebb0 S __ZTC8ofImage_IfE0_12ofBaseImage_IfE
0004eb10 S __ZTC8ofImage_IhE0_12ofBaseImage_IhE
0004ec50 S __ZTC8ofImage_ItE0_12ofBaseImage_ItE
0004ea88 S __ZTI11ofBaseDraws
0004eb80 S __ZTI12ofBaseImage_IfE
0004eae0 S __ZTI12ofBaseImage_IhE
0004ec20 S __ZTI12ofBaseImage_ItE
0004eaa0 S __ZTI15ofAbstractImage
0004eb70 S __ZTI16ofBaseHasPixels_IfE
0004eac8 S __ZTI16ofBaseHasPixels_IhE
0004ec10 S __ZTI16ofBaseHasPixels_ItE
0004ea90 S __ZTI16ofBaseHasTexture
0004eac0 S __ZTI19ofAbstractHasPixels
0004eba0 S __ZTI8ofImage_IfE
0004eb00 S __ZTI8ofImage_IhE
0004ec40 S __ZTI8ofImage_ItE
0004eec2 S __ZTS11ofBaseDraws
0004ef40 S __ZTS12ofBaseImage_IfE
0004ee90 S __ZTS12ofBaseImage_IhE
0004ef90 S __ZTS12ofBaseImage_ItE
0004eeb0 S __ZTS15ofAbstractImage
0004ef60 S __ZTS16ofBaseHasPixels_IfE
0004eef0 S __ZTS16ofBaseHasPixels_IhE
0004efb0 S __ZTS16ofBaseHasPixels_ItE
0004eed0 S __ZTS16ofBaseHasTexture
0004ef10 S __ZTS19ofAbstractHasPixels
0004ef26 S __ZTS8ofImage_IfE
0004ee80 S __ZTS8ofImage_IhE
0004ef76 S __ZTS8ofImage_ItE
0004e948 S __ZTT8ofImage_IfE
0004e8b0 S __ZTT8ofImage_IhE
0004e9e8 S __ZTT8ofImage_ItE
0004ed30 S __ZTV12ofBaseImage_IfE
0004edb0 S __ZTV12ofBaseImage_IhE
0004ecb0 S __ZTV12ofBaseImage_ItE
0004ee30 S __ZTV15ofAbstractImage
0004e960 S __ZTV8ofImage_IfE
0004e8c0 S __ZTV8ofImage_IhE
0004ea00 S __ZTV8ofImage_ItE
         U __ZTVN10__cxxabiv117__class_type_infoE
         U __ZTVN10__cxxabiv120__si_class_type_infoE
         U __ZTVN10__cxxabiv121__vmi_class_type_infoE
0004e4d0 S __ZThn4_N12ofBaseImage_IfED0Ev
00050fc8 S __ZThn4_N12ofBaseImage_IfED0Ev.eh
0004e4c0 S __ZThn4_N12ofBaseImage_IfED1Ev
00050fac S __ZThn4_N12ofBaseImage_IfED1Ev.eh
0004e610 S __ZThn4_N12ofBaseImage_IhED0Ev
00051024 S __ZThn4_N12ofBaseImage_IhED0Ev.eh
0004e600 S __ZThn4_N12ofBaseImage_IhED1Ev
00051008 S __ZThn4_N12ofBaseImage_IhED1Ev.eh
0004e4a0 S __ZThn4_N12ofBaseImage_ItED0Ev
00050f90 S __ZThn4_N12ofBaseImage_ItED0Ev.eh
0004e490 S __ZThn4_N12ofBaseImage_ItED1Ev
00050f74 S __ZThn4_N12ofBaseImage_ItED1Ev.eh
0004e660 S __ZThn4_N15ofAbstractImageD0Ev
00051094 S __ZThn4_N15ofAbstractImageD0Ev.eh
0004e650 S __ZThn4_N15ofAbstractImageD1Ev
00051078 S __ZThn4_N15ofAbstractImageD1Ev.eh
0004a0f0 S __ZThn4_N8ofImage_IfE13setUseTextureEb
0004ff10 S __ZThn4_N8ofImage_IfE13setUseTextureEb.eh
0004a120 S __ZThn4_N8ofImage_IfE19getTextureReferenceEv
0004ff64 S __ZThn4_N8ofImage_IfE19getTextureReferenceEv.eh
00049050 S __ZThn4_N8ofImage_IfED0Ev
0004fc28 S __ZThn4_N8ofImage_IfED0Ev.eh
000491c0 S __ZThn4_N8ofImage_IfED1Ev
0004fc94 S __ZThn4_N8ofImage_IfED1Ev.eh
00047610 S __ZThn4_N8ofImage_IhE13setUseTextureEb
0004f5fc S __ZThn4_N8ofImage_IhE13setUseTextureEb.eh
00047640 S __ZThn4_N8ofImage_IhE19getTextureReferenceEv
0004f650 S __ZThn4_N8ofImage_IhE19getTextureReferenceEv.eh
00046570 S __ZThn4_N8ofImage_IhED0Ev
0004f314 S __ZThn4_N8ofImage_IhED0Ev.eh
000466e0 S __ZThn4_N8ofImage_IhED1Ev
0004f380 S __ZThn4_N8ofImage_IhED1Ev.eh
0004cb10 S __ZThn4_N8ofImage_ItE13setUseTextureEb
00050800 S __ZThn4_N8ofImage_ItE13setUseTextureEb.eh
0004cb40 S __ZThn4_N8ofImage_ItE19getTextureReferenceEv
00050854 S __ZThn4_N8ofImage_ItE19getTextureReferenceEv.eh
0004ba70 S __ZThn4_N8ofImage_ItED0Ev
00050518 S __ZThn4_N8ofImage_ItED0Ev.eh
0004bbe0 S __ZThn4_N8ofImage_ItED1Ev
00050584 S __ZThn4_N8ofImage_ItED1Ev.eh
0004e420 S __ZTv0_n12_N12ofBaseImage_IfED0Ev
00050ee8 S __ZTv0_n12_N12ofBaseImage_IfED0Ev.eh
0004e410 S __ZTv0_n12_N12ofBaseImage_IfED1Ev
00050ecc S __ZTv0_n12_N12ofBaseImage_IfED1Ev.eh
0004e3d0 S __ZTv0_n12_N12ofBaseImage_IhED0Ev
00050e78 S __ZTv0_n12_N12ofBaseImage_IhED0Ev.eh
0004e3c0 S __ZTv0_n12_N12ofBaseImage_IhED1Ev
00050e5c S __ZTv0_n12_N12ofBaseImage_IhED1Ev.eh
0004e470 S __ZTv0_n12_N12ofBaseImage_ItED0Ev
00050f58 S __ZTv0_n12_N12ofBaseImage_ItED0Ev.eh
0004e460 S __ZTv0_n12_N12ofBaseImage_ItED1Ev
00050f3c S __ZTv0_n12_N12ofBaseImage_ItED1Ev.eh
000490a0 S __ZTv0_n12_N8ofImage_IfED0Ev
0004fc4c S __ZTv0_n12_N8ofImage_IfED0Ev.eh
00049200 S __ZTv0_n12_N8ofImage_IfED1Ev
0004fcb4 S __ZTv0_n12_N8ofImage_IfED1Ev.eh
000465c0 S __ZTv0_n12_N8ofImage_IhED0Ev
0004f338 S __ZTv0_n12_N8ofImage_IhED0Ev.eh
00046720 S __ZTv0_n12_N8ofImage_IhED1Ev
0004f3a0 S __ZTv0_n12_N8ofImage_IhED1Ev.eh
0004bac0 S __ZTv0_n12_N8ofImage_ItED0Ev
0005053c S __ZTv0_n12_N8ofImage_ItED0Ev.eh
0004bc20 S __ZTv0_n12_N8ofImage_ItED1Ev
000505a4 S __ZTv0_n12_N8ofImage_ItED1Ev.eh
0004a4f0 S __ZTv0_n16_N8ofImage_IfE9getPixelsEv
0005007c S __ZTv0_n16_N8ofImage_IfE9getPixelsEv.eh
00047ac0 S __ZTv0_n16_N8ofImage_IhE9getPixelsEv
0004f78c S __ZTv0_n16_N8ofImage_IhE9getPixelsEv.eh
0004cf10 S __ZTv0_n16_N8ofImage_ItE9getPixelsEv
0005096c S __ZTv0_n16_N8ofImage_ItE9getPixelsEv.eh
0004a520 S __ZTv0_n20_N8ofImage_IfE12getPixelsRefEv
000500b4 S __ZTv0_n20_N8ofImage_IfE12getPixelsRefEv.eh
00047af0 S __ZTv0_n20_N8ofImage_IhE12getPixelsRefEv
0004f7c4 S __ZTv0_n20_N8ofImage_IhE12getPixelsRefEv.eh
0004cf40 S __ZTv0_n20_N8ofImage_ItE12getPixelsRefEv
000509a4 S __ZTv0_n20_N8ofImage_ItE12getPixelsRefEv.eh
000519b4 b __ZZ15ofInitFreeImagebE16bFreeImageInited
         U __ZdaPv
         U __ZdlPv
         U __Znam
         U __Znwm
         U ___cxa_atexit
         U ___cxa_guard_abort
         U ___cxa_guard_acquire
         U ___cxa_guard_release
         U ___cxa_pure_virtual
         U ___dso_handle
         U ___gxx_personality_v0
         U _glPixelStorei
         U _glPopClientAttrib
         U _glPushClientAttrib
         U _glReadPixels
         U _memcpy
         U _strlen

../../../libs/openFrameworksCompiled/lib/osx/openFrameworks.a(ofPixels.o):
0006d5d8 s EH_frame0
0006d8bc s EH_frame1
0006cd9c s GCC_except_table122
0006cdbc s GCC_except_table129
0006cddc s GCC_except_table131
0006ce08 s GCC_except_table137
0006ce48 s GCC_except_table144
0006ce74 s GCC_except_table171
0006ce94 s GCC_except_table178
0006ceb4 s GCC_except_table180
0006cee0 s GCC_except_table186
0006cf20 s GCC_except_table193
0006cf4c s GCC_except_table220
0006cf6c s GCC_except_table227
0006cf8c s GCC_except_table229
0006cfb8 s GCC_except_table235
0006cbec s GCC_except_table24
0006cff8 s GCC_except_table242
0006d024 s GCC_except_table269
0006d044 s GCC_except_table276
0006d064 s GCC_except_table278
0006d090 s GCC_except_table284
0006d0d0 s GCC_except_table291
0006cc0c s GCC_except_table31
0006d0fc s GCC_except_table318
0006d11c s GCC_except_table325
0006d13c s GCC_except_table327
0006cc2c s GCC_except_table33
0006d168 s GCC_except_table333
0006d1a8 s GCC_except_table340
0006d1d4 s GCC_except_table367
0006d1f4 s GCC_except_table374
0006d214 s GCC_except_table376
0006d240 s GCC_except_table382
0006d280 s GCC_except_table389
0006cc58 s GCC_except_table39
0006d2ac s GCC_except_table416
0006d2cc s GCC_except_table423
0006d2ec s GCC_except_table425
0006d318 s GCC_except_table431
0006d358 s GCC_except_table438
0006cc98 s GCC_except_table46
0006d384 s GCC_except_table465
0006d3a4 s GCC_except_table472
0006d3c4 s GCC_except_table474
0006d3f0 s GCC_except_table480
0006d430 s GCC_except_table487
0006ccc4 s GCC_except_table73
0006cce4 s GCC_except_table80
0006cd04 s GCC_except_table82
0006cd30 s GCC_except_table88
0006cd70 s GCC_except_table95
0006d520 s __GLOBAL__I_a
00070fc8 s __GLOBAL__I_a.eh
         U __Unwind_Resume
         U __Z7ofClampfff
         U __ZN10ofLogErrorC1ERKSs
         U __ZN5ofLogC1E10ofLogLevelPKcz
         U __ZN5ofLogD1Ev
         U __ZN5ofLogD2Ev
         U __ZN8ofColor_IcE3setEff
         U __ZN8ofColor_IcE3setEffff
         U __ZN8ofColor_IcE5limitEv
         U __ZN8ofColor_IcEC1Ev
         U __ZN8ofColor_IcED1Ev
         U __ZN8ofColor_IdE3setEff
         U __ZN8ofColor_IdE3setEffff
         U __ZN8ofColor_IdE5limitEv
         U __ZN8ofColor_IdEC1Ev
         U __ZN8ofColor_IdED1Ev
         U __ZN8ofColor_IfE3setEff
         U __ZN8ofColor_IfE3setEffff
         U __ZN8ofColor_IfE5limitEv
         U __ZN8ofColor_IfEC1Ev
         U __ZN8ofColor_IfED1Ev
         U __ZN8ofColor_IhE3setEff
         U __ZN8ofColor_IhE3setEffff
         U __ZN8ofColor_IhE5limitEv
         U __ZN8ofColor_IhEC1Ev
         U __ZN8ofColor_IhED1Ev
         U __ZN8ofColor_IiE3setEff
         U __ZN8ofColor_IiE3setEffff
         U __ZN8ofColor_IiE5limitEv
         U __ZN8ofColor_IiEC1Ev
         U __ZN8ofColor_IiED1Ev
         U __ZN8ofColor_IjE3setEff
         U __ZN8ofColor_IjE3setEffff
         U __ZN8ofColor_IjE5limitEv
         U __ZN8ofColor_IjEC1Ev
         U __ZN8ofColor_IjED1Ev
         U __ZN8ofColor_IlE3setEff
         U __ZN8ofColor_IlE3setEffff
         U __ZN8ofColor_IlE5limitEv
         U __ZN8ofColor_IlEC1Ev
         U __ZN8ofColor_IlED1Ev
         U __ZN8ofColor_ImE3setEff
         U __ZN8ofColor_ImE3setEffff
         U __ZN8ofColor_ImE5limitEv
         U __ZN8ofColor_ImEC1Ev
         U __ZN8ofColor_ImED1Ev
         U __ZN8ofColor_IsE3setEff
         U __ZN8ofColor_IsE3setEffff
         U __ZN8ofColor_IsE5limitEv
         U __ZN8ofColor_IsEC1Ev
         U __ZN8ofColor_IsED1Ev
         U __ZN8ofColor_ItE3setEff
         U __ZN8ofColor_ItE3setEffff
         U __ZN8ofColor_ItE5limitEv
         U __ZN8ofColor_ItEC1Ev
         U __ZN8ofColor_ItED1Ev
000534b0 S __ZN9ofPixels_IcE10rotate90ToERS0_i
0006d91c S __ZN9ofPixels_IcE10rotate90ToERS0_i.eh
00054bc0 S __ZN9ofPixels_IcE10setChannelEiS0_
0006dbb8 S __ZN9ofPixels_IcE10setChannelEiS0_.eh
00052860 S __ZN9ofPixels_IcE13setFromPixelsEPKcii11ofImageType
0006d7c8 S __ZN9ofPixels_IcE13setFromPixelsEPKcii11ofImageType.eh
00052790 S __ZN9ofPixels_IcE13setFromPixelsEPKciii
0006d78c S __ZN9ofPixels_IcE13setFromPixelsEPKciii.eh
000541f0 S __ZN9ofPixels_IcE18bicubicInterpolateEPKfffffff
0006da14 S __ZN9ofPixels_IcE18bicubicInterpolateEPKfffffff.eh
00052ae0 S __ZN9ofPixels_IcE20setFromAlignedPixelsEPKciiii
0006d808 S __ZN9ofPixels_IcE20setFromAlignedPixelsEPKciiii.eh
00052a90 S __ZN9ofPixels_IcE21setFromExternalPixelsEPciii
0006d7e8 S __ZN9ofPixels_IcE21setFromExternalPixelsEPciii.eh
00052730 S __ZN9ofPixels_IcE3setEc
0006d74c S __ZN9ofPixels_IcE3setEc.eh
00052760 S __ZN9ofPixels_IcE3setEic
0006d76c S __ZN9ofPixels_IcE3setEic.eh
00052cd0 S __ZN9ofPixels_IcE4cropEiiii
0006d844 S __ZN9ofPixels_IcE4cropEiiii.eh
00052c70 S __ZN9ofPixels_IcE4swapERS0_
0006d828 S __ZN9ofPixels_IcE4swapERS0_.eh
00052240 S __ZN9ofPixels_IcE5clearEv
0006d628 S __ZN9ofPixels_IcE5clearEv.eh
00052f00 S __ZN9ofPixels_IcE6cropToERS0_iiii
0006d89c S __ZN9ofPixels_IcE6cropToERS0_iiii.eh
00053260 S __ZN9ofPixels_IcE6mirrorEbb
0006d8fc S __ZN9ofPixels_IcE6mirrorEbb.eh
00053a30 S __ZN9ofPixels_IcE6resizeEii21ofInterpolationMethod
0006d9b0 S __ZN9ofPixels_IcE6resizeEii21ofInterpolationMethod.eh
000547d0 S __ZN9ofPixels_IcE7swapRgbEv
0006da50 S __ZN9ofPixels_IcE7swapRgbEv.eh
00052590 S __ZN9ofPixels_IcE8allocateEii11ofImageType
0006d72c S __ZN9ofPixels_IcE8allocateEii11ofImageType.eh
00052510 S __ZN9ofPixels_IcE8allocateEii13ofPixelFormat
0006d710 S __ZN9ofPixels_IcE8allocateEii13ofPixelFormat.eh
00052480 S __ZN9ofPixels_IcE8allocateEiii
0006d6f0 S __ZN9ofPixels_IcE8allocateEiii.eh
00052390 S __ZN9ofPixels_IcE8copyFromERKS0_
0006d6b4 S __ZN9ofPixels_IcE8copyFromERKS0_.eh
000536f0 S __ZN9ofPixels_IcE8mirrorToERS0_bb
0006d93c S __ZN9ofPixels_IcE8mirrorToERS0_bb.eh
00053b90 S __ZN9ofPixels_IcE8resizeToERS0_21ofInterpolationMethod
0006d9f0 S __ZN9ofPixels_IcE8resizeToERS0_21ofInterpolationMethod.eh
00053150 S __ZN9ofPixels_IcE8rotate90Ei
0006d8dc S __ZN9ofPixels_IcE8rotate90Ei.eh
00054990 S __ZN9ofPixels_IcE8setColorEii8ofColor_IcE
0006dacc S __ZN9ofPixels_IcE8setColorEii8ofColor_IcE.eh
00053a10 S __ZN9ofPixels_IcE9getPixelsEv
0006d978 S __ZN9ofPixels_IcE9getPixelsEv.eh
000546b0 S __ZN9ofPixels_IcE9pasteIntoERS0_ii
0006da30 S __ZN9ofPixels_IcE9pasteIntoERS0_ii.eh
00052330 S __ZN9ofPixels_IcEC1ERKS0_
0006d67c S __ZN9ofPixels_IcEC1ERKS0_.eh
000521e0 S __ZN9ofPixels_IcEC1Ev
0006d5f0 S __ZN9ofPixels_IcEC1Ev.eh
00052360 S __ZN9ofPixels_IcEC2ERKS0_
0006d698 S __ZN9ofPixels_IcEC2ERKS0_.eh
00052210 S __ZN9ofPixels_IcEC2Ev
0006d60c S __ZN9ofPixels_IcEC2Ev.eh
00052290 S __ZN9ofPixels_IcED1Ev
0006d644 S __ZN9ofPixels_IcED1Ev.eh
000522e0 S __ZN9ofPixels_IcED2Ev
0006d660 S __ZN9ofPixels_IcED2Ev.eh
00052450 S __ZN9ofPixels_IcEaSERKS0_
0006d6d4 S __ZN9ofPixels_IcEaSERKS0_.eh
00053a20 S __ZN9ofPixels_IcEixEi
0006d994 S __ZN9ofPixels_IcEixEi.eh
0006b2c0 S __ZN9ofPixels_IdE10rotate90ToERS0_i
00070d10 S __ZN9ofPixels_IdE10rotate90ToERS0_i.eh
0006cb70 S __ZN9ofPixels_IdE10setChannelEiS0_
00070fa8 S __ZN9ofPixels_IdE10setChannelEiS0_.eh
0006a7d0 S __ZN9ofPixels_IdE13setFromPixelsEPKdii11ofImageType
00070bdc S __ZN9ofPixels_IdE13setFromPixelsEPKdii11ofImageType.eh
0006a700 S __ZN9ofPixels_IdE13setFromPixelsEPKdiii
00070ba0 S __ZN9ofPixels_IdE13setFromPixelsEPKdiii.eh
0006c140 S __ZN9ofPixels_IdE18bicubicInterpolateEPKfffffff
00070e08 S __ZN9ofPixels_IdE18bicubicInterpolateEPKfffffff.eh
0006a900 S __ZN9ofPixels_IdE20setFromAlignedPixelsEPKdiiii
00070c1c S __ZN9ofPixels_IdE20setFromAlignedPixelsEPKdiiii.eh
0006a8b0 S __ZN9ofPixels_IdE21setFromExternalPixelsEPdiii
00070bfc S __ZN9ofPixels_IdE21setFromExternalPixelsEPdiii.eh
0006a680 S __ZN9ofPixels_IdE3setEd
00070b68 S __ZN9ofPixels_IdE3setEd.eh
0006a6c0 S __ZN9ofPixels_IdE3setEid
00070b84 S __ZN9ofPixels_IdE3setEid.eh
0006aa60 S __ZN9ofPixels_IdE4cropEiiii
00070c58 S __ZN9ofPixels_IdE4cropEiiii.eh
0006aa00 S __ZN9ofPixels_IdE4swapERS0_
00070c3c S __ZN9ofPixels_IdE4swapERS0_.eh
0006a170 S __ZN9ofPixels_IdE5clearEv
00070a44 S __ZN9ofPixels_IdE5clearEv.eh
0006acc0 S __ZN9ofPixels_IdE6cropToERS0_iiii
00070cb0 S __ZN9ofPixels_IdE6cropToERS0_iiii.eh
0006b040 S __ZN9ofPixels_IdE6mirrorEbb
00070cf0 S __ZN9ofPixels_IdE6mirrorEbb.eh
0006b870 S __ZN9ofPixels_IdE6resizeEii21ofInterpolationMethod
00070da4 S __ZN9ofPixels_IdE6resizeEii21ofInterpolationMethod.eh
0006c720 S __ZN9ofPixels_IdE7swapRgbEv
00070e44 S __ZN9ofPixels_IdE7swapRgbEv.eh
0006a4d0 S __ZN9ofPixels_IdE8allocateEii11ofImageType
00070b48 S __ZN9ofPixels_IdE8allocateEii11ofImageType.eh
0006a450 S __ZN9ofPixels_IdE8allocateEii13ofPixelFormat
00070b2c S __ZN9ofPixels_IdE8allocateEii13ofPixelFormat.eh
0006a3c0 S __ZN9ofPixels_IdE8allocateEiii
00070b0c S __ZN9ofPixels_IdE8allocateEiii.eh
0006a2c0 S __ZN9ofPixels_IdE8copyFromERKS0_
00070ad0 S __ZN9ofPixels_IdE8copyFromERKS0_.eh
0006b520 S __ZN9ofPixels_IdE8mirrorToERS0_bb
00070d30 S __ZN9ofPixels_IdE8mirrorToERS0_bb.eh
0006b9d0 S __ZN9ofPixels_IdE8resizeToERS0_21ofInterpolationMethod
00070de4 S __ZN9ofPixels_IdE8resizeToERS0_21ofInterpolationMethod.eh
0006af30 S __ZN9ofPixels_IdE8rotate90Ei
00070cd0 S __ZN9ofPixels_IdE8rotate90Ei.eh
0006c910 S __ZN9ofPixels_IdE8setColorEii8ofColor_IdE
00070ebc S __ZN9ofPixels_IdE8setColorEii8ofColor_IdE.eh
0006b850 S __ZN9ofPixels_IdE9getPixelsEv
00070d6c S __ZN9ofPixels_IdE9getPixelsEv.eh
0006c600 S __ZN9ofPixels_IdE9pasteIntoERS0_ii
00070e24 S __ZN9ofPixels_IdE9pasteIntoERS0_ii.eh
0006a260 S __ZN9ofPixels_IdEC1ERKS0_
00070a98 S __ZN9ofPixels_IdEC1ERKS0_.eh
0006a110 S __ZN9ofPixels_IdEC1Ev
00070a0c S __ZN9ofPixels_IdEC1Ev.eh
0006a290 S __ZN9ofPixels_IdEC2ERKS0_
00070ab4 S __ZN9ofPixels_IdEC2ERKS0_.eh
0006a140 S __ZN9ofPixels_IdEC2Ev
00070a28 S __ZN9ofPixels_IdEC2Ev.eh
0006a1c0 S __ZN9ofPixels_IdED1Ev
00070a60 S __ZN9ofPixels_IdED1Ev.eh
0006a210 S __ZN9ofPixels_IdED2Ev
00070a7c S __ZN9ofPixels_IdED2Ev.eh
0006a390 S __ZN9ofPixels_IdEaSERKS0_
00070af0 S __ZN9ofPixels_IdEaSERKS0_.eh
0006b860 S __ZN9ofPixels_IdEixEi
00070d88 S __ZN9ofPixels_IdEixEi.eh
00068810 S __ZN9ofPixels_IfE10rotate90ToERS0_i
00070754 S __ZN9ofPixels_IfE10rotate90ToERS0_i.eh
0006a090 S __ZN9ofPixels_IfE10setChannelEiS0_
000709ec S __ZN9ofPixels_IfE10setChannelEiS0_.eh
00067d20 S __ZN9ofPixels_IfE13setFromPixelsEPKfii11ofImageType
00070620 S __ZN9ofPixels_IfE13setFromPixelsEPKfii11ofImageType.eh
00067c50 S __ZN9ofPixels_IfE13setFromPixelsEPKfiii
000705e4 S __ZN9ofPixels_IfE13setFromPixelsEPKfiii.eh
00069680 S __ZN9ofPixels_IfE18bicubicInterpolateEPKfffffff
0007084c S __ZN9ofPixels_IfE18bicubicInterpolateEPKfffffff.eh
00067e50 S __ZN9ofPixels_IfE20setFromAlignedPixelsEPKfiiii
00070660 S __ZN9ofPixels_IfE20setFromAlignedPixelsEPKfiiii.eh
00067e00 S __ZN9ofPixels_IfE21setFromExternalPixelsEPfiii
00070640 S __ZN9ofPixels_IfE21setFromExternalPixelsEPfiii.eh
00067bd0 S __ZN9ofPixels_IfE3setEf
000705ac S __ZN9ofPixels_IfE3setEf.eh
00067c10 S __ZN9ofPixels_IfE3setEif
000705c8 S __ZN9ofPixels_IfE3setEif.eh
00067fb0 S __ZN9ofPixels_IfE4cropEiiii
0007069c S __ZN9ofPixels_IfE4cropEiiii.eh
00067f50 S __ZN9ofPixels_IfE4swapERS0_
00070680 S __ZN9ofPixels_IfE4swapERS0_.eh
000676c0 S __ZN9ofPixels_IfE5clearEv
00070488 S __ZN9ofPixels_IfE5clearEv.eh
00068210 S __ZN9ofPixels_IfE6cropToERS0_iiii
000706f4 S __ZN9ofPixels_IfE6cropToERS0_iiii.eh
00068590 S __ZN9ofPixels_IfE6mirrorEbb
00070734 S __ZN9ofPixels_IfE6mirrorEbb.eh
00068dc0 S __ZN9ofPixels_IfE6resizeEii21ofInterpolationMethod
000707e8 S __ZN9ofPixels_IfE6resizeEii21ofInterpolationMethod.eh
00069c60 S __ZN9ofPixels_IfE7swapRgbEv
00070888 S __ZN9ofPixels_IfE7swapRgbEv.eh
00067a20 S __ZN9ofPixels_IfE8allocateEii11ofImageType
0007058c S __ZN9ofPixels_IfE8allocateEii11ofImageType.eh
000679a0 S __ZN9ofPixels_IfE8allocateEii13ofPixelFormat
00070570 S __ZN9ofPixels_IfE8allocateEii13ofPixelFormat.eh
00067910 S __ZN9ofPixels_IfE8allocateEiii
00070550 S __ZN9ofPixels_IfE8allocateEiii.eh
00067810 S __ZN9ofPixels_IfE8copyFromERKS0_
00070514 S __ZN9ofPixels_IfE8copyFromERKS0_.eh
00068a70 S __ZN9ofPixels_IfE8mirrorToERS0_bb
00070774 S __ZN9ofPixels_IfE8mirrorToERS0_bb.eh
00068f20 S __ZN9ofPixels_IfE8resizeToERS0_21ofInterpolationMethod
00070828 S __ZN9ofPixels_IfE8resizeToERS0_21ofInterpolationMethod.eh
00068480 S __ZN9ofPixels_IfE8rotate90Ei
00070714 S __ZN9ofPixels_IfE8rotate90Ei.eh
00069e30 S __ZN9ofPixels_IfE8setColorEii8ofColor_IfE
00070900 S __ZN9ofPixels_IfE8setColorEii8ofColor_IfE.eh
00068da0 S __ZN9ofPixels_IfE9getPixelsEv
000707b0 S __ZN9ofPixels_IfE9getPixelsEv.eh
00069b40 S __ZN9ofPixels_IfE9pasteIntoERS0_ii
00070868 S __ZN9ofPixels_IfE9pasteIntoERS0_ii.eh
000677b0 S __ZN9ofPixels_IfEC1ERKS0_
000704dc S __ZN9ofPixels_IfEC1ERKS0_.eh
00067660 S __ZN9ofPixels_IfEC1Ev
00070450 S __ZN9ofPixels_IfEC1Ev.eh
000677e0 S __ZN9ofPixels_IfEC2ERKS0_
000704f8 S __ZN9ofPixels_IfEC2ERKS0_.eh
00067690 S __ZN9ofPixels_IfEC2Ev
0007046c S __ZN9ofPixels_IfEC2Ev.eh
00067710 S __ZN9ofPixels_IfED1Ev
000704a4 S __ZN9ofPixels_IfED1Ev.eh
00067760 S __ZN9ofPixels_IfED2Ev
000704c0 S __ZN9ofPixels_IfED2Ev.eh
000678e0 S __ZN9ofPixels_IfEaSERKS0_
00070534 S __ZN9ofPixels_IfEaSERKS0_.eh
00068db0 S __ZN9ofPixels_IfEixEi
000707cc S __ZN9ofPixels_IfEixEi.eh
00055f10 S __ZN9ofPixels_IhE10rotate90ToERS0_i
0006dee4 S __ZN9ofPixels_IhE10rotate90ToERS0_i.eh
00057620 S __ZN9ofPixels_IhE10setChannelEiS0_
0006e180 S __ZN9ofPixels_IhE10setChannelEiS0_.eh
000552c0 S __ZN9ofPixels_IhE13setFromPixelsEPKhii11ofImageType
0006ddb0 S __ZN9ofPixels_IhE13setFromPixelsEPKhii11ofImageType.eh
000551f0 S __ZN9ofPixels_IhE13setFromPixelsEPKhiii
0006dd74 S __ZN9ofPixels_IhE13setFromPixelsEPKhiii.eh
00056c50 S __ZN9ofPixels_IhE18bicubicInterpolateEPKfffffff
0006dfdc S __ZN9ofPixels_IhE18bicubicInterpolateEPKfffffff.eh
00055540 S __ZN9ofPixels_IhE20setFromAlignedPixelsEPKhiiii
0006ddf0 S __ZN9ofPixels_IhE20setFromAlignedPixelsEPKhiiii.eh
000554f0 S __ZN9ofPixels_IhE21setFromExternalPixelsEPhiii
0006ddd0 S __ZN9ofPixels_IhE21setFromExternalPixelsEPhiii.eh
00055190 S __ZN9ofPixels_IhE3setEh
0006dd34 S __ZN9ofPixels_IhE3setEh.eh
000551c0 S __ZN9ofPixels_IhE3setEih
0006dd54 S __ZN9ofPixels_IhE3setEih.eh
00055730 S __ZN9ofPixels_IhE4cropEiiii
0006de2c S __ZN9ofPixels_IhE4cropEiiii.eh
000556d0 S __ZN9ofPixels_IhE4swapERS0_
0006de10 S __ZN9ofPixels_IhE4swapERS0_.eh
00054ca0 S __ZN9ofPixels_IhE5clearEv
0006dc10 S __ZN9ofPixels_IhE5clearEv.eh
00055960 S __ZN9ofPixels_IhE6cropToERS0_iiii
0006de84 S __ZN9ofPixels_IhE6cropToERS0_iiii.eh
00055cc0 S __ZN9ofPixels_IhE6mirrorEbb
0006dec4 S __ZN9ofPixels_IhE6mirrorEbb.eh
00056490 S __ZN9ofPixels_IhE6resizeEii21ofInterpolationMethod
0006df78 S __ZN9ofPixels_IhE6resizeEii21ofInterpolationMethod.eh
00057230 S __ZN9ofPixels_IhE7swapRgbEv
0006e018 S __ZN9ofPixels_IhE7swapRgbEv.eh
00054ff0 S __ZN9ofPixels_IhE8allocateEii11ofImageType
0006dd14 S __ZN9ofPixels_IhE8allocateEii11ofImageType.eh
00054f70 S __ZN9ofPixels_IhE8allocateEii13ofPixelFormat
0006dcf8 S __ZN9ofPixels_IhE8allocateEii13ofPixelFormat.eh
00054ee0 S __ZN9ofPixels_IhE8allocateEiii
0006dcd8 S __ZN9ofPixels_IhE8allocateEiii.eh
00054df0 S __ZN9ofPixels_IhE8copyFromERKS0_
0006dc9c S __ZN9ofPixels_IhE8copyFromERKS0_.eh
00056150 S __ZN9ofPixels_IhE8mirrorToERS0_bb
0006df04 S __ZN9ofPixels_IhE8mirrorToERS0_bb.eh
000565f0 S __ZN9ofPixels_IhE8resizeToERS0_21ofInterpolationMethod
0006dfb8 S __ZN9ofPixels_IhE8resizeToERS0_21ofInterpolationMethod.eh
00055bb0 S __ZN9ofPixels_IhE8rotate90Ei
0006dea4 S __ZN9ofPixels_IhE8rotate90Ei.eh
000573f0 S __ZN9ofPixels_IhE8setColorEii8ofColor_IhE
0006e094 S __ZN9ofPixels_IhE8setColorEii8ofColor_IhE.eh
00056470 S __ZN9ofPixels_IhE9getPixelsEv
0006df40 S __ZN9ofPixels_IhE9getPixelsEv.eh
00057110 S __ZN9ofPixels_IhE9pasteIntoERS0_ii
0006dff8 S __ZN9ofPixels_IhE9pasteIntoERS0_ii.eh
00054d90 S __ZN9ofPixels_IhEC1ERKS0_
0006dc64 S __ZN9ofPixels_IhEC1ERKS0_.eh
00054c40 S __ZN9ofPixels_IhEC1Ev
0006dbd8 S __ZN9ofPixels_IhEC1Ev.eh
00054dc0 S __ZN9ofPixels_IhEC2ERKS0_
0006dc80 S __ZN9ofPixels_IhEC2ERKS0_.eh
00054c70 S __ZN9ofPixels_IhEC2Ev
0006dbf4 S __ZN9ofPixels_IhEC2Ev.eh
00054cf0 S __ZN9ofPixels_IhED1Ev
0006dc2c S __ZN9ofPixels_IhED1Ev.eh
00054d40 S __ZN9ofPixels_IhED2Ev
0006dc48 S __ZN9ofPixels_IhED2Ev.eh
00054eb0 S __ZN9ofPixels_IhEaSERKS0_
0006dcbc S __ZN9ofPixels_IhEaSERKS0_.eh
00056480 S __ZN9ofPixels_IhEixEi
0006df5c S __ZN9ofPixels_IhEixEi.eh
0005dc60 S __ZN9ofPixels_IiE10rotate90ToERS0_i
0006f03c S __ZN9ofPixels_IiE10rotate90ToERS0_i.eh
0005f490 S __ZN9ofPixels_IiE10setChannelEiS0_
0006f2d8 S __ZN9ofPixels_IiE10setChannelEiS0_.eh
0005d160 S __ZN9ofPixels_IiE13setFromPixelsEPKiii11ofImageType
0006ef08 S __ZN9ofPixels_IiE13setFromPixelsEPKiii11ofImageType.eh
0005d090 S __ZN9ofPixels_IiE13setFromPixelsEPKiiii
0006eecc S __ZN9ofPixels_IiE13setFromPixelsEPKiiii.eh
0005eac0 S __ZN9ofPixels_IiE18bicubicInterpolateEPKfffffff
0006f134 S __ZN9ofPixels_IiE18bicubicInterpolateEPKfffffff.eh
0005d290 S __ZN9ofPixels_IiE20setFromAlignedPixelsEPKiiiii
0006ef48 S __ZN9ofPixels_IiE20setFromAlignedPixelsEPKiiiii.eh
0005d240 S __ZN9ofPixels_IiE21setFromExternalPixelsEPiiii
0006ef28 S __ZN9ofPixels_IiE21setFromExternalPixelsEPiiii.eh
0005d030 S __ZN9ofPixels_IiE3setEi
0006ee8c S __ZN9ofPixels_IiE3setEi.eh
0005d060 S __ZN9ofPixels_IiE3setEii
0006eeac S __ZN9ofPixels_IiE3setEii.eh
0005d3f0 S __ZN9ofPixels_IiE4cropEiiii
0006ef84 S __ZN9ofPixels_IiE4cropEiiii.eh
0005d390 S __ZN9ofPixels_IiE4swapERS0_
0006ef68 S __ZN9ofPixels_IiE4swapERS0_.eh
0005cb20 S __ZN9ofPixels_IiE5clearEv
0006ed68 S __ZN9ofPixels_IiE5clearEv.eh
0005d650 S __ZN9ofPixels_IiE6cropToERS0_iiii
0006efdc S __ZN9ofPixels_IiE6cropToERS0_iiii.eh
0005d9d0 S __ZN9ofPixels_IiE6mirrorEbb
0006f01c S __ZN9ofPixels_IiE6mirrorEbb.eh
0005e1f0 S __ZN9ofPixels_IiE6resizeEii21ofInterpolationMethod
0006f0d0 S __ZN9ofPixels_IiE6resizeEii21ofInterpolationMethod.eh
0005f0a0 S __ZN9ofPixels_IiE7swapRgbEv
0006f170 S __ZN9ofPixels_IiE7swapRgbEv.eh
0005ce80 S __ZN9ofPixels_IiE8allocateEii11ofImageType
0006ee6c S __ZN9ofPixels_IiE8allocateEii11ofImageType.eh
0005ce00 S __ZN9ofPixels_IiE8allocateEii13ofPixelFormat
0006ee50 S __ZN9ofPixels_IiE8allocateEii13ofPixelFormat.eh
0005cd70 S __ZN9ofPixels_IiE8allocateEiii
0006ee30 S __ZN9ofPixels_IiE8allocateEiii.eh
0005cc70 S __ZN9ofPixels_IiE8copyFromERKS0_
0006edf4 S __ZN9ofPixels_IiE8copyFromERKS0_.eh
0005deb0 S __ZN9ofPixels_IiE8mirrorToERS0_bb
0006f05c S __ZN9ofPixels_IiE8mirrorToERS0_bb.eh
0005e350 S __ZN9ofPixels_IiE8resizeToERS0_21ofInterpolationMethod
0006f110 S __ZN9ofPixels_IiE8resizeToERS0_21ofInterpolationMethod.eh
0005d8c0 S __ZN9ofPixels_IiE8rotate90Ei
0006effc S __ZN9ofPixels_IiE8rotate90Ei.eh
0005f250 S __ZN9ofPixels_IiE8setColorEii8ofColor_IiE
0006f1ec S __ZN9ofPixels_IiE8setColorEii8ofColor_IiE.eh
0005e1d0 S __ZN9ofPixels_IiE9getPixelsEv
0006f098 S __ZN9ofPixels_IiE9getPixelsEv.eh
0005ef80 S __ZN9ofPixels_IiE9pasteIntoERS0_ii
0006f150 S __ZN9ofPixels_IiE9pasteIntoERS0_ii.eh
0005cc10 S __ZN9ofPixels_IiEC1ERKS0_
0006edbc S __ZN9ofPixels_IiEC1ERKS0_.eh
0005cac0 S __ZN9ofPixels_IiEC1Ev
0006ed30 S __ZN9ofPixels_IiEC1Ev.eh
0005cc40 S __ZN9ofPixels_IiEC2ERKS0_
0006edd8 S __ZN9ofPixels_IiEC2ERKS0_.eh
0005caf0 S __ZN9ofPixels_IiEC2Ev
0006ed4c S __ZN9ofPixels_IiEC2Ev.eh
0005cb70 S __ZN9ofPixels_IiED1Ev
0006ed84 S __ZN9ofPixels_IiED1Ev.eh
0005cbc0 S __ZN9ofPixels_IiED2Ev
0006eda0 S __ZN9ofPixels_IiED2Ev.eh
0005cd40 S __ZN9ofPixels_IiEaSERKS0_
0006ee14 S __ZN9ofPixels_IiEaSERKS0_.eh
0005e1e0 S __ZN9ofPixels_IiEixEi
0006f0b4 S __ZN9ofPixels_IiEixEi.eh
000606b0 S __ZN9ofPixels_IjE10rotate90ToERS0_i
0006f604 S __ZN9ofPixels_IjE10rotate90ToERS0_i.eh
00062010 S __ZN9ofPixels_IjE10setChannelEiS0_
0006f8a0 S __ZN9ofPixels_IjE10setChannelEiS0_.eh
0005fbb0 S __ZN9ofPixels_IjE13setFromPixelsEPKjii11ofImageType
0006f4d0 S __ZN9ofPixels_IjE13setFromPixelsEPKjii11ofImageType.eh
0005fae0 S __ZN9ofPixels_IjE13setFromPixelsEPKjiii
0006f494 S __ZN9ofPixels_IjE13setFromPixelsEPKjiii.eh
000615b0 S __ZN9ofPixels_IjE18bicubicInterpolateEPKfffffff
0006f6fc S __ZN9ofPixels_IjE18bicubicInterpolateEPKfffffff.eh
0005fce0 S __ZN9ofPixels_IjE20setFromAlignedPixelsEPKjiiii
0006f510 S __ZN9ofPixels_IjE20setFromAlignedPixelsEPKjiiii.eh
0005fc90 S __ZN9ofPixels_IjE21setFromExternalPixelsEPjiii
0006f4f0 S __ZN9ofPixels_IjE21setFromExternalPixelsEPjiii.eh
0005fab0 S __ZN9ofPixels_IjE3setEij
0006f474 S __ZN9ofPixels_IjE3setEij.eh
0005fa80 S __ZN9ofPixels_IjE3setEj
0006f454 S __ZN9ofPixels_IjE3setEj.eh
0005fe40 S __ZN9ofPixels_IjE4cropEiiii
0006f54c S __ZN9ofPixels_IjE4cropEiiii.eh
0005fde0 S __ZN9ofPixels_IjE4swapERS0_
0006f530 S __ZN9ofPixels_IjE4swapERS0_.eh
0005f570 S __ZN9ofPixels_IjE5clearEv
0006f330 S __ZN9ofPixels_IjE5clearEv.eh
000600a0 S __ZN9ofPixels_IjE6cropToERS0_iiii
0006f5a4 S __ZN9ofPixels_IjE6cropToERS0_iiii.eh
00060420 S __ZN9ofPixels_IjE6mirrorEbb
0006f5e4 S __ZN9ofPixels_IjE6mirrorEbb.eh
00060c40 S __ZN9ofPixels_IjE6resizeEii21ofInterpolationMethod
0006f698 S __ZN9ofPixels_IjE6resizeEii21ofInterpolationMethod.eh
00061b90 S __ZN9ofPixels_IjE7swapRgbEv
0006f738 S __ZN9ofPixels_IjE7swapRgbEv.eh
0005f8d0 S __ZN9ofPixels_IjE8allocateEii11ofImageType
0006f434 S __ZN9ofPixels_IjE8allocateEii11ofImageType.eh
0005f850 S __ZN9ofPixels_IjE8allocateEii13ofPixelFormat
0006f418 S __ZN9ofPixels_IjE8allocateEii13ofPixelFormat.eh
0005f7c0 S __ZN9ofPixels_IjE8allocateEiii
0006f3f8 S __ZN9ofPixels_IjE8allocateEiii.eh
0005f6c0 S __ZN9ofPixels_IjE8copyFromERKS0_
0006f3bc S __ZN9ofPixels_IjE8copyFromERKS0_.eh
00060900 S __ZN9ofPixels_IjE8mirrorToERS0_bb
0006f624 S __ZN9ofPixels_IjE8mirrorToERS0_bb.eh
00060da0 S __ZN9ofPixels_IjE8resizeToERS0_21ofInterpolationMethod
0006f6d8 S __ZN9ofPixels_IjE8resizeToERS0_21ofInterpolationMethod.eh
00060310 S __ZN9ofPixels_IjE8rotate90Ei
0006f5c4 S __ZN9ofPixels_IjE8rotate90Ei.eh
00061dc0 S __ZN9ofPixels_IjE8setColorEii8ofColor_IjE
0006f7b4 S __ZN9ofPixels_IjE8setColorEii8ofColor_IjE.eh
00060c20 S __ZN9ofPixels_IjE9getPixelsEv
0006f660 S __ZN9ofPixels_IjE9getPixelsEv.eh
00061a70 S __ZN9ofPixels_IjE9pasteIntoERS0_ii
0006f718 S __ZN9ofPixels_IjE9pasteIntoERS0_ii.eh
0005f660 S __ZN9ofPixels_IjEC1ERKS0_
0006f384 S __ZN9ofPixels_IjEC1ERKS0_.eh
0005f510 S __ZN9ofPixels_IjEC1Ev
0006f2f8 S __ZN9ofPixels_IjEC1Ev.eh
0005f690 S __ZN9ofPixels_IjEC2ERKS0_
0006f3a0 S __ZN9ofPixels_IjEC2ERKS0_.eh
0005f540 S __ZN9ofPixels_IjEC2Ev
0006f314 S __ZN9ofPixels_IjEC2Ev.eh
0005f5c0 S __ZN9ofPixels_IjED1Ev
0006f34c S __ZN9ofPixels_IjED1Ev.eh
0005f610 S __ZN9ofPixels_IjED2Ev
0006f368 S __ZN9ofPixels_IjED2Ev.eh
0005f790 S __ZN9ofPixels_IjEaSERKS0_
0006f3dc S __ZN9ofPixels_IjEaSERKS0_.eh
00060c30 S __ZN9ofPixels_IjEixEi
0006f67c S __ZN9ofPixels_IjEixEi.eh
00063230 S __ZN9ofPixels_IlE10rotate90ToERS0_i
0006fbcc S __ZN9ofPixels_IlE10rotate90ToERS0_i.eh
00064a60 S __ZN9ofPixels_IlE10setChannelEiS0_
0006fe68 S __ZN9ofPixels_IlE10setChannelEiS0_.eh
00062730 S __ZN9ofPixels_IlE13setFromPixelsEPKlii11ofImageType
0006fa98 S __ZN9ofPixels_IlE13setFromPixelsEPKlii11ofImageType.eh
00062660 S __ZN9ofPixels_IlE13setFromPixelsEPKliii
0006fa5c S __ZN9ofPixels_IlE13setFromPixelsEPKliii.eh
00064090 S __ZN9ofPixels_IlE18bicubicInterpolateEPKfffffff
0006fcc4 S __ZN9ofPixels_IlE18bicubicInterpolateEPKfffffff.eh
00062860 S __ZN9ofPixels_IlE20setFromAlignedPixelsEPKliiii
0006fad8 S __ZN9ofPixels_IlE20setFromAlignedPixelsEPKliiii.eh
00062810 S __ZN9ofPixels_IlE21setFromExternalPixelsEPliii
0006fab8 S __ZN9ofPixels_IlE21setFromExternalPixelsEPliii.eh
00062630 S __ZN9ofPixels_IlE3setEil
0006fa3c S __ZN9ofPixels_IlE3setEil.eh
00062600 S __ZN9ofPixels_IlE3setEl
0006fa1c S __ZN9ofPixels_IlE3setEl.eh
000629c0 S __ZN9ofPixels_IlE4cropEiiii
0006fb14 S __ZN9ofPixels_IlE4cropEiiii.eh
00062960 S __ZN9ofPixels_IlE4swapERS0_
0006faf8 S __ZN9ofPixels_IlE4swapERS0_.eh
000620f0 S __ZN9ofPixels_IlE5clearEv
0006f8f8 S __ZN9ofPixels_IlE5clearEv.eh
00062c20 S __ZN9ofPixels_IlE6cropToERS0_iiii
0006fb6c S __ZN9ofPixels_IlE6cropToERS0_iiii.eh
00062fa0 S __ZN9ofPixels_IlE6mirrorEbb
0006fbac S __ZN9ofPixels_IlE6mirrorEbb.eh
000637c0 S __ZN9ofPixels_IlE6resizeEii21ofInterpolationMethod
0006fc60 S __ZN9ofPixels_IlE6resizeEii21ofInterpolationMethod.eh
00064670 S __ZN9ofPixels_IlE7swapRgbEv
0006fd00 S __ZN9ofPixels_IlE7swapRgbEv.eh
00062450 S __ZN9ofPixels_IlE8allocateEii11ofImageType
0006f9fc S __ZN9ofPixels_IlE8allocateEii11ofImageType.eh
000623d0 S __ZN9ofPixels_IlE8allocateEii13ofPixelFormat
0006f9e0 S __ZN9ofPixels_IlE8allocateEii13ofPixelFormat.eh
00062340 S __ZN9ofPixels_IlE8allocateEiii
0006f9c0 S __ZN9ofPixels_IlE8allocateEiii.eh
00062240 S __ZN9ofPixels_IlE8copyFromERKS0_
0006f984 S __ZN9ofPixels_IlE8copyFromERKS0_.eh
00063480 S __ZN9ofPixels_IlE8mirrorToERS0_bb
0006fbec S __ZN9ofPixels_IlE8mirrorToERS0_bb.eh
00063920 S __ZN9ofPixels_IlE8resizeToERS0_21ofInterpolationMethod
0006fca0 S __ZN9ofPixels_IlE8resizeToERS0_21ofInterpolationMethod.eh
00062e90 S __ZN9ofPixels_IlE8rotate90Ei
0006fb8c S __ZN9ofPixels_IlE8rotate90Ei.eh
00064820 S __ZN9ofPixels_IlE8setColorEii8ofColor_IlE
0006fd7c S __ZN9ofPixels_IlE8setColorEii8ofColor_IlE.eh
000637a0 S __ZN9ofPixels_IlE9getPixelsEv
0006fc28 S __ZN9ofPixels_IlE9getPixelsEv.eh
00064550 S __ZN9ofPixels_IlE9pasteIntoERS0_ii
0006fce0 S __ZN9ofPixels_IlE9pasteIntoERS0_ii.eh
000621e0 S __ZN9ofPixels_IlEC1ERKS0_
0006f94c S __ZN9ofPixels_IlEC1ERKS0_.eh
00062090 S __ZN9ofPixels_IlEC1Ev
0006f8c0 S __ZN9ofPixels_IlEC1Ev.eh
00062210 S __ZN9ofPixels_IlEC2ERKS0_
0006f968 S __ZN9ofPixels_IlEC2ERKS0_.eh
000620c0 S __ZN9ofPixels_IlEC2Ev
0006f8dc S __ZN9ofPixels_IlEC2Ev.eh
00062140 S __ZN9ofPixels_IlED1Ev
0006f914 S __ZN9ofPixels_IlED1Ev.eh
00062190 S __ZN9ofPixels_IlED2Ev
0006f930 S __ZN9ofPixels_IlED2Ev.eh
00062310 S __ZN9ofPixels_IlEaSERKS0_
0006f9a4 S __ZN9ofPixels_IlEaSERKS0_.eh
000637b0 S __ZN9ofPixels_IlEixEi
0006fc44 S __ZN9ofPixels_IlEixEi.eh
00065c80 S __ZN9ofPixels_ImE10rotate90ToERS0_i
00070194 S __ZN9ofPixels_ImE10rotate90ToERS0_i.eh
000675e0 S __ZN9ofPixels_ImE10setChannelEiS0_
00070430 S __ZN9ofPixels_ImE10setChannelEiS0_.eh
00065180 S __ZN9ofPixels_ImE13setFromPixelsEPKmii11ofImageType
00070060 S __ZN9ofPixels_ImE13setFromPixelsEPKmii11ofImageType.eh
000650b0 S __ZN9ofPixels_ImE13setFromPixelsEPKmiii
00070024 S __ZN9ofPixels_ImE13setFromPixelsEPKmiii.eh
00066b80 S __ZN9ofPixels_ImE18bicubicInterpolateEPKfffffff
0007028c S __ZN9ofPixels_ImE18bicubicInterpolateEPKfffffff.eh
000652b0 S __ZN9ofPixels_ImE20setFromAlignedPixelsEPKmiiii
000700a0 S __ZN9ofPixels_ImE20setFromAlignedPixelsEPKmiiii.eh
00065260 S __ZN9ofPixels_ImE21setFromExternalPixelsEPmiii
00070080 S __ZN9ofPixels_ImE21setFromExternalPixelsEPmiii.eh
00065080 S __ZN9ofPixels_ImE3setEim
00070004 S __ZN9ofPixels_ImE3setEim.eh
00065050 S __ZN9ofPixels_ImE3setEm
0006ffe4 S __ZN9ofPixels_ImE3setEm.eh
00065410 S __ZN9ofPixels_ImE4cropEiiii
000700dc S __ZN9ofPixels_ImE4cropEiiii.eh
000653b0 S __ZN9ofPixels_ImE4swapERS0_
000700c0 S __ZN9ofPixels_ImE4swapERS0_.eh
00064b40 S __ZN9ofPixels_ImE5clearEv
0006fec0 S __ZN9ofPixels_ImE5clearEv.eh
00065670 S __ZN9ofPixels_ImE6cropToERS0_iiii
00070134 S __ZN9ofPixels_ImE6cropToERS0_iiii.eh
000659f0 S __ZN9ofPixels_ImE6mirrorEbb
00070174 S __ZN9ofPixels_ImE6mirrorEbb.eh
00066210 S __ZN9ofPixels_ImE6resizeEii21ofInterpolationMethod
00070228 S __ZN9ofPixels_ImE6resizeEii21ofInterpolationMethod.eh
00067160 S __ZN9ofPixels_ImE7swapRgbEv
000702c8 S __ZN9ofPixels_ImE7swapRgbEv.eh
00064ea0 S __ZN9ofPixels_ImE8allocateEii11ofImageType
0006ffc4 S __ZN9ofPixels_ImE8allocateEii11ofImageType.eh
00064e20 S __ZN9ofPixels_ImE8allocateEii13ofPixelFormat
0006ffa8 S __ZN9ofPixels_ImE8allocateEii13ofPixelFormat.eh
00064d90 S __ZN9ofPixels_ImE8allocateEiii
0006ff88 S __ZN9ofPixels_ImE8allocateEiii.eh
00064c90 S __ZN9ofPixels_ImE8copyFromERKS0_
0006ff4c S __ZN9ofPixels_ImE8copyFromERKS0_.eh
00065ed0 S __ZN9ofPixels_ImE8mirrorToERS0_bb
000701b4 S __ZN9ofPixels_ImE8mirrorToERS0_bb.eh
00066370 S __ZN9ofPixels_ImE8resizeToERS0_21ofInterpolationMethod
00070268 S __ZN9ofPixels_ImE8resizeToERS0_21ofInterpolationMethod.eh
000658e0 S __ZN9ofPixels_ImE8rotate90Ei
00070154 S __ZN9ofPixels_ImE8rotate90Ei.eh
00067390 S __ZN9ofPixels_ImE8setColorEii8ofColor_ImE
00070344 S __ZN9ofPixels_ImE8setColorEii8ofColor_ImE.eh
000661f0 S __ZN9ofPixels_ImE9getPixelsEv
000701f0 S __ZN9ofPixels_ImE9getPixelsEv.eh
00067040 S __ZN9ofPixels_ImE9pasteIntoERS0_ii
000702a8 S __ZN9ofPixels_ImE9pasteIntoERS0_ii.eh
00064c30 S __ZN9ofPixels_ImEC1ERKS0_
0006ff14 S __ZN9ofPixels_ImEC1ERKS0_.eh
00064ae0 S __ZN9ofPixels_ImEC1Ev
0006fe88 S __ZN9ofPixels_ImEC1Ev.eh
00064c60 S __ZN9ofPixels_ImEC2ERKS0_
0006ff30 S __ZN9ofPixels_ImEC2ERKS0_.eh
00064b10 S __ZN9ofPixels_ImEC2Ev
0006fea4 S __ZN9ofPixels_ImEC2Ev.eh
00064b90 S __ZN9ofPixels_ImED1Ev
0006fedc S __ZN9ofPixels_ImED1Ev.eh
00064be0 S __ZN9ofPixels_ImED2Ev
0006fef8 S __ZN9ofPixels_ImED2Ev.eh
00064d60 S __ZN9ofPixels_ImEaSERKS0_
0006ff6c S __ZN9ofPixels_ImEaSERKS0_.eh
00066200 S __ZN9ofPixels_ImEixEi
0007020c S __ZN9ofPixels_ImEixEi.eh
00058810 S __ZN9ofPixels_IsE10rotate90ToERS0_i
0006e4ac S __ZN9ofPixels_IsE10rotate90ToERS0_i.eh
0005a030 S __ZN9ofPixels_IsE10setChannelEiS0_
0006e748 S __ZN9ofPixels_IsE10setChannelEiS0_.eh
00057d40 S __ZN9ofPixels_IsE13setFromPixelsEPKsii11ofImageType
0006e378 S __ZN9ofPixels_IsE13setFromPixelsEPKsii11ofImageType.eh
00057c80 S __ZN9ofPixels_IsE13setFromPixelsEPKsiii
0006e33c S __ZN9ofPixels_IsE13setFromPixelsEPKsiii.eh
00059640 S __ZN9ofPixels_IsE18bicubicInterpolateEPKfffffff
0006e5a4 S __ZN9ofPixels_IsE18bicubicInterpolateEPKfffffff.eh
00057e70 S __ZN9ofPixels_IsE20setFromAlignedPixelsEPKsiiii
0006e3b8 S __ZN9ofPixels_IsE20setFromAlignedPixelsEPKsiiii.eh
00057e20 S __ZN9ofPixels_IsE21setFromExternalPixelsEPsiii
0006e398 S __ZN9ofPixels_IsE21setFromExternalPixelsEPsiii.eh
00057c40 S __ZN9ofPixels_IsE3setEis
0006e31c S __ZN9ofPixels_IsE3setEis.eh
00057c00 S __ZN9ofPixels_IsE3setEs
0006e2fc S __ZN9ofPixels_IsE3setEs.eh
00057fc0 S __ZN9ofPixels_IsE4cropEiiii
0006e3f4 S __ZN9ofPixels_IsE4cropEiiii.eh
00057f60 S __ZN9ofPixels_IsE4swapERS0_
0006e3d8 S __ZN9ofPixels_IsE4swapERS0_.eh
00057700 S __ZN9ofPixels_IsE5clearEv
0006e1d8 S __ZN9ofPixels_IsE5clearEv.eh
00058210 S __ZN9ofPixels_IsE6cropToERS0_iiii
0006e44c S __ZN9ofPixels_IsE6cropToERS0_iiii.eh
00058580 S __ZN9ofPixels_IsE6mirrorEbb
0006e48c S __ZN9ofPixels_IsE6mirrorEbb.eh
00058da0 S __ZN9ofPixels_IsE6resizeEii21ofInterpolationMethod
0006e540 S __ZN9ofPixels_IsE6resizeEii21ofInterpolationMethod.eh
00059c20 S __ZN9ofPixels_IsE7swapRgbEv
0006e5e0 S __ZN9ofPixels_IsE7swapRgbEv.eh
00057a50 S __ZN9ofPixels_IsE8allocateEii11ofImageType
0006e2dc S __ZN9ofPixels_IsE8allocateEii11ofImageType.eh
000579d0 S __ZN9ofPixels_IsE8allocateEii13ofPixelFormat
0006e2c0 S __ZN9ofPixels_IsE8allocateEii13ofPixelFormat.eh
00057940 S __ZN9ofPixels_IsE8allocateEiii
0006e2a0 S __ZN9ofPixels_IsE8allocateEiii.eh
00057850 S __ZN9ofPixels_IsE8copyFromERKS0_
0006e264 S __ZN9ofPixels_IsE8copyFromERKS0_.eh
00058a60 S __ZN9ofPixels_IsE8mirrorToERS0_bb
0006e4cc S __ZN9ofPixels_IsE8mirrorToERS0_bb.eh
00058f00 S __ZN9ofPixels_IsE8resizeToERS0_21ofInterpolationMethod
0006e580 S __ZN9ofPixels_IsE8resizeToERS0_21ofInterpolationMethod.eh
00058470 S __ZN9ofPixels_IsE8rotate90Ei
0006e46c S __ZN9ofPixels_IsE8rotate90Ei.eh
00059df0 S __ZN9ofPixels_IsE8setColorEii8ofColor_IsE
0006e65c S __ZN9ofPixels_IsE8setColorEii8ofColor_IsE.eh
00058d80 S __ZN9ofPixels_IsE9getPixelsEv
0006e508 S __ZN9ofPixels_IsE9getPixelsEv.eh
00059b00 S __ZN9ofPixels_IsE9pasteIntoERS0_ii
0006e5c0 S __ZN9ofPixels_IsE9pasteIntoERS0_ii.eh
000577f0 S __ZN9ofPixels_IsEC1ERKS0_
0006e22c S __ZN9ofPixels_IsEC1ERKS0_.eh
000576a0 S __ZN9ofPixels_IsEC1Ev
0006e1a0 S __ZN9ofPixels_IsEC1Ev.eh
00057820 S __ZN9ofPixels_IsEC2ERKS0_
0006e248 S __ZN9ofPixels_IsEC2ERKS0_.eh
000576d0 S __ZN9ofPixels_IsEC2Ev
0006e1bc S __ZN9ofPixels_IsEC2Ev.eh
00057750 S __ZN9ofPixels_IsED1Ev
0006e1f4 S __ZN9ofPixels_IsED1Ev.eh
000577a0 S __ZN9ofPixels_IsED2Ev
0006e210 S __ZN9ofPixels_IsED2Ev.eh
00057910 S __ZN9ofPixels_IsEaSERKS0_
0006e284 S __ZN9ofPixels_IsEaSERKS0_.eh
00058d90 S __ZN9ofPixels_IsEixEi
0006e524 S __ZN9ofPixels_IsEixEi.eh
0005b220 S __ZN9ofPixels_ItE10rotate90ToERS0_i
0006ea74 S __ZN9ofPixels_ItE10rotate90ToERS0_i.eh
0005ca40 S __ZN9ofPixels_ItE10setChannelEiS0_
0006ed10 S __ZN9ofPixels_ItE10setChannelEiS0_.eh
0005a750 S __ZN9ofPixels_ItE13setFromPixelsEPKtii11ofImageType
0006e940 S __ZN9ofPixels_ItE13setFromPixelsEPKtii11ofImageType.eh
0005a690 S __ZN9ofPixels_ItE13setFromPixelsEPKtiii
0006e904 S __ZN9ofPixels_ItE13setFromPixelsEPKtiii.eh
0005c050 S __ZN9ofPixels_ItE18bicubicInterpolateEPKfffffff
0006eb6c S __ZN9ofPixels_ItE18bicubicInterpolateEPKfffffff.eh
0005a880 S __ZN9ofPixels_ItE20setFromAlignedPixelsEPKtiiii
0006e980 S __ZN9ofPixels_ItE20setFromAlignedPixelsEPKtiiii.eh
0005a830 S __ZN9ofPixels_ItE21setFromExternalPixelsEPtiii
0006e960 S __ZN9ofPixels_ItE21setFromExternalPixelsEPtiii.eh
0005a650 S __ZN9ofPixels_ItE3setEit
0006e8e4 S __ZN9ofPixels_ItE3setEit.eh
0005a610 S __ZN9ofPixels_ItE3setEt
0006e8c4 S __ZN9ofPixels_ItE3setEt.eh
0005a9d0 S __ZN9ofPixels_ItE4cropEiiii
0006e9bc S __ZN9ofPixels_ItE4cropEiiii.eh
0005a970 S __ZN9ofPixels_ItE4swapERS0_
0006e9a0 S __ZN9ofPixels_ItE4swapERS0_.eh
0005a110 S __ZN9ofPixels_ItE5clearEv
0006e7a0 S __ZN9ofPixels_ItE5clearEv.eh
0005ac20 S __ZN9ofPixels_ItE6cropToERS0_iiii
0006ea14 S __ZN9ofPixels_ItE6cropToERS0_iiii.eh
0005af90 S __ZN9ofPixels_ItE6mirrorEbb
0006ea54 S __ZN9ofPixels_ItE6mirrorEbb.eh
0005b7b0 S __ZN9ofPixels_ItE6resizeEii21ofInterpolationMethod
0006eb08 S __ZN9ofPixels_ItE6resizeEii21ofInterpolationMethod.eh
0005c630 S __ZN9ofPixels_ItE7swapRgbEv
0006eba8 S __ZN9ofPixels_ItE7swapRgbEv.eh
0005a460 S __ZN9ofPixels_ItE8allocateEii11ofImageType
0006e8a4 S __ZN9ofPixels_ItE8allocateEii11ofImageType.eh
0005a3e0 S __ZN9ofPixels_ItE8allocateEii13ofPixelFormat
0006e888 S __ZN9ofPixels_ItE8allocateEii13ofPixelFormat.eh
0005a350 S __ZN9ofPixels_ItE8allocateEiii
0006e868 S __ZN9ofPixels_ItE8allocateEiii.eh
0005a260 S __ZN9ofPixels_ItE8copyFromERKS0_
0006e82c S __ZN9ofPixels_ItE8copyFromERKS0_.eh
0005b470 S __ZN9ofPixels_ItE8mirrorToERS0_bb
0006ea94 S __ZN9ofPixels_ItE8mirrorToERS0_bb.eh
0005b910 S __ZN9ofPixels_ItE8resizeToERS0_21ofInterpolationMethod
0006eb48 S __ZN9ofPixels_ItE8resizeToERS0_21ofInterpolationMethod.eh
0005ae80 S __ZN9ofPixels_ItE8rotate90Ei
0006ea34 S __ZN9ofPixels_ItE8rotate90Ei.eh
0005c800 S __ZN9ofPixels_ItE8setColorEii8ofColor_ItE
0006ec24 S __ZN9ofPixels_ItE8setColorEii8ofColor_ItE.eh
0005b790 S __ZN9ofPixels_ItE9getPixelsEv
0006ead0 S __ZN9ofPixels_ItE9getPixelsEv.eh
0005c510 S __ZN9ofPixels_ItE9pasteIntoERS0_ii
0006eb88 S __ZN9ofPixels_ItE9pasteIntoERS0_ii.eh
0005a200 S __ZN9ofPixels_ItEC1ERKS0_
0006e7f4 S __ZN9ofPixels_ItEC1ERKS0_.eh
0005a0b0 S __ZN9ofPixels_ItEC1Ev
0006e768 S __ZN9ofPixels_ItEC1Ev.eh
0005a230 S __ZN9ofPixels_ItEC2ERKS0_
0006e810 S __ZN9ofPixels_ItEC2ERKS0_.eh
0005a0e0 S __ZN9ofPixels_ItEC2Ev
0006e784 S __ZN9ofPixels_ItEC2Ev.eh
0005a160 S __ZN9ofPixels_ItED1Ev
0006e7bc S __ZN9ofPixels_ItED1Ev.eh
0005a1b0 S __ZN9ofPixels_ItED2Ev
0006e7d8 S __ZN9ofPixels_ItED2Ev.eh
0005a320 S __ZN9ofPixels_ItEaSERKS0_
0006e84c S __ZN9ofPixels_ItEaSERKS0_.eh
0005b7a0 S __ZN9ofPixels_ItEixEi
0006eaec S __ZN9ofPixels_ItEixEi.eh
         U __ZNK8ofColor_IcE13getBrightnessEv
         U __ZNK8ofColor_IdE13getBrightnessEv
         U __ZNK8ofColor_IfE13getBrightnessEv
         U __ZNK8ofColor_IhE13getBrightnessEv
         U __ZNK8ofColor_IiE13getBrightnessEv
         U __ZNK8ofColor_IjE13getBrightnessEv
         U __ZNK8ofColor_IlE13getBrightnessEv
         U __ZNK8ofColor_ImE13getBrightnessEv
         U __ZNK8ofColor_IsE13getBrightnessEv
         U __ZNK8ofColor_ItE13getBrightnessEv
00054a80 S __ZNK9ofPixels_IcE10getChannelEi
0006db78 S __ZNK9ofPixels_IcE10getChannelEi.eh
00053b80 S __ZNK9ofPixels_IcE11isAllocatedEv
0006d9d4 S __ZNK9ofPixels_IcE11isAllocatedEv.eh
000539e0 S __ZNK9ofPixels_IcE12getImageTypeEv
0006d95c S __ZNK9ofPixels_IcE12getImageTypeEv.eh
00054820 S __ZNK9ofPixels_IcE13getPixelIndexEii
0006da8c S __ZNK9ofPixels_IcE13getPixelIndexEii.eh
00054a70 S __ZNK9ofPixels_IcE14getNumChannelsEv
0006db5c S __ZNK9ofPixels_IcE14getNumChannelsEv.eh
00054a50 S __ZNK9ofPixels_IcE15getBitsPerPixelEv
0006db24 S __ZNK9ofPixels_IcE15getBitsPerPixelEv.eh
00052850 S __ZNK9ofPixels_IcE16getBytesPerPixelEv
0006d7ac S __ZNK9ofPixels_IcE16getBytesPerPixelEv.eh
00054a60 S __ZNK9ofPixels_IcE17getBitsPerChannelEv
0006db40 S __ZNK9ofPixels_IcE17getBitsPerChannelEv.eh
00054a40 S __ZNK9ofPixels_IcE18getBytesPerChannelEv
0006db08 S __ZNK9ofPixels_IcE18getBytesPerChannelEv.eh
00054ba0 S __ZNK9ofPixels_IcE4sizeEv
0006db9c S __ZNK9ofPixels_IcE4sizeEv.eh
00054850 S __ZNK9ofPixels_IcE8getColorEii
0006daa8 S __ZNK9ofPixels_IcE8getColorEii.eh
00052ee0 S __ZNK9ofPixels_IcE8getWidthEv
0006d864 S __ZNK9ofPixels_IcE8getWidthEv.eh
00052ef0 S __ZNK9ofPixels_IcE9getHeightEv
0006d880 S __ZNK9ofPixels_IcE9getHeightEv.eh
00054810 S __ZNK9ofPixels_IcE9getPixelsEv
0006da70 S __ZNK9ofPixels_IcE9getPixelsEv.eh
00054a30 S __ZNK9ofPixels_IcEixEi
0006daec S __ZNK9ofPixels_IcEixEi.eh
0006ca10 S __ZNK9ofPixels_IdE10getChannelEi
00070f68 S __ZNK9ofPixels_IdE10getChannelEi.eh
0006b9c0 S __ZNK9ofPixels_IdE11isAllocatedEv
00070dc8 S __ZNK9ofPixels_IdE11isAllocatedEv.eh
0006b820 S __ZNK9ofPixels_IdE12getImageTypeEv
00070d50 S __ZNK9ofPixels_IdE12getImageTypeEv.eh
0006c780 S __ZNK9ofPixels_IdE13getPixelIndexEii
00070e7c S __ZNK9ofPixels_IdE13getPixelIndexEii.eh
0006ca00 S __ZNK9ofPixels_IdE14getNumChannelsEv
00070f4c S __ZNK9ofPixels_IdE14getNumChannelsEv.eh
0006c9e0 S __ZNK9ofPixels_IdE15getBitsPerPixelEv
00070f14 S __ZNK9ofPixels_IdE15getBitsPerPixelEv.eh
0006a7c0 S __ZNK9ofPixels_IdE16getBytesPerPixelEv
00070bc0 S __ZNK9ofPixels_IdE16getBytesPerPixelEv.eh
0006c9f0 S __ZNK9ofPixels_IdE17getBitsPerChannelEv
00070f30 S __ZNK9ofPixels_IdE17getBitsPerChannelEv.eh
0006c9d0 S __ZNK9ofPixels_IdE18getBytesPerChannelEv
00070ef8 S __ZNK9ofPixels_IdE18getBytesPerChannelEv.eh
0006cb50 S __ZNK9ofPixels_IdE4sizeEv
00070f8c S __ZNK9ofPixels_IdE4sizeEv.eh
0006c7b0 S __ZNK9ofPixels_IdE8getColorEii
00070e98 S __ZNK9ofPixels_IdE8getColorEii.eh
0006aca0 S __ZNK9ofPixels_IdE8getWidthEv
00070c78 S __ZNK9ofPixels_IdE8getWidthEv.eh
0006acb0 S __ZNK9ofPixels_IdE9getHeightEv
00070c94 S __ZNK9ofPixels_IdE9getHeightEv.eh
0006c770 S __ZNK9ofPixels_IdE9getPixelsEv
00070e60 S __ZNK9ofPixels_IdE9getPixelsEv.eh
0006c9c0 S __ZNK9ofPixels_IdEixEi
00070edc S __ZNK9ofPixels_IdEixEi.eh
00069f30 S __ZNK9ofPixels_IfE10getChannelEi
000709ac S __ZNK9ofPixels_IfE10getChannelEi.eh
00068f10 S __ZNK9ofPixels_IfE11isAllocatedEv
0007080c S __ZNK9ofPixels_IfE11isAllocatedEv.eh
00068d70 S __ZNK9ofPixels_IfE12getImageTypeEv
00070794 S __ZNK9ofPixels_IfE12getImageTypeEv.eh
00069cc0 S __ZNK9ofPixels_IfE13getPixelIndexEii
000708c0 S __ZNK9ofPixels_IfE13getPixelIndexEii.eh
00069f20 S __ZNK9ofPixels_IfE14getNumChannelsEv
00070990 S __ZNK9ofPixels_IfE14getNumChannelsEv.eh
00069f00 S __ZNK9ofPixels_IfE15getBitsPerPixelEv
00070958 S __ZNK9ofPixels_IfE15getBitsPerPixelEv.eh
00067d10 S __ZNK9ofPixels_IfE16getBytesPerPixelEv
00070604 S __ZNK9ofPixels_IfE16getBytesPerPixelEv.eh
00069f10 S __ZNK9ofPixels_IfE17getBitsPerChannelEv
00070974 S __ZNK9ofPixels_IfE17getBitsPerChannelEv.eh
00069ef0 S __ZNK9ofPixels_IfE18getBytesPerChannelEv
0007093c S __ZNK9ofPixels_IfE18getBytesPerChannelEv.eh
0006a070 S __ZNK9ofPixels_IfE4sizeEv
000709d0 S __ZNK9ofPixels_IfE4sizeEv.eh
00069cf0 S __ZNK9ofPixels_IfE8getColorEii
000708dc S __ZNK9ofPixels_IfE8getColorEii.eh
000681f0 S __ZNK9ofPixels_IfE8getWidthEv
000706bc S __ZNK9ofPixels_IfE8getWidthEv.eh
00068200 S __ZNK9ofPixels_IfE9getHeightEv
000706d8 S __ZNK9ofPixels_IfE9getHeightEv.eh
00069cb0 S __ZNK9ofPixels_IfE9getPixelsEv
000708a4 S __ZNK9ofPixels_IfE9getPixelsEv.eh
00069ee0 S __ZNK9ofPixels_IfEixEi
00070920 S __ZNK9ofPixels_IfEixEi.eh
000574e0 S __ZNK9ofPixels_IhE10getChannelEi
0006e140 S __ZNK9ofPixels_IhE10getChannelEi.eh
000565e0 S __ZNK9ofPixels_IhE11isAllocatedEv
0006df9c S __ZNK9ofPixels_IhE11isAllocatedEv.eh
00056440 S __ZNK9ofPixels_IhE12getImageTypeEv
0006df24 S __ZNK9ofPixels_IhE12getImageTypeEv.eh
00057280 S __ZNK9ofPixels_IhE13getPixelIndexEii
0006e054 S __ZNK9ofPixels_IhE13getPixelIndexEii.eh
000574d0 S __ZNK9ofPixels_IhE14getNumChannelsEv
0006e124 S __ZNK9ofPixels_IhE14getNumChannelsEv.eh
000574b0 S __ZNK9ofPixels_IhE15getBitsPerPixelEv
0006e0ec S __ZNK9ofPixels_IhE15getBitsPerPixelEv.eh
000552b0 S __ZNK9ofPixels_IhE16getBytesPerPixelEv
0006dd94 S __ZNK9ofPixels_IhE16getBytesPerPixelEv.eh
000574c0 S __ZNK9ofPixels_IhE17getBitsPerChannelEv
0006e108 S __ZNK9ofPixels_IhE17getBitsPerChannelEv.eh
000574a0 S __ZNK9ofPixels_IhE18getBytesPerChannelEv
0006e0d0 S __ZNK9ofPixels_IhE18getBytesPerChannelEv.eh
00057600 S __ZNK9ofPixels_IhE4sizeEv
0006e164 S __ZNK9ofPixels_IhE4sizeEv.eh
000572b0 S __ZNK9ofPixels_IhE8getColorEii
0006e070 S __ZNK9ofPixels_IhE8getColorEii.eh
00055940 S __ZNK9ofPixels_IhE8getWidthEv
0006de4c S __ZNK9ofPixels_IhE8getWidthEv.eh
00055950 S __ZNK9ofPixels_IhE9getHeightEv
0006de68 S __ZNK9ofPixels_IhE9getHeightEv.eh
00057270 S __ZNK9ofPixels_IhE9getPixelsEv
0006e038 S __ZNK9ofPixels_IhE9getPixelsEv.eh
00057490 S __ZNK9ofPixels_IhEixEi
0006e0b4 S __ZNK9ofPixels_IhEixEi.eh
0005f340 S __ZNK9ofPixels_IiE10getChannelEi
0006f298 S __ZNK9ofPixels_IiE10getChannelEi.eh
0005e340 S __ZNK9ofPixels_IiE11isAllocatedEv
0006f0f4 S __ZNK9ofPixels_IiE11isAllocatedEv.eh
0005e1a0 S __ZNK9ofPixels_IiE12getImageTypeEv
0006f07c S __ZNK9ofPixels_IiE12getImageTypeEv.eh
0005f0f0 S __ZNK9ofPixels_IiE13getPixelIndexEii
0006f1ac S __ZNK9ofPixels_IiE13getPixelIndexEii.eh
0005f330 S __ZNK9ofPixels_IiE14getNumChannelsEv
0006f27c S __ZNK9ofPixels_IiE14getNumChannelsEv.eh
0005f310 S __ZNK9ofPixels_IiE15getBitsPerPixelEv
0006f244 S __ZNK9ofPixels_IiE15getBitsPerPixelEv.eh
0005d150 S __ZNK9ofPixels_IiE16getBytesPerPixelEv
0006eeec S __ZNK9ofPixels_IiE16getBytesPerPixelEv.eh
0005f320 S __ZNK9ofPixels_IiE17getBitsPerChannelEv
0006f260 S __ZNK9ofPixels_IiE17getBitsPerChannelEv.eh
0005f300 S __ZNK9ofPixels_IiE18getBytesPerChannelEv
0006f228 S __ZNK9ofPixels_IiE18getBytesPerChannelEv.eh
0005f470 S __ZNK9ofPixels_IiE4sizeEv
0006f2bc S __ZNK9ofPixels_IiE4sizeEv.eh
0005f120 S __ZNK9ofPixels_IiE8getColorEii
0006f1c8 S __ZNK9ofPixels_IiE8getColorEii.eh
0005d630 S __ZNK9ofPixels_IiE8getWidthEv
0006efa4 S __ZNK9ofPixels_IiE8getWidthEv.eh
0005d640 S __ZNK9ofPixels_IiE9getHeightEv
0006efc0 S __ZNK9ofPixels_IiE9getHeightEv.eh
0005f0e0 S __ZNK9ofPixels_IiE9getPixelsEv
0006f190 S __ZNK9ofPixels_IiE9getPixelsEv.eh
0005f2f0 S __ZNK9ofPixels_IiEixEi
0006f20c S __ZNK9ofPixels_IiEixEi.eh
00061ec0 S __ZNK9ofPixels_IjE10getChannelEi
0006f860 S __ZNK9ofPixels_IjE10getChannelEi.eh
00060d90 S __ZNK9ofPixels_IjE11isAllocatedEv
0006f6bc S __ZNK9ofPixels_IjE11isAllocatedEv.eh
00060bf0 S __ZNK9ofPixels_IjE12getImageTypeEv
0006f644 S __ZNK9ofPixels_IjE12getImageTypeEv.eh
00061be0 S __ZNK9ofPixels_IjE13getPixelIndexEii
0006f774 S __ZNK9ofPixels_IjE13getPixelIndexEii.eh
00061eb0 S __ZNK9ofPixels_IjE14getNumChannelsEv
0006f844 S __ZNK9ofPixels_IjE14getNumChannelsEv.eh
00061e90 S __ZNK9ofPixels_IjE15getBitsPerPixelEv
0006f80c S __ZNK9ofPixels_IjE15getBitsPerPixelEv.eh
0005fba0 S __ZNK9ofPixels_IjE16getBytesPerPixelEv
0006f4b4 S __ZNK9ofPixels_IjE16getBytesPerPixelEv.eh
00061ea0 S __ZNK9ofPixels_IjE17getBitsPerChannelEv
0006f828 S __ZNK9ofPixels_IjE17getBitsPerChannelEv.eh
00061e80 S __ZNK9ofPixels_IjE18getBytesPerChannelEv
0006f7f0 S __ZNK9ofPixels_IjE18getBytesPerChannelEv.eh
00061ff0 S __ZNK9ofPixels_IjE4sizeEv
0006f884 S __ZNK9ofPixels_IjE4sizeEv.eh
00061c10 S __ZNK9ofPixels_IjE8getColorEii
0006f790 S __ZNK9ofPixels_IjE8getColorEii.eh
00060080 S __ZNK9ofPixels_IjE8getWidthEv
0006f56c S __ZNK9ofPixels_IjE8getWidthEv.eh
00060090 S __ZNK9ofPixels_IjE9getHeightEv
0006f588 S __ZNK9ofPixels_IjE9getHeightEv.eh
00061bd0 S __ZNK9ofPixels_IjE9getPixelsEv
0006f758 S __ZNK9ofPixels_IjE9getPixelsEv.eh
00061e70 S __ZNK9ofPixels_IjEixEi
0006f7d4 S __ZNK9ofPixels_IjEixEi.eh
00064910 S __ZNK9ofPixels_IlE10getChannelEi
0006fe28 S __ZNK9ofPixels_IlE10getChannelEi.eh
00063910 S __ZNK9ofPixels_IlE11isAllocatedEv
0006fc84 S __ZNK9ofPixels_IlE11isAllocatedEv.eh
00063770 S __ZNK9ofPixels_IlE12getImageTypeEv
0006fc0c S __ZNK9ofPixels_IlE12getImageTypeEv.eh
000646c0 S __ZNK9ofPixels_IlE13getPixelIndexEii
0006fd3c S __ZNK9ofPixels_IlE13getPixelIndexEii.eh
00064900 S __ZNK9ofPixels_IlE14getNumChannelsEv
0006fe0c S __ZNK9ofPixels_IlE14getNumChannelsEv.eh
000648e0 S __ZNK9ofPixels_IlE15getBitsPerPixelEv
0006fdd4 S __ZNK9ofPixels_IlE15getBitsPerPixelEv.eh
00062720 S __ZNK9ofPixels_IlE16getBytesPerPixelEv
0006fa7c S __ZNK9ofPixels_IlE16getBytesPerPixelEv.eh
000648f0 S __ZNK9ofPixels_IlE17getBitsPerChannelEv
0006fdf0 S __ZNK9ofPixels_IlE17getBitsPerChannelEv.eh
000648d0 S __ZNK9ofPixels_IlE18getBytesPerChannelEv
0006fdb8 S __ZNK9ofPixels_IlE18getBytesPerChannelEv.eh
00064a40 S __ZNK9ofPixels_IlE4sizeEv
0006fe4c S __ZNK9ofPixels_IlE4sizeEv.eh
000646f0 S __ZNK9ofPixels_IlE8getColorEii
0006fd58 S __ZNK9ofPixels_IlE8getColorEii.eh
00062c00 S __ZNK9ofPixels_IlE8getWidthEv
0006fb34 S __ZNK9ofPixels_IlE8getWidthEv.eh
00062c10 S __ZNK9ofPixels_IlE9getHeightEv
0006fb50 S __ZNK9ofPixels_IlE9getHeightEv.eh
000646b0 S __ZNK9ofPixels_IlE9getPixelsEv
0006fd20 S __ZNK9ofPixels_IlE9getPixelsEv.eh
000648c0 S __ZNK9ofPixels_IlEixEi
0006fd9c S __ZNK9ofPixels_IlEixEi.eh
00067490 S __ZNK9ofPixels_ImE10getChannelEi
000703f0 S __ZNK9ofPixels_ImE10getChannelEi.eh
